
momo:     file format elf32-i386


Disassembly of section .plt:

08048260 <printf@plt-0x10>:
 8048260:	ff 35 70 56 05 08    	pushl  0x8055670
 8048266:	ff 25 74 56 05 08    	jmp    *0x8055674
 804826c:	00 00                	add    %al,(%eax)
	...

08048270 <printf@plt>:
 8048270:	ff 25 78 56 05 08    	jmp    *0x8055678
 8048276:	68 00 00 00 00       	push   $0x0
 804827b:	e9 e0 ff ff ff       	jmp    8048260 <printf@plt-0x10>

08048280 <fgets@plt>:
 8048280:	ff 25 7c 56 05 08    	jmp    *0x805567c
 8048286:	68 08 00 00 00       	push   $0x8
 804828b:	e9 d0 ff ff ff       	jmp    8048260 <printf@plt-0x10>

08048290 <puts@plt>:
 8048290:	ff 25 80 56 05 08    	jmp    *0x8055680
 8048296:	68 10 00 00 00       	push   $0x10
 804829b:	e9 c0 ff ff ff       	jmp    8048260 <printf@plt-0x10>

080482a0 <exit@plt>:
 80482a0:	ff 25 84 56 05 08    	jmp    *0x8055684
 80482a6:	68 18 00 00 00       	push   $0x18
 80482ab:	e9 b0 ff ff ff       	jmp    8048260 <printf@plt-0x10>

080482b0 <strlen@plt>:
 80482b0:	ff 25 88 56 05 08    	jmp    *0x8055688
 80482b6:	68 20 00 00 00       	push   $0x20
 80482bb:	e9 a0 ff ff ff       	jmp    8048260 <printf@plt-0x10>

080482c0 <sigaction@plt>:
 80482c0:	ff 25 8c 56 05 08    	jmp    *0x805568c
 80482c6:	68 28 00 00 00       	push   $0x28
 80482cb:	e9 90 ff ff ff       	jmp    8048260 <printf@plt-0x10>
 80482d0:	8b 25 20 e8 3f 08    	mov    0x83fe820,%esp
 80482d6:	ff 25 b4 e8 5f 08    	jmp    *0x85fe8b4

Disassembly of section .text:

080482dc <.text>:
 80482dc:	89 25 30 e8 3f 08    	mov    %esp,0x83fe830
 80482e2:	8b 25 20 e8 3f 08    	mov    0x83fe820,%esp
 80482e8:	8b a4 24 98 ff df ff 	mov    -0x200068(%esp),%esp
 80482ef:	8b a4 24 98 ff df ff 	mov    -0x200068(%esp),%esp
 80482f6:	8b a4 24 98 ff df ff 	mov    -0x200068(%esp),%esp
 80482fd:	8b a4 24 98 ff df ff 	mov    -0x200068(%esp),%esp
 8048304:	c7 04 24 0b 00 00 00 	movl   $0xb,(%esp)
 804830b:	c7 44 24 04 c4 e8 5f 	movl   $0x85fe8c4,0x4(%esp)
 8048312:	08 
 8048313:	c7 44 24 08 00 00 00 	movl   $0x0,0x8(%esp)
 804831a:	00 
 804831b:	e8 a0 ff ff ff       	call   80482c0 <sigaction@plt>
 8048320:	8b 25 20 e8 3f 08    	mov    0x83fe820,%esp
 8048326:	8b a4 24 98 ff df ff 	mov    -0x200068(%esp),%esp
 804832d:	8b a4 24 98 ff df ff 	mov    -0x200068(%esp),%esp
 8048334:	8b a4 24 98 ff df ff 	mov    -0x200068(%esp),%esp
 804833b:	c7 04 24 04 00 00 00 	movl   $0x4,(%esp)
 8048342:	c7 44 24 04 50 e9 5f 	movl   $0x85fe950,0x4(%esp)
 8048349:	08 
 804834a:	c7 44 24 08 00 00 00 	movl   $0x0,0x8(%esp)
 8048351:	00 
 8048352:	e8 69 ff ff ff       	call   80482c0 <sigaction@plt>
 8048357:	8b 25 20 e8 3f 08    	mov    0x83fe820,%esp
 804835d:	a1 4c e8 3f 08       	mov    0x83fe84c,%eax
 8048362:	8b 04 85 40 e8 3f 08 	mov    0x83fe840(,%eax,4),%eax
 8048369:	c7 00 01 00 00 00    	movl   $0x1,(%eax)
 804836f:	c7 05 4c e8 3f 08 00 	movl   $0x0,0x83fe84c
 8048376:	00 00 00 
 8048379:	a1 30 e8 3f 08       	mov    0x83fe830,%eax
 804837e:	ba 04 00 00 00       	mov    $0x4,%edx
 8048383:	a3 e0 e6 1f 08       	mov    %eax,0x81fe6e0
 8048388:	89 15 e4 e6 1f 08    	mov    %edx,0x81fe6e4
 804838e:	b8 00 00 00 00       	mov    $0x0,%eax
 8048393:	b9 00 00 00 00       	mov    $0x0,%ecx
 8048398:	c7 05 f0 e6 1f 08 00 	movl   $0x0,0x81fe6f0
 804839f:	00 00 00 
 80483a2:	66 a1 e0 e6 1f 08    	mov    0x81fe6e0,%ax
 80483a8:	66 8b 0d e4 e6 1f 08 	mov    0x81fe6e4,%cx
 80483af:	8b 14 85 20 96 06 08 	mov    0x8069620(,%eax,4),%edx
 80483b6:	8b 14 8a             	mov    (%edx,%ecx,4),%edx
 80483b9:	66 8b 0d f2 e6 1f 08 	mov    0x81fe6f2,%cx
 80483c0:	8b 14 95 20 96 06 08 	mov    0x8069620(,%edx,4),%edx
 80483c7:	8b 14 8a             	mov    (%edx,%ecx,4),%edx
 80483ca:	66 89 15 e8 e6 1f 08 	mov    %dx,0x81fe6e8
 80483d1:	89 15 f0 e6 1f 08    	mov    %edx,0x81fe6f0
 80483d7:	66 a1 e2 e6 1f 08    	mov    0x81fe6e2,%ax
 80483dd:	66 8b 0d e6 e6 1f 08 	mov    0x81fe6e6,%cx
 80483e4:	8b 14 85 20 96 06 08 	mov    0x8069620(,%eax,4),%edx
 80483eb:	8b 14 8a             	mov    (%edx,%ecx,4),%edx
 80483ee:	66 8b 0d f2 e6 1f 08 	mov    0x81fe6f2,%cx
 80483f5:	8b 14 95 20 96 06 08 	mov    0x8069620(,%edx,4),%edx
 80483fc:	8b 14 8a             	mov    (%edx,%ecx,4),%edx
 80483ff:	66 89 15 ea e6 1f 08 	mov    %dx,0x81fe6ea
 8048406:	89 15 f0 e6 1f 08    	mov    %edx,0x81fe6f0
 804840c:	a1 e8 e6 1f 08       	mov    0x81fe6e8,%eax
 8048411:	89 c0                	mov    %eax,%eax
 8048413:	a3 00 e8 1f 08       	mov    %eax,0x81fe800
 8048418:	b8 20 e8 3f 08       	mov    $0x83fe820,%eax
 804841d:	8b 15 48 e8 3f 08    	mov    0x83fe848,%edx
 8048423:	a3 64 e8 3f 08       	mov    %eax,0x83fe864
 8048428:	8b 04 95 60 e8 3f 08 	mov    0x83fe860(,%edx,4),%eax
 804842f:	8b 15 20 e8 3f 08    	mov    0x83fe820,%edx
 8048435:	8b 92 98 ff df ff    	mov    -0x200068(%edx),%edx
 804843b:	89 10                	mov    %edx,(%eax)
 804843d:	a1 20 e8 3f 08       	mov    0x83fe820,%eax
 8048442:	8b 15 48 e8 3f 08    	mov    0x83fe848,%edx
 8048448:	a3 64 e8 3f 08       	mov    %eax,0x83fe864
 804844d:	8b 04 95 60 e8 3f 08 	mov    0x83fe860(,%edx,4),%eax
 8048454:	8b 15 00 e8 1f 08    	mov    0x81fe800,%edx
 804845a:	89 10                	mov    %edx,(%eax)
 804845c:	a1 30 e8 3f 08       	mov    0x83fe830,%eax
 8048461:	8b 00                	mov    (%eax),%eax
 8048463:	89 c0                	mov    %eax,%eax
 8048465:	a3 00 e8 1f 08       	mov    %eax,0x81fe800
 804846a:	b8 20 e8 3f 08       	mov    $0x83fe820,%eax
 804846f:	8b 15 48 e8 3f 08    	mov    0x83fe848,%edx
 8048475:	a3 64 e8 3f 08       	mov    %eax,0x83fe864
 804847a:	8b 04 95 60 e8 3f 08 	mov    0x83fe860(,%edx,4),%eax
 8048481:	8b 15 20 e8 3f 08    	mov    0x83fe820,%edx
 8048487:	8b 92 98 ff df ff    	mov    -0x200068(%edx),%edx
 804848d:	89 10                	mov    %edx,(%eax)
 804848f:	a1 20 e8 3f 08       	mov    0x83fe820,%eax
 8048494:	8b 15 48 e8 3f 08    	mov    0x83fe848,%edx
 804849a:	a3 64 e8 3f 08       	mov    %eax,0x83fe864
 804849f:	8b 04 95 60 e8 3f 08 	mov    0x83fe860(,%edx,4),%eax
 80484a6:	8b 15 00 e8 1f 08    	mov    0x81fe800,%edx
 80484ac:	89 10                	mov    %edx,(%eax)
 80484ae:	b8 be 85 04 88       	mov    $0x880485be,%eax
 80484b3:	89 c0                	mov    %eax,%eax
 80484b5:	a3 00 e8 1f 08       	mov    %eax,0x81fe800
 80484ba:	b8 20 e8 3f 08       	mov    $0x83fe820,%eax
 80484bf:	8b 15 48 e8 3f 08    	mov    0x83fe848,%edx
 80484c5:	a3 64 e8 3f 08       	mov    %eax,0x83fe864
 80484ca:	8b 04 95 60 e8 3f 08 	mov    0x83fe860(,%edx,4),%eax
 80484d1:	8b 15 20 e8 3f 08    	mov    0x83fe820,%edx
 80484d7:	8b 92 98 ff df ff    	mov    -0x200068(%edx),%edx
 80484dd:	89 10                	mov    %edx,(%eax)
 80484df:	a1 20 e8 3f 08       	mov    0x83fe820,%eax
 80484e4:	8b 15 48 e8 3f 08    	mov    0x83fe848,%edx
 80484ea:	a3 64 e8 3f 08       	mov    %eax,0x83fe864
 80484ef:	8b 04 95 60 e8 3f 08 	mov    0x83fe860(,%edx,4),%eax
 80484f6:	8b 15 00 e8 1f 08    	mov    0x81fe800,%edx
 80484fc:	89 10                	mov    %edx,(%eax)
 80484fe:	b8 04 88 04 88       	mov    $0x88048804,%eax
 8048503:	a3 f0 e7 1f 08       	mov    %eax,0x81fe7f0
 8048508:	a1 48 e8 3f 08       	mov    0x83fe848,%eax
 804850d:	8b 04 85 50 e8 3f 08 	mov    0x83fe850(,%eax,4),%eax
 8048514:	8b 15 f0 e7 1f 08    	mov    0x81fe7f0,%edx
 804851a:	89 10                	mov    %edx,(%eax)
 804851c:	8b 0d 48 e8 3f 08    	mov    0x83fe848,%ecx
 8048522:	c7 05 64 e8 3f 08 80 	movl   $0x85fe880,0x83fe864
 8048529:	e8 5f 08 
 804852c:	8b 04 8d 60 e8 3f 08 	mov    0x83fe860(,%ecx,4),%eax
 8048533:	8b 15 40 57 05 08    	mov    0x8055740,%edx
 8048539:	89 10                	mov    %edx,(%eax)
 804853b:	8b 15 44 57 05 08    	mov    0x8055744,%edx
 8048541:	89 50 04             	mov    %edx,0x4(%eax)
 8048544:	8b 15 48 57 05 08    	mov    0x8055748,%edx
 804854a:	89 50 08             	mov    %edx,0x8(%eax)
 804854d:	8b 15 4c 57 05 08    	mov    0x805574c,%edx
 8048553:	89 50 0c             	mov    %edx,0xc(%eax)
 8048556:	c7 05 64 e8 3f 08 90 	movl   $0x85fe890,0x83fe864
 804855d:	e8 5f 08 
 8048560:	8b 04 8d 60 e8 3f 08 	mov    0x83fe860(,%ecx,4),%eax
 8048567:	8b 15 50 57 05 08    	mov    0x8055750,%edx
 804856d:	89 10                	mov    %edx,(%eax)
 804856f:	8b 15 54 57 05 08    	mov    0x8055754,%edx
 8048575:	89 50 04             	mov    %edx,0x4(%eax)
 8048578:	c7 05 64 e8 3f 08 98 	movl   $0x85fe898,0x83fe864
 804857f:	e8 5f 08 
 8048582:	8b 04 8d 60 e8 3f 08 	mov    0x83fe860(,%ecx,4),%eax
 8048589:	8b 15 60 57 05 08    	mov    0x8055760,%edx
 804858f:	89 10                	mov    %edx,(%eax)
 8048591:	8b 15 64 57 05 08    	mov    0x8055764,%edx
 8048597:	89 50 04             	mov    %edx,0x4(%eax)
 804859a:	8b 15 68 57 05 08    	mov    0x8055768,%edx
 80485a0:	89 50 08             	mov    %edx,0x8(%eax)
 80485a3:	8b 15 6c 57 05 08    	mov    0x805576c,%edx
 80485a9:	89 50 0c             	mov    %edx,0xc(%eax)
 80485ac:	a1 48 e8 3f 08       	mov    0x83fe848,%eax
 80485b1:	8b 04 85 40 e8 3f 08 	mov    0x83fe840(,%eax,4),%eax
 80485b8:	c7 00 00 00 00 00    	movl   $0x0,(%eax)
 80485be:	a1 58 e8 3f 08       	mov    0x83fe858,%eax
 80485c3:	ba be 85 04 88       	mov    $0x880485be,%edx
 80485c8:	a3 e0 e6 1f 08       	mov    %eax,0x81fe6e0
 80485cd:	89 15 e4 e6 1f 08    	mov    %edx,0x81fe6e4
 80485d3:	b8 00 00 00 00       	mov    $0x0,%eax
 80485d8:	b9 00 00 00 00       	mov    $0x0,%ecx
 80485dd:	ba 00 00 00 00       	mov    $0x0,%edx
 80485e2:	a0 e0 e6 1f 08       	mov    0x81fe6e0,%al
 80485e7:	8b 0c 85 f0 8c 05 08 	mov    0x8058cf0(,%eax,4),%ecx
 80485ee:	8a 15 e4 e6 1f 08    	mov    0x81fe6e4,%dl
 80485f4:	8a 14 11             	mov    (%ecx,%edx,1),%dl
 80485f7:	89 15 d0 e6 1f 08    	mov    %edx,0x81fe6d0
 80485fd:	a0 e1 e6 1f 08       	mov    0x81fe6e1,%al
 8048602:	8b 0c 85 f0 8c 05 08 	mov    0x8058cf0(,%eax,4),%ecx
 8048609:	8a 15 e5 e6 1f 08    	mov    0x81fe6e5,%dl
 804860f:	8a 14 11             	mov    (%ecx,%edx,1),%dl
 8048612:	89 15 d4 e6 1f 08    	mov    %edx,0x81fe6d4
 8048618:	a0 e2 e6 1f 08       	mov    0x81fe6e2,%al
 804861d:	8b 0c 85 f0 8c 05 08 	mov    0x8058cf0(,%eax,4),%ecx
 8048624:	8a 15 e6 e6 1f 08    	mov    0x81fe6e6,%dl
 804862a:	8a 14 11             	mov    (%ecx,%edx,1),%dl
 804862d:	89 15 d8 e6 1f 08    	mov    %edx,0x81fe6d8
 8048633:	a0 e3 e6 1f 08       	mov    0x81fe6e3,%al
 8048638:	8b 0c 85 f0 8c 05 08 	mov    0x8058cf0(,%eax,4),%ecx
 804863f:	8a 15 e7 e6 1f 08    	mov    0x81fe6e7,%dl
 8048645:	8a 14 11             	mov    (%ecx,%edx,1),%dl
 8048648:	89 15 dc e6 1f 08    	mov    %edx,0x81fe6dc
 804864e:	a1 d0 e6 1f 08       	mov    0x81fe6d0,%eax
 8048653:	8b 15 d4 e6 1f 08    	mov    0x81fe6d4,%edx
 8048659:	8b 04 85 90 57 05 08 	mov    0x8055790(,%eax,4),%eax
 8048660:	8b 04 90             	mov    (%eax,%edx,4),%eax
 8048663:	a3 d0 e6 1f 08       	mov    %eax,0x81fe6d0
 8048668:	a1 d0 e6 1f 08       	mov    0x81fe6d0,%eax
 804866d:	8b 15 d8 e6 1f 08    	mov    0x81fe6d8,%edx
 8048673:	8b 04 85 90 57 05 08 	mov    0x8055790(,%eax,4),%eax
 804867a:	8b 04 90             	mov    (%eax,%edx,4),%eax
 804867d:	a3 d0 e6 1f 08       	mov    %eax,0x81fe6d0
 8048682:	a1 d0 e6 1f 08       	mov    0x81fe6d0,%eax
 8048687:	8b 15 dc e6 1f 08    	mov    0x81fe6dc,%edx
 804868d:	8b 04 85 90 57 05 08 	mov    0x8055790(,%eax,4),%eax
 8048694:	8b 04 90             	mov    (%eax,%edx,4),%eax
 8048697:	a3 d0 e6 1f 08       	mov    %eax,0x81fe6d0
 804869c:	a1 d0 e6 1f 08       	mov    0x81fe6d0,%eax
 80486a1:	a3 d0 e6 1f 08       	mov    %eax,0x81fe6d0
 80486a6:	8b 0d d0 e6 1f 08    	mov    0x81fe6d0,%ecx
 80486ac:	c7 05 64 e8 3f 08 40 	movl   $0x8055740,0x83fe864
 80486b3:	57 05 08 
 80486b6:	8b 04 8d 60 e8 3f 08 	mov    0x83fe860(,%ecx,4),%eax
 80486bd:	8b 15 80 e8 5f 08    	mov    0x85fe880,%edx
 80486c3:	89 10                	mov    %edx,(%eax)
 80486c5:	c7 05 64 e8 3f 08 44 	movl   $0x8055744,0x83fe864
 80486cc:	57 05 08 
 80486cf:	8b 04 8d 60 e8 3f 08 	mov    0x83fe860(,%ecx,4),%eax
 80486d6:	8b 15 84 e8 5f 08    	mov    0x85fe884,%edx
 80486dc:	89 10                	mov    %edx,(%eax)
 80486de:	c7 05 64 e8 3f 08 48 	movl   $0x8055748,0x83fe864
 80486e5:	57 05 08 
 80486e8:	8b 04 8d 60 e8 3f 08 	mov    0x83fe860(,%ecx,4),%eax
 80486ef:	8b 15 88 e8 5f 08    	mov    0x85fe888,%edx
 80486f5:	89 10                	mov    %edx,(%eax)
 80486f7:	c7 05 64 e8 3f 08 4c 	movl   $0x805574c,0x83fe864
 80486fe:	57 05 08 
 8048701:	8b 04 8d 60 e8 3f 08 	mov    0x83fe860(,%ecx,4),%eax
 8048708:	8b 15 8c e8 5f 08    	mov    0x85fe88c,%edx
 804870e:	89 10                	mov    %edx,(%eax)
 8048710:	c7 05 64 e8 3f 08 50 	movl   $0x8055750,0x83fe864
 8048717:	57 05 08 
 804871a:	8b 04 8d 60 e8 3f 08 	mov    0x83fe860(,%ecx,4),%eax
 8048721:	8b 15 90 e8 5f 08    	mov    0x85fe890,%edx
 8048727:	89 10                	mov    %edx,(%eax)
 8048729:	c7 05 64 e8 3f 08 54 	movl   $0x8055754,0x83fe864
 8048730:	57 05 08 
 8048733:	8b 04 8d 60 e8 3f 08 	mov    0x83fe860(,%ecx,4),%eax
 804873a:	8b 15 94 e8 5f 08    	mov    0x85fe894,%edx
 8048740:	89 10                	mov    %edx,(%eax)
 8048742:	c7 05 64 e8 3f 08 60 	movl   $0x8055760,0x83fe864
 8048749:	57 05 08 
 804874c:	8b 04 8d 60 e8 3f 08 	mov    0x83fe860(,%ecx,4),%eax
 8048753:	8b 15 98 e8 5f 08    	mov    0x85fe898,%edx
 8048759:	89 10                	mov    %edx,(%eax)
 804875b:	8b 15 9c e8 5f 08    	mov    0x85fe89c,%edx
 8048761:	89 50 04             	mov    %edx,0x4(%eax)
 8048764:	c7 05 64 e8 3f 08 68 	movl   $0x8055768,0x83fe864
 804876b:	57 05 08 
 804876e:	8b 04 8d 60 e8 3f 08 	mov    0x83fe860(,%ecx,4),%eax
 8048775:	8b 15 a0 e8 5f 08    	mov    0x85fe8a0,%edx
 804877b:	89 10                	mov    %edx,(%eax)
 804877d:	8b 15 a4 e8 5f 08    	mov    0x85fe8a4,%edx
 8048783:	89 50 04             	mov    %edx,0x4(%eax)
 8048786:	a1 d0 e6 1f 08       	mov    0x81fe6d0,%eax
 804878b:	8b 04 85 40 e8 3f 08 	mov    0x83fe840(,%eax,4),%eax
 8048792:	c7 00 01 00 00 00    	movl   $0x1,(%eax)
 8048798:	b8 00 00 00 00       	mov    $0x0,%eax
 804879d:	a3 00 e8 1f 08       	mov    %eax,0x81fe800
 80487a2:	b8 20 e8 3f 08       	mov    $0x83fe820,%eax
 80487a7:	8b 15 48 e8 3f 08    	mov    0x83fe848,%edx
 80487ad:	a3 64 e8 3f 08       	mov    %eax,0x83fe864
 80487b2:	8b 04 95 60 e8 3f 08 	mov    0x83fe860(,%edx,4),%eax
 80487b9:	8b 15 20 e8 3f 08    	mov    0x83fe820,%edx
 80487bf:	8b 92 98 ff df ff    	mov    -0x200068(%edx),%edx
 80487c5:	89 10                	mov    %edx,(%eax)
 80487c7:	a1 20 e8 3f 08       	mov    0x83fe820,%eax
 80487cc:	8b 15 48 e8 3f 08    	mov    0x83fe848,%edx
 80487d2:	a3 64 e8 3f 08       	mov    %eax,0x83fe864
 80487d7:	8b 04 95 60 e8 3f 08 	mov    0x83fe860(,%edx,4),%eax
 80487de:	8b 15 00 e8 1f 08    	mov    0x81fe800,%edx
 80487e4:	89 10                	mov    %edx,(%eax)
 80487e6:	8b 25 20 e8 3f 08    	mov    0x83fe820,%esp
 80487ec:	c7 05 b4 e8 5f 08 a0 	movl   $0x80482a0,0x85fe8b4
 80487f3:	82 04 08 
 80487f6:	a1 48 e8 3f 08       	mov    0x83fe848,%eax
 80487fb:	8b 04 85 b8 e8 5f 08 	mov    0x85fe8b8(,%eax,4),%eax
 8048802:	8b 00                	mov    (%eax),%eax
 8048804:	a1 58 e8 3f 08       	mov    0x83fe858,%eax
 8048809:	ba 04 88 04 88       	mov    $0x88048804,%edx
 804880e:	c7 05 70 e8 5f 08 01 	movl   $0xcc000001,0x85fe870
 8048815:	00 00 cc 
 8048818:	a3 e0 e6 1f 08       	mov    %eax,0x81fe6e0
 804881d:	89 15 e4 e6 1f 08    	mov    %edx,0x81fe6e4
 8048823:	b8 00 00 00 00       	mov    $0x0,%eax
 8048828:	b9 00 00 00 00       	mov    $0x0,%ecx
 804882d:	ba 00 00 00 00       	mov    $0x0,%edx
 8048832:	a0 e0 e6 1f 08       	mov    0x81fe6e0,%al
 8048837:	8b 0c 85 f0 8c 05 08 	mov    0x8058cf0(,%eax,4),%ecx
 804883e:	8a 15 e4 e6 1f 08    	mov    0x81fe6e4,%dl
 8048844:	8a 14 11             	mov    (%ecx,%edx,1),%dl
 8048847:	89 15 d0 e6 1f 08    	mov    %edx,0x81fe6d0
 804884d:	a0 e1 e6 1f 08       	mov    0x81fe6e1,%al
 8048852:	8b 0c 85 f0 8c 05 08 	mov    0x8058cf0(,%eax,4),%ecx
 8048859:	8a 15 e5 e6 1f 08    	mov    0x81fe6e5,%dl
 804885f:	8a 14 11             	mov    (%ecx,%edx,1),%dl
 8048862:	89 15 d4 e6 1f 08    	mov    %edx,0x81fe6d4
 8048868:	a0 e2 e6 1f 08       	mov    0x81fe6e2,%al
 804886d:	8b 0c 85 f0 8c 05 08 	mov    0x8058cf0(,%eax,4),%ecx
 8048874:	8a 15 e6 e6 1f 08    	mov    0x81fe6e6,%dl
 804887a:	8a 14 11             	mov    (%ecx,%edx,1),%dl
 804887d:	89 15 d8 e6 1f 08    	mov    %edx,0x81fe6d8
 8048883:	a0 e3 e6 1f 08       	mov    0x81fe6e3,%al
 8048888:	8b 0c 85 f0 8c 05 08 	mov    0x8058cf0(,%eax,4),%ecx
 804888f:	8a 15 e7 e6 1f 08    	mov    0x81fe6e7,%dl
 8048895:	8a 14 11             	mov    (%ecx,%edx,1),%dl
 8048898:	89 15 dc e6 1f 08    	mov    %edx,0x81fe6dc
 804889e:	c7 05 70 e8 5f 08 02 	movl   $0xcc000002,0x85fe870
 80488a5:	00 00 cc 
 80488a8:	a1 d0 e6 1f 08       	mov    0x81fe6d0,%eax
 80488ad:	8b 15 d4 e6 1f 08    	mov    0x81fe6d4,%edx
 80488b3:	8b 04 85 90 57 05 08 	mov    0x8055790(,%eax,4),%eax
 80488ba:	8b 04 90             	mov    (%eax,%edx,4),%eax
 80488bd:	a3 d0 e6 1f 08       	mov    %eax,0x81fe6d0
 80488c2:	c7 05 70 e8 5f 08 03 	movl   $0xcc000003,0x85fe870
 80488c9:	00 00 cc 
 80488cc:	a1 d0 e6 1f 08       	mov    0x81fe6d0,%eax
 80488d1:	8b 15 d8 e6 1f 08    	mov    0x81fe6d8,%edx
 80488d7:	8b 04 85 90 57 05 08 	mov    0x8055790(,%eax,4),%eax
 80488de:	8b 04 90             	mov    (%eax,%edx,4),%eax
 80488e1:	a3 d0 e6 1f 08       	mov    %eax,0x81fe6d0
 80488e6:	c7 05 70 e8 5f 08 04 	movl   $0xcc000004,0x85fe870
 80488ed:	00 00 cc 
 80488f0:	a1 d0 e6 1f 08       	mov    0x81fe6d0,%eax
 80488f5:	8b 15 dc e6 1f 08    	mov    0x81fe6dc,%edx
 80488fb:	8b 04 85 90 57 05 08 	mov    0x8055790(,%eax,4),%eax
 8048902:	8b 04 90             	mov    (%eax,%edx,4),%eax
 8048905:	a3 d0 e6 1f 08       	mov    %eax,0x81fe6d0
 804890a:	a1 d0 e6 1f 08       	mov    0x81fe6d0,%eax
 804890f:	a3 d0 e6 1f 08       	mov    %eax,0x81fe6d0
 8048914:	c7 05 70 e8 5f 08 05 	movl   $0xcc000005,0x85fe870
 804891b:	00 00 cc 
 804891e:	8b 0d d0 e6 1f 08    	mov    0x81fe6d0,%ecx
 8048924:	c7 05 64 e8 3f 08 40 	movl   $0x8055740,0x83fe864
 804892b:	57 05 08 
 804892e:	8b 04 8d 60 e8 3f 08 	mov    0x83fe860(,%ecx,4),%eax
 8048935:	8b 15 80 e8 5f 08    	mov    0x85fe880,%edx
 804893b:	89 10                	mov    %edx,(%eax)
 804893d:	c7 05 64 e8 3f 08 44 	movl   $0x8055744,0x83fe864
 8048944:	57 05 08 
 8048947:	8b 04 8d 60 e8 3f 08 	mov    0x83fe860(,%ecx,4),%eax
 804894e:	8b 15 84 e8 5f 08    	mov    0x85fe884,%edx
 8048954:	89 10                	mov    %edx,(%eax)
 8048956:	c7 05 64 e8 3f 08 48 	movl   $0x8055748,0x83fe864
 804895d:	57 05 08 
 8048960:	8b 04 8d 60 e8 3f 08 	mov    0x83fe860(,%ecx,4),%eax
 8048967:	8b 15 88 e8 5f 08    	mov    0x85fe888,%edx
 804896d:	89 10                	mov    %edx,(%eax)
 804896f:	c7 05 64 e8 3f 08 4c 	movl   $0x805574c,0x83fe864
 8048976:	57 05 08 
 8048979:	8b 04 8d 60 e8 3f 08 	mov    0x83fe860(,%ecx,4),%eax
 8048980:	8b 15 8c e8 5f 08    	mov    0x85fe88c,%edx
 8048986:	89 10                	mov    %edx,(%eax)
 8048988:	c7 05 64 e8 3f 08 50 	movl   $0x8055750,0x83fe864
 804898f:	57 05 08 
 8048992:	8b 04 8d 60 e8 3f 08 	mov    0x83fe860(,%ecx,4),%eax
 8048999:	8b 15 90 e8 5f 08    	mov    0x85fe890,%edx
 804899f:	89 10                	mov    %edx,(%eax)
 80489a1:	c7 05 64 e8 3f 08 54 	movl   $0x8055754,0x83fe864
 80489a8:	57 05 08 
 80489ab:	8b 04 8d 60 e8 3f 08 	mov    0x83fe860(,%ecx,4),%eax
 80489b2:	8b 15 94 e8 5f 08    	mov    0x85fe894,%edx
 80489b8:	89 10                	mov    %edx,(%eax)
 80489ba:	c7 05 64 e8 3f 08 60 	movl   $0x8055760,0x83fe864
 80489c1:	57 05 08 
 80489c4:	8b 04 8d 60 e8 3f 08 	mov    0x83fe860(,%ecx,4),%eax
 80489cb:	8b 15 98 e8 5f 08    	mov    0x85fe898,%edx
 80489d1:	89 10                	mov    %edx,(%eax)
 80489d3:	8b 15 9c e8 5f 08    	mov    0x85fe89c,%edx
 80489d9:	89 50 04             	mov    %edx,0x4(%eax)
 80489dc:	c7 05 64 e8 3f 08 68 	movl   $0x8055768,0x83fe864
 80489e3:	57 05 08 
 80489e6:	8b 04 8d 60 e8 3f 08 	mov    0x83fe860(,%ecx,4),%eax
 80489ed:	8b 15 a0 e8 5f 08    	mov    0x85fe8a0,%edx
 80489f3:	89 10                	mov    %edx,(%eax)
 80489f5:	8b 15 a4 e8 5f 08    	mov    0x85fe8a4,%edx
 80489fb:	89 50 04             	mov    %edx,0x4(%eax)
 80489fe:	c7 05 70 e8 5f 08 06 	movl   $0xcc000006,0x85fe870
 8048a05:	00 00 cc 
 8048a08:	a1 d0 e6 1f 08       	mov    0x81fe6d0,%eax
 8048a0d:	8b 04 85 40 e8 3f 08 	mov    0x83fe840(,%eax,4),%eax
 8048a14:	c7 00 01 00 00 00    	movl   $0x1,(%eax)
 8048a1a:	c7 05 70 e8 5f 08 07 	movl   $0xcc000007,0x85fe870
 8048a21:	00 00 cc 
 8048a24:	a1 24 e8 3f 08       	mov    0x83fe824,%eax
 8048a29:	a3 00 e8 1f 08       	mov    %eax,0x81fe800
 8048a2e:	b8 20 e8 3f 08       	mov    $0x83fe820,%eax
 8048a33:	8b 15 48 e8 3f 08    	mov    0x83fe848,%edx
 8048a39:	c7 05 70 e8 5f 08 08 	movl   $0xcc000008,0x85fe870
 8048a40:	00 00 cc 
 8048a43:	a3 64 e8 3f 08       	mov    %eax,0x83fe864
 8048a48:	8b 04 95 60 e8 3f 08 	mov    0x83fe860(,%edx,4),%eax
 8048a4f:	8b 15 20 e8 3f 08    	mov    0x83fe820,%edx
 8048a55:	8b 92 98 ff df ff    	mov    -0x200068(%edx),%edx
 8048a5b:	89 10                	mov    %edx,(%eax)
 8048a5d:	a1 20 e8 3f 08       	mov    0x83fe820,%eax
 8048a62:	8b 15 48 e8 3f 08    	mov    0x83fe848,%edx
 8048a68:	c7 05 70 e8 5f 08 09 	movl   $0xcc000009,0x85fe870
 8048a6f:	00 00 cc 
 8048a72:	a3 64 e8 3f 08       	mov    %eax,0x83fe864
 8048a77:	8b 04 95 60 e8 3f 08 	mov    0x83fe860(,%edx,4),%eax
 8048a7e:	8b 15 00 e8 1f 08    	mov    0x81fe800,%edx
 8048a84:	89 10                	mov    %edx,(%eax)
 8048a86:	c7 05 70 e8 5f 08 0a 	movl   $0xcc00000a,0x85fe870
 8048a8d:	00 00 cc 
 8048a90:	a1 44 57 05 08       	mov    0x8055744,%eax
 8048a95:	a3 00 e8 1f 08       	mov    %eax,0x81fe800
 8048a9a:	b8 20 e8 3f 08       	mov    $0x83fe820,%eax
 8048a9f:	8b 15 48 e8 3f 08    	mov    0x83fe848,%edx
 8048aa5:	c7 05 70 e8 5f 08 0b 	movl   $0xcc00000b,0x85fe870
 8048aac:	00 00 cc 
 8048aaf:	a3 64 e8 3f 08       	mov    %eax,0x83fe864
 8048ab4:	8b 04 95 60 e8 3f 08 	mov    0x83fe860(,%edx,4),%eax
 8048abb:	8b 15 20 e8 3f 08    	mov    0x83fe820,%edx
 8048ac1:	8b 92 98 ff df ff    	mov    -0x200068(%edx),%edx
 8048ac7:	89 10                	mov    %edx,(%eax)
 8048ac9:	a1 20 e8 3f 08       	mov    0x83fe820,%eax
 8048ace:	8b 15 48 e8 3f 08    	mov    0x83fe848,%edx
 8048ad4:	c7 05 70 e8 5f 08 0c 	movl   $0xcc00000c,0x85fe870
 8048adb:	00 00 cc 
 8048ade:	a3 64 e8 3f 08       	mov    %eax,0x83fe864
 8048ae3:	8b 04 95 60 e8 3f 08 	mov    0x83fe860(,%edx,4),%eax
 8048aea:	8b 15 00 e8 1f 08    	mov    0x81fe800,%edx
 8048af0:	89 10                	mov    %edx,(%eax)
 8048af2:	c7 05 70 e8 5f 08 0d 	movl   $0xcc00000d,0x85fe870
 8048af9:	00 00 cc 
 8048afc:	a1 48 57 05 08       	mov    0x8055748,%eax
 8048b01:	a3 00 e8 1f 08       	mov    %eax,0x81fe800
 8048b06:	b8 20 e8 3f 08       	mov    $0x83fe820,%eax
 8048b0b:	8b 15 48 e8 3f 08    	mov    0x83fe848,%edx
 8048b11:	c7 05 70 e8 5f 08 0e 	movl   $0xcc00000e,0x85fe870
 8048b18:	00 00 cc 
 8048b1b:	a3 64 e8 3f 08       	mov    %eax,0x83fe864
 8048b20:	8b 04 95 60 e8 3f 08 	mov    0x83fe860(,%edx,4),%eax
 8048b27:	8b 15 20 e8 3f 08    	mov    0x83fe820,%edx
 8048b2d:	8b 92 98 ff df ff    	mov    -0x200068(%edx),%edx
 8048b33:	89 10                	mov    %edx,(%eax)
 8048b35:	a1 20 e8 3f 08       	mov    0x83fe820,%eax
 8048b3a:	8b 15 48 e8 3f 08    	mov    0x83fe848,%edx
 8048b40:	c7 05 70 e8 5f 08 0f 	movl   $0xcc00000f,0x85fe870
 8048b47:	00 00 cc 
 8048b4a:	a3 64 e8 3f 08       	mov    %eax,0x83fe864
 8048b4f:	8b 04 95 60 e8 3f 08 	mov    0x83fe860(,%edx,4),%eax
 8048b56:	8b 15 00 e8 1f 08    	mov    0x81fe800,%edx
 8048b5c:	89 10                	mov    %edx,(%eax)
 8048b5e:	c7 05 70 e8 5f 08 10 	movl   $0xcc000010,0x85fe870
 8048b65:	00 00 cc 
 8048b68:	a1 4c 57 05 08       	mov    0x805574c,%eax
 8048b6d:	a3 00 e8 1f 08       	mov    %eax,0x81fe800
 8048b72:	b8 20 e8 3f 08       	mov    $0x83fe820,%eax
 8048b77:	8b 15 48 e8 3f 08    	mov    0x83fe848,%edx
 8048b7d:	c7 05 70 e8 5f 08 11 	movl   $0xcc000011,0x85fe870
 8048b84:	00 00 cc 
 8048b87:	a3 64 e8 3f 08       	mov    %eax,0x83fe864
 8048b8c:	8b 04 95 60 e8 3f 08 	mov    0x83fe860(,%edx,4),%eax
 8048b93:	8b 15 20 e8 3f 08    	mov    0x83fe820,%edx
 8048b99:	8b 92 98 ff df ff    	mov    -0x200068(%edx),%edx
 8048b9f:	89 10                	mov    %edx,(%eax)
 8048ba1:	a1 20 e8 3f 08       	mov    0x83fe820,%eax
 8048ba6:	8b 15 48 e8 3f 08    	mov    0x83fe848,%edx
 8048bac:	c7 05 70 e8 5f 08 12 	movl   $0xcc000012,0x85fe870
 8048bb3:	00 00 cc 
 8048bb6:	a3 64 e8 3f 08       	mov    %eax,0x83fe864
 8048bbb:	8b 04 95 60 e8 3f 08 	mov    0x83fe860(,%edx,4),%eax
 8048bc2:	8b 15 00 e8 1f 08    	mov    0x81fe800,%edx
 8048bc8:	89 10                	mov    %edx,(%eax)
 8048bca:	c7 05 70 e8 5f 08 13 	movl   $0xcc000013,0x85fe870
 8048bd1:	00 00 cc 
 8048bd4:	a1 54 57 05 08       	mov    0x8055754,%eax
 8048bd9:	a3 00 e8 1f 08       	mov    %eax,0x81fe800
 8048bde:	b8 20 e8 3f 08       	mov    $0x83fe820,%eax
 8048be3:	8b 15 48 e8 3f 08    	mov    0x83fe848,%edx
 8048be9:	c7 05 70 e8 5f 08 14 	movl   $0xcc000014,0x85fe870
 8048bf0:	00 00 cc 
 8048bf3:	a3 64 e8 3f 08       	mov    %eax,0x83fe864
 8048bf8:	8b 04 95 60 e8 3f 08 	mov    0x83fe860(,%edx,4),%eax
 8048bff:	8b 15 20 e8 3f 08    	mov    0x83fe820,%edx
 8048c05:	8b 92 98 ff df ff    	mov    -0x200068(%edx),%edx
 8048c0b:	89 10                	mov    %edx,(%eax)
 8048c0d:	a1 20 e8 3f 08       	mov    0x83fe820,%eax
 8048c12:	8b 15 48 e8 3f 08    	mov    0x83fe848,%edx
 8048c18:	c7 05 70 e8 5f 08 15 	movl   $0xcc000015,0x85fe870
 8048c1f:	00 00 cc 
 8048c22:	a3 64 e8 3f 08       	mov    %eax,0x83fe864
 8048c27:	8b 04 95 60 e8 3f 08 	mov    0x83fe860(,%edx,4),%eax
 8048c2e:	8b 15 00 e8 1f 08    	mov    0x81fe800,%edx
 8048c34:	89 10                	mov    %edx,(%eax)
 8048c36:	c7 05 70 e8 5f 08 16 	movl   $0xcc000016,0x85fe870
 8048c3d:	00 00 cc 
 8048c40:	a1 68 57 05 08       	mov    0x8055768,%eax
 8048c45:	a3 00 e8 1f 08       	mov    %eax,0x81fe800
 8048c4a:	a1 6c 57 05 08       	mov    0x805576c,%eax
 8048c4f:	a3 04 e8 1f 08       	mov    %eax,0x81fe804
 8048c54:	b8 20 e8 3f 08       	mov    $0x83fe820,%eax
 8048c59:	8b 15 48 e8 3f 08    	mov    0x83fe848,%edx
 8048c5f:	c7 05 70 e8 5f 08 17 	movl   $0xcc000017,0x85fe870
 8048c66:	00 00 cc 
 8048c69:	a3 64 e8 3f 08       	mov    %eax,0x83fe864
 8048c6e:	8b 04 95 60 e8 3f 08 	mov    0x83fe860(,%edx,4),%eax
 8048c75:	8b 15 20 e8 3f 08    	mov    0x83fe820,%edx
 8048c7b:	8b 92 98 ff df ff    	mov    -0x200068(%edx),%edx
 8048c81:	8b 92 98 ff df ff    	mov    -0x200068(%edx),%edx
 8048c87:	89 10                	mov    %edx,(%eax)
 8048c89:	a1 20 e8 3f 08       	mov    0x83fe820,%eax
 8048c8e:	8b 15 48 e8 3f 08    	mov    0x83fe848,%edx
 8048c94:	c7 05 70 e8 5f 08 18 	movl   $0xcc000018,0x85fe870
 8048c9b:	00 00 cc 
 8048c9e:	a3 64 e8 3f 08       	mov    %eax,0x83fe864
 8048ca3:	8b 04 95 60 e8 3f 08 	mov    0x83fe860(,%edx,4),%eax
 8048caa:	8b 15 00 e8 1f 08    	mov    0x81fe800,%edx
 8048cb0:	89 10                	mov    %edx,(%eax)
 8048cb2:	8b 15 04 e8 1f 08    	mov    0x81fe804,%edx
 8048cb8:	89 50 04             	mov    %edx,0x4(%eax)
 8048cbb:	b8 24 e8 3f 08       	mov    $0x83fe824,%eax
 8048cc0:	8b 15 48 e8 3f 08    	mov    0x83fe848,%edx
 8048cc6:	c7 05 70 e8 5f 08 19 	movl   $0xcc000019,0x85fe870
 8048ccd:	00 00 cc 
 8048cd0:	a3 64 e8 3f 08       	mov    %eax,0x83fe864
 8048cd5:	8b 04 95 60 e8 3f 08 	mov    0x83fe860(,%edx,4),%eax
 8048cdc:	8b 15 20 e8 3f 08    	mov    0x83fe820,%edx
 8048ce2:	89 10                	mov    %edx,(%eax)
 8048ce4:	a1 20 e8 3f 08       	mov    0x83fe820,%eax
 8048ce9:	8b 80 98 ff df ff    	mov    -0x200068(%eax),%eax
 8048cef:	8b 80 98 ff df ff    	mov    -0x200068(%eax),%eax
 8048cf5:	8b 80 98 ff df ff    	mov    -0x200068(%eax),%eax
 8048cfb:	8b 80 98 ff df ff    	mov    -0x200068(%eax),%eax
 8048d01:	8b 80 98 ff df ff    	mov    -0x200068(%eax),%eax
 8048d07:	8b 80 98 ff df ff    	mov    -0x200068(%eax),%eax
 8048d0d:	8b 80 98 ff df ff    	mov    -0x200068(%eax),%eax
 8048d13:	8b 80 98 ff df ff    	mov    -0x200068(%eax),%eax
 8048d19:	8b 80 98 ff df ff    	mov    -0x200068(%eax),%eax
 8048d1f:	8b 80 98 ff df ff    	mov    -0x200068(%eax),%eax
 8048d25:	8b 80 98 ff df ff    	mov    -0x200068(%eax),%eax
 8048d2b:	8b 80 98 ff df ff    	mov    -0x200068(%eax),%eax
 8048d31:	8b 80 98 ff df ff    	mov    -0x200068(%eax),%eax
 8048d37:	8b 80 98 ff df ff    	mov    -0x200068(%eax),%eax
 8048d3d:	8b 80 98 ff df ff    	mov    -0x200068(%eax),%eax
 8048d43:	8b 80 98 ff df ff    	mov    -0x200068(%eax),%eax
 8048d49:	8b 80 98 ff df ff    	mov    -0x200068(%eax),%eax
 8048d4f:	8b 80 98 ff df ff    	mov    -0x200068(%eax),%eax
 8048d55:	8b 80 98 ff df ff    	mov    -0x200068(%eax),%eax
 8048d5b:	8b 80 98 ff df ff    	mov    -0x200068(%eax),%eax
 8048d61:	8b 80 98 ff df ff    	mov    -0x200068(%eax),%eax
 8048d67:	8b 80 98 ff df ff    	mov    -0x200068(%eax),%eax
 8048d6d:	8b 80 98 ff df ff    	mov    -0x200068(%eax),%eax
 8048d73:	8b 80 98 ff df ff    	mov    -0x200068(%eax),%eax
 8048d79:	8b 80 98 ff df ff    	mov    -0x200068(%eax),%eax
 8048d7f:	8b 80 98 ff df ff    	mov    -0x200068(%eax),%eax
 8048d85:	8b 80 98 ff df ff    	mov    -0x200068(%eax),%eax
 8048d8b:	8b 80 98 ff df ff    	mov    -0x200068(%eax),%eax
 8048d91:	8b 80 98 ff df ff    	mov    -0x200068(%eax),%eax
 8048d97:	8b 80 98 ff df ff    	mov    -0x200068(%eax),%eax
 8048d9d:	8b 80 98 ff df ff    	mov    -0x200068(%eax),%eax
 8048da3:	8b 80 98 ff df ff    	mov    -0x200068(%eax),%eax
 8048da9:	8b 80 98 ff df ff    	mov    -0x200068(%eax),%eax
 8048daf:	8b 80 98 ff df ff    	mov    -0x200068(%eax),%eax
 8048db5:	8b 80 98 ff df ff    	mov    -0x200068(%eax),%eax
 8048dbb:	8b 80 98 ff df ff    	mov    -0x200068(%eax),%eax
 8048dc1:	8b 80 98 ff df ff    	mov    -0x200068(%eax),%eax
 8048dc7:	8b 80 98 ff df ff    	mov    -0x200068(%eax),%eax
 8048dcd:	8b 80 98 ff df ff    	mov    -0x200068(%eax),%eax
 8048dd3:	8b 80 98 ff df ff    	mov    -0x200068(%eax),%eax
 8048dd9:	8b 80 98 ff df ff    	mov    -0x200068(%eax),%eax
 8048ddf:	8b 80 98 ff df ff    	mov    -0x200068(%eax),%eax
 8048de5:	a3 00 e8 1f 08       	mov    %eax,0x81fe800
 8048dea:	b8 20 e8 3f 08       	mov    $0x83fe820,%eax
 8048def:	8b 15 48 e8 3f 08    	mov    0x83fe848,%edx
 8048df5:	c7 05 70 e8 5f 08 1a 	movl   $0xcc00001a,0x85fe870
 8048dfc:	00 00 cc 
 8048dff:	a3 64 e8 3f 08       	mov    %eax,0x83fe864
 8048e04:	8b 04 95 60 e8 3f 08 	mov    0x83fe860(,%edx,4),%eax
 8048e0b:	8b 15 00 e8 1f 08    	mov    0x81fe800,%edx
 8048e11:	89 10                	mov    %edx,(%eax)
 8048e13:	c7 05 70 e8 5f 08 1b 	movl   $0xcc00001b,0x85fe870
 8048e1a:	00 00 cc 
 8048e1d:	a1 24 e8 3f 08       	mov    0x83fe824,%eax
 8048e22:	8b 80 98 ff df ff    	mov    -0x200068(%eax),%eax
 8048e28:	8b 80 98 ff df ff    	mov    -0x200068(%eax),%eax
 8048e2e:	8b 80 98 ff df ff    	mov    -0x200068(%eax),%eax
 8048e34:	8b 80 98 ff df ff    	mov    -0x200068(%eax),%eax
 8048e3a:	8b 80 98 ff df ff    	mov    -0x200068(%eax),%eax
 8048e40:	8b 80 98 ff df ff    	mov    -0x200068(%eax),%eax
 8048e46:	8b 80 98 ff df ff    	mov    -0x200068(%eax),%eax
 8048e4c:	8b 80 98 ff df ff    	mov    -0x200068(%eax),%eax
 8048e52:	8b 80 98 ff df ff    	mov    -0x200068(%eax),%eax
 8048e58:	8b 80 98 ff df ff    	mov    -0x200068(%eax),%eax
 8048e5e:	8b 80 98 ff df ff    	mov    -0x200068(%eax),%eax
 8048e64:	8b 80 98 ff df ff    	mov    -0x200068(%eax),%eax
 8048e6a:	8b 80 98 ff df ff    	mov    -0x200068(%eax),%eax
 8048e70:	8b 80 98 ff df ff    	mov    -0x200068(%eax),%eax
 8048e76:	8b 80 98 ff df ff    	mov    -0x200068(%eax),%eax
 8048e7c:	8b 80 98 ff df ff    	mov    -0x200068(%eax),%eax
 8048e82:	8b 80 98 ff df ff    	mov    -0x200068(%eax),%eax
 8048e88:	8b 80 98 ff df ff    	mov    -0x200068(%eax),%eax
 8048e8e:	8b 80 98 ff df ff    	mov    -0x200068(%eax),%eax
 8048e94:	8b 80 98 ff df ff    	mov    -0x200068(%eax),%eax
 8048e9a:	8b 80 98 ff df ff    	mov    -0x200068(%eax),%eax
 8048ea0:	8b 80 98 ff df ff    	mov    -0x200068(%eax),%eax
 8048ea6:	8b 80 98 ff df ff    	mov    -0x200068(%eax),%eax
 8048eac:	8b 80 98 ff df ff    	mov    -0x200068(%eax),%eax
 8048eb2:	8b 80 98 ff df ff    	mov    -0x200068(%eax),%eax
 8048eb8:	8b 80 98 ff df ff    	mov    -0x200068(%eax),%eax
 8048ebe:	8b 80 98 ff df ff    	mov    -0x200068(%eax),%eax
 8048ec4:	8b 80 98 ff df ff    	mov    -0x200068(%eax),%eax
 8048eca:	8b 80 98 ff df ff    	mov    -0x200068(%eax),%eax
 8048ed0:	8b 80 98 ff df ff    	mov    -0x200068(%eax),%eax
 8048ed6:	8b 80 98 ff df ff    	mov    -0x200068(%eax),%eax
 8048edc:	8b 80 98 ff df ff    	mov    -0x200068(%eax),%eax
 8048ee2:	a3 4c 57 05 08       	mov    %eax,0x805574c
 8048ee7:	c7 05 70 e8 5f 08 1c 	movl   $0xcc00001c,0x85fe870
 8048eee:	00 00 cc 
 8048ef1:	b8 90 56 05 08       	mov    $0x8055690,%eax
 8048ef6:	a3 48 57 05 08       	mov    %eax,0x8055748
 8048efb:	c7 05 70 e8 5f 08 1d 	movl   $0xcc00001d,0x85fe870
 8048f02:	00 00 cc 
 8048f05:	c7 05 70 e8 5f 08 1e 	movl   $0xcc00001e,0x85fe870
 8048f0c:	00 00 cc 
 8048f0f:	a1 4c 57 05 08       	mov    0x805574c,%eax
 8048f14:	8b 0d 48 e8 3f 08    	mov    0x83fe848,%ecx
 8048f1a:	c7 05 70 e8 5f 08 1f 	movl   $0xcc00001f,0x85fe870
 8048f21:	00 00 cc 
 8048f24:	a3 64 e8 3f 08       	mov    %eax,0x83fe864
 8048f29:	8b 04 8d 60 e8 3f 08 	mov    0x83fe860(,%ecx,4),%eax
 8048f30:	8b 15 48 57 05 08    	mov    0x8055748,%edx
 8048f36:	8b 0d 48 e8 3f 08    	mov    0x83fe848,%ecx
 8048f3c:	c7 05 70 e8 5f 08 20 	movl   $0xcc000020,0x85fe870
 8048f43:	00 00 cc 
 8048f46:	89 15 64 e8 3f 08    	mov    %edx,0x83fe864
 8048f4c:	8b 14 8d 60 e8 3f 08 	mov    0x83fe860(,%ecx,4),%edx
 8048f53:	8b 0a                	mov    (%edx),%ecx
 8048f55:	89 08                	mov    %ecx,(%eax)
 8048f57:	8b 4a 04             	mov    0x4(%edx),%ecx
 8048f5a:	89 48 04             	mov    %ecx,0x4(%eax)
 8048f5d:	8b 4a 08             	mov    0x8(%edx),%ecx
 8048f60:	89 48 08             	mov    %ecx,0x8(%eax)
 8048f63:	8b 4a 0c             	mov    0xc(%edx),%ecx
 8048f66:	89 48 0c             	mov    %ecx,0xc(%eax)
 8048f69:	8b 4a 10             	mov    0x10(%edx),%ecx
 8048f6c:	89 48 10             	mov    %ecx,0x10(%eax)
 8048f6f:	8b 4a 14             	mov    0x14(%edx),%ecx
 8048f72:	89 48 14             	mov    %ecx,0x14(%eax)
 8048f75:	8b 4a 18             	mov    0x18(%edx),%ecx
 8048f78:	89 48 18             	mov    %ecx,0x18(%eax)
 8048f7b:	8b 4a 1c             	mov    0x1c(%edx),%ecx
 8048f7e:	89 48 1c             	mov    %ecx,0x1c(%eax)
 8048f81:	8b 4a 20             	mov    0x20(%edx),%ecx
 8048f84:	89 48 20             	mov    %ecx,0x20(%eax)
 8048f87:	8b 4a 24             	mov    0x24(%edx),%ecx
 8048f8a:	89 48 24             	mov    %ecx,0x24(%eax)
 8048f8d:	8b 4a 28             	mov    0x28(%edx),%ecx
 8048f90:	89 48 28             	mov    %ecx,0x28(%eax)
 8048f93:	8b 4a 2c             	mov    0x2c(%edx),%ecx
 8048f96:	89 48 2c             	mov    %ecx,0x2c(%eax)
 8048f99:	8b 4a 30             	mov    0x30(%edx),%ecx
 8048f9c:	89 48 30             	mov    %ecx,0x30(%eax)
 8048f9f:	8b 4a 34             	mov    0x34(%edx),%ecx
 8048fa2:	89 48 34             	mov    %ecx,0x34(%eax)
 8048fa5:	8b 4a 38             	mov    0x38(%edx),%ecx
 8048fa8:	89 48 38             	mov    %ecx,0x38(%eax)
 8048fab:	8b 4a 3c             	mov    0x3c(%edx),%ecx
 8048fae:	89 48 3c             	mov    %ecx,0x3c(%eax)
 8048fb1:	8b 4a 40             	mov    0x40(%edx),%ecx
 8048fb4:	89 48 40             	mov    %ecx,0x40(%eax)
 8048fb7:	8b 4a 44             	mov    0x44(%edx),%ecx
 8048fba:	89 48 44             	mov    %ecx,0x44(%eax)
 8048fbd:	8b 4a 48             	mov    0x48(%edx),%ecx
 8048fc0:	89 48 48             	mov    %ecx,0x48(%eax)
 8048fc3:	8b 4a 4c             	mov    0x4c(%edx),%ecx
 8048fc6:	89 48 4c             	mov    %ecx,0x4c(%eax)
 8048fc9:	8b 4a 50             	mov    0x50(%edx),%ecx
 8048fcc:	89 48 50             	mov    %ecx,0x50(%eax)
 8048fcf:	8b 4a 54             	mov    0x54(%edx),%ecx
 8048fd2:	89 48 54             	mov    %ecx,0x54(%eax)
 8048fd5:	8b 4a 58             	mov    0x58(%edx),%ecx
 8048fd8:	89 48 58             	mov    %ecx,0x58(%eax)
 8048fdb:	8b 4a 5c             	mov    0x5c(%edx),%ecx
 8048fde:	89 48 5c             	mov    %ecx,0x5c(%eax)
 8048fe1:	8b 4a 60             	mov    0x60(%edx),%ecx
 8048fe4:	89 48 60             	mov    %ecx,0x60(%eax)
 8048fe7:	8b 4a 64             	mov    0x64(%edx),%ecx
 8048fea:	89 48 64             	mov    %ecx,0x64(%eax)
 8048fed:	8b 4a 68             	mov    0x68(%edx),%ecx
 8048ff0:	89 48 68             	mov    %ecx,0x68(%eax)
 8048ff3:	8b 4a 6c             	mov    0x6c(%edx),%ecx
 8048ff6:	89 48 6c             	mov    %ecx,0x6c(%eax)
 8048ff9:	8b 4a 70             	mov    0x70(%edx),%ecx
 8048ffc:	89 48 70             	mov    %ecx,0x70(%eax)
 8048fff:	8b 4a 74             	mov    0x74(%edx),%ecx
 8049002:	89 48 74             	mov    %ecx,0x74(%eax)
 8049005:	8b 4a 78             	mov    0x78(%edx),%ecx
 8049008:	89 48 78             	mov    %ecx,0x78(%eax)
 804900b:	8b 4a 7c             	mov    0x7c(%edx),%ecx
 804900e:	89 48 7c             	mov    %ecx,0x7c(%eax)
 8049011:	c7 05 70 e8 5f 08 21 	movl   $0xcc000021,0x85fe870
 8049018:	00 00 cc 
 804901b:	b8 34 57 05 08       	mov    $0x8055734,%eax
 8049020:	a3 4c 57 05 08       	mov    %eax,0x805574c
 8049025:	c7 05 70 e8 5f 08 22 	movl   $0xcc000022,0x85fe870
 804902c:	00 00 cc 
 804902f:	a1 4c 57 05 08       	mov    0x805574c,%eax
 8049034:	c7 05 70 e8 5f 08 23 	movl   $0xcc000023,0x85fe870
 804903b:	00 00 cc 
 804903e:	89 c0                	mov    %eax,%eax
 8049040:	a3 00 e8 1f 08       	mov    %eax,0x81fe800
 8049045:	b8 20 e8 3f 08       	mov    $0x83fe820,%eax
 804904a:	8b 15 48 e8 3f 08    	mov    0x83fe848,%edx
 8049050:	c7 05 70 e8 5f 08 24 	movl   $0xcc000024,0x85fe870
 8049057:	00 00 cc 
 804905a:	a3 64 e8 3f 08       	mov    %eax,0x83fe864
 804905f:	8b 04 95 60 e8 3f 08 	mov    0x83fe860(,%edx,4),%eax
 8049066:	8b 15 20 e8 3f 08    	mov    0x83fe820,%edx
 804906c:	8b 92 98 ff df ff    	mov    -0x200068(%edx),%edx
 8049072:	89 10                	mov    %edx,(%eax)
 8049074:	a1 20 e8 3f 08       	mov    0x83fe820,%eax
 8049079:	8b 15 48 e8 3f 08    	mov    0x83fe848,%edx
 804907f:	c7 05 70 e8 5f 08 25 	movl   $0xcc000025,0x85fe870
 8049086:	00 00 cc 
 8049089:	a3 64 e8 3f 08       	mov    %eax,0x83fe864
 804908e:	8b 04 95 60 e8 3f 08 	mov    0x83fe860(,%edx,4),%eax
 8049095:	8b 15 00 e8 1f 08    	mov    0x81fe800,%edx
 804909b:	89 10                	mov    %edx,(%eax)
 804909d:	c7 05 70 e8 5f 08 26 	movl   $0xcc000026,0x85fe870
 80490a4:	00 00 cc 
 80490a7:	c7 05 70 e8 5f 08 27 	movl   $0xcc000027,0x85fe870
 80490ae:	00 00 cc 
 80490b1:	b8 ec 91 04 88       	mov    $0x880491ec,%eax
 80490b6:	c7 05 70 e8 5f 08 28 	movl   $0xcc000028,0x85fe870
 80490bd:	00 00 cc 
 80490c0:	a3 e0 e6 1f 08       	mov    %eax,0x81fe6e0
 80490c5:	c7 05 e4 e6 1f 08 00 	movl   $0x80000000,0x81fe6e4
 80490cc:	00 00 80 
 80490cf:	c7 05 70 e8 5f 08 29 	movl   $0xcc000029,0x85fe870
 80490d6:	00 00 cc 
 80490d9:	b8 00 00 00 00       	mov    $0x0,%eax
 80490de:	b9 00 00 00 00       	mov    $0x0,%ecx
 80490e3:	c7 05 f0 e6 1f 08 00 	movl   $0x0,0x81fe6f0
 80490ea:	00 00 00 
 80490ed:	c7 05 70 e8 5f 08 2a 	movl   $0xcc00002a,0x85fe870
 80490f4:	00 00 cc 
 80490f7:	66 a1 e0 e6 1f 08    	mov    0x81fe6e0,%ax
 80490fd:	66 8b 0d e4 e6 1f 08 	mov    0x81fe6e4,%cx
 8049104:	8b 14 85 20 96 06 08 	mov    0x8069620(,%eax,4),%edx
 804910b:	8b 14 8a             	mov    (%edx,%ecx,4),%edx
 804910e:	66 8b 0d f2 e6 1f 08 	mov    0x81fe6f2,%cx
 8049115:	8b 14 95 20 96 06 08 	mov    0x8069620(,%edx,4),%edx
 804911c:	8b 14 8a             	mov    (%edx,%ecx,4),%edx
 804911f:	66 89 15 e8 e6 1f 08 	mov    %dx,0x81fe6e8
 8049126:	89 15 f0 e6 1f 08    	mov    %edx,0x81fe6f0
 804912c:	c7 05 70 e8 5f 08 2b 	movl   $0xcc00002b,0x85fe870
 8049133:	00 00 cc 
 8049136:	66 a1 e2 e6 1f 08    	mov    0x81fe6e2,%ax
 804913c:	66 8b 0d e6 e6 1f 08 	mov    0x81fe6e6,%cx
 8049143:	8b 14 85 20 96 06 08 	mov    0x8069620(,%eax,4),%edx
 804914a:	8b 14 8a             	mov    (%edx,%ecx,4),%edx
 804914d:	66 8b 0d f2 e6 1f 08 	mov    0x81fe6f2,%cx
 8049154:	8b 14 95 20 96 06 08 	mov    0x8069620(,%edx,4),%edx
 804915b:	8b 14 8a             	mov    (%edx,%ecx,4),%edx
 804915e:	66 89 15 ea e6 1f 08 	mov    %dx,0x81fe6ea
 8049165:	89 15 f0 e6 1f 08    	mov    %edx,0x81fe6f0
 804916b:	a1 e8 e6 1f 08       	mov    0x81fe6e8,%eax
 8049170:	c7 05 70 e8 5f 08 2c 	movl   $0xcc00002c,0x85fe870
 8049177:	00 00 cc 
 804917a:	89 c0                	mov    %eax,%eax
 804917c:	a3 00 e8 1f 08       	mov    %eax,0x81fe800
 8049181:	b8 20 e8 3f 08       	mov    $0x83fe820,%eax
 8049186:	8b 15 48 e8 3f 08    	mov    0x83fe848,%edx
 804918c:	c7 05 70 e8 5f 08 2d 	movl   $0xcc00002d,0x85fe870
 8049193:	00 00 cc 
 8049196:	a3 64 e8 3f 08       	mov    %eax,0x83fe864
 804919b:	8b 04 95 60 e8 3f 08 	mov    0x83fe860(,%edx,4),%eax
 80491a2:	8b 15 20 e8 3f 08    	mov    0x83fe820,%edx
 80491a8:	8b 92 98 ff df ff    	mov    -0x200068(%edx),%edx
 80491ae:	89 10                	mov    %edx,(%eax)
 80491b0:	a1 20 e8 3f 08       	mov    0x83fe820,%eax
 80491b5:	8b 15 48 e8 3f 08    	mov    0x83fe848,%edx
 80491bb:	c7 05 70 e8 5f 08 2e 	movl   $0xcc00002e,0x85fe870
 80491c2:	00 00 cc 
 80491c5:	a3 64 e8 3f 08       	mov    %eax,0x83fe864
 80491ca:	8b 04 95 60 e8 3f 08 	mov    0x83fe860(,%edx,4),%eax
 80491d1:	8b 15 00 e8 1f 08    	mov    0x81fe800,%edx
 80491d7:	89 10                	mov    %edx,(%eax)
 80491d9:	8b 25 20 e8 3f 08    	mov    0x83fe820,%esp
 80491df:	83 3d 48 e8 3f 08 01 	cmpl   $0x1,0x83fe848
 80491e6:	0f 84 84 f0 ff ff    	je     8048270 <printf@plt>
 80491ec:	a3 40 57 05 08       	mov    %eax,0x8055740
 80491f1:	c7 05 70 e8 5f 08 2f 	movl   $0xcc00002f,0x85fe870
 80491f8:	00 00 cc 
 80491fb:	a1 20 e8 3f 08       	mov    0x83fe820,%eax
 8049200:	8b 10                	mov    (%eax),%edx
 8049202:	89 15 00 e8 1f 08    	mov    %edx,0x81fe800
 8049208:	b8 20 e8 3f 08       	mov    $0x83fe820,%eax
 804920d:	8b 15 48 e8 3f 08    	mov    0x83fe848,%edx
 8049213:	c7 05 70 e8 5f 08 30 	movl   $0xcc000030,0x85fe870
 804921a:	00 00 cc 
 804921d:	a3 64 e8 3f 08       	mov    %eax,0x83fe864
 8049222:	8b 04 95 60 e8 3f 08 	mov    0x83fe860(,%edx,4),%eax
 8049229:	8b 15 20 e8 3f 08    	mov    0x83fe820,%edx
 804922f:	8b 92 a0 ff df ff    	mov    -0x200060(%edx),%edx
 8049235:	89 10                	mov    %edx,(%eax)
 8049237:	8b 15 00 e8 1f 08    	mov    0x81fe800,%edx
 804923d:	89 d0                	mov    %edx,%eax
 804923f:	a1 20 e8 3f 08       	mov    0x83fe820,%eax
 8049244:	8b 80 a0 ff df ff    	mov    -0x200060(%eax),%eax
 804924a:	a3 00 e8 1f 08       	mov    %eax,0x81fe800
 804924f:	b8 20 e8 3f 08       	mov    $0x83fe820,%eax
 8049254:	8b 15 48 e8 3f 08    	mov    0x83fe848,%edx
 804925a:	c7 05 70 e8 5f 08 31 	movl   $0xcc000031,0x85fe870
 8049261:	00 00 cc 
 8049264:	a3 64 e8 3f 08       	mov    %eax,0x83fe864
 8049269:	8b 04 95 60 e8 3f 08 	mov    0x83fe860(,%edx,4),%eax
 8049270:	8b 15 00 e8 1f 08    	mov    0x81fe800,%edx
 8049276:	89 10                	mov    %edx,(%eax)
 8049278:	c7 05 70 e8 5f 08 32 	movl   $0xcc000032,0x85fe870
 804927f:	00 00 cc 
 8049282:	b8 e0 e9 5f 08       	mov    $0x85fe9e0,%eax
 8049287:	a3 4c 57 05 08       	mov    %eax,0x805574c
 804928c:	c7 05 70 e8 5f 08 33 	movl   $0xcc000033,0x85fe870
 8049293:	00 00 cc 
 8049296:	a1 4c 57 05 08       	mov    0x805574c,%eax
 804929b:	8b 15 48 e8 3f 08    	mov    0x83fe848,%edx
 80492a1:	c7 05 70 e8 5f 08 34 	movl   $0xcc000034,0x85fe870
 80492a8:	00 00 cc 
 80492ab:	a3 64 e8 3f 08       	mov    %eax,0x83fe864
 80492b0:	8b 04 95 60 e8 3f 08 	mov    0x83fe860(,%edx,4),%eax
 80492b7:	8b 00                	mov    (%eax),%eax
 80492b9:	a3 4c 57 05 08       	mov    %eax,0x805574c
 80492be:	c7 05 70 e8 5f 08 35 	movl   $0xcc000035,0x85fe870
 80492c5:	00 00 cc 
 80492c8:	a1 4c 57 05 08       	mov    0x805574c,%eax
 80492cd:	c7 05 70 e8 5f 08 36 	movl   $0xcc000036,0x85fe870
 80492d4:	00 00 cc 
 80492d7:	89 c0                	mov    %eax,%eax
 80492d9:	a3 00 e8 1f 08       	mov    %eax,0x81fe800
 80492de:	b8 20 e8 3f 08       	mov    $0x83fe820,%eax
 80492e3:	8b 15 48 e8 3f 08    	mov    0x83fe848,%edx
 80492e9:	c7 05 70 e8 5f 08 37 	movl   $0xcc000037,0x85fe870
 80492f0:	00 00 cc 
 80492f3:	a3 64 e8 3f 08       	mov    %eax,0x83fe864
 80492f8:	8b 04 95 60 e8 3f 08 	mov    0x83fe860(,%edx,4),%eax
 80492ff:	8b 15 20 e8 3f 08    	mov    0x83fe820,%edx
 8049305:	8b 92 98 ff df ff    	mov    -0x200068(%edx),%edx
 804930b:	89 10                	mov    %edx,(%eax)
 804930d:	a1 20 e8 3f 08       	mov    0x83fe820,%eax
 8049312:	8b 15 48 e8 3f 08    	mov    0x83fe848,%edx
 8049318:	c7 05 70 e8 5f 08 38 	movl   $0xcc000038,0x85fe870
 804931f:	00 00 cc 
 8049322:	a3 64 e8 3f 08       	mov    %eax,0x83fe864
 8049327:	8b 04 95 60 e8 3f 08 	mov    0x83fe860(,%edx,4),%eax
 804932e:	8b 15 00 e8 1f 08    	mov    0x81fe800,%edx
 8049334:	89 10                	mov    %edx,(%eax)
 8049336:	c7 05 4c 57 05 08 40 	movl   $0x40,0x805574c
 804933d:	00 00 00 
 8049340:	c7 05 70 e8 5f 08 39 	movl   $0xcc000039,0x85fe870
 8049347:	00 00 cc 
 804934a:	a1 4c 57 05 08       	mov    0x805574c,%eax
 804934f:	c7 05 70 e8 5f 08 3a 	movl   $0xcc00003a,0x85fe870
 8049356:	00 00 cc 
 8049359:	89 c0                	mov    %eax,%eax
 804935b:	a3 00 e8 1f 08       	mov    %eax,0x81fe800
 8049360:	b8 20 e8 3f 08       	mov    $0x83fe820,%eax
 8049365:	8b 15 48 e8 3f 08    	mov    0x83fe848,%edx
 804936b:	c7 05 70 e8 5f 08 3b 	movl   $0xcc00003b,0x85fe870
 8049372:	00 00 cc 
 8049375:	a3 64 e8 3f 08       	mov    %eax,0x83fe864
 804937a:	8b 04 95 60 e8 3f 08 	mov    0x83fe860(,%edx,4),%eax
 8049381:	8b 15 20 e8 3f 08    	mov    0x83fe820,%edx
 8049387:	8b 92 98 ff df ff    	mov    -0x200068(%edx),%edx
 804938d:	89 10                	mov    %edx,(%eax)
 804938f:	a1 20 e8 3f 08       	mov    0x83fe820,%eax
 8049394:	8b 15 48 e8 3f 08    	mov    0x83fe848,%edx
 804939a:	c7 05 70 e8 5f 08 3c 	movl   $0xcc00003c,0x85fe870
 80493a1:	00 00 cc 
 80493a4:	a3 64 e8 3f 08       	mov    %eax,0x83fe864
 80493a9:	8b 04 95 60 e8 3f 08 	mov    0x83fe860(,%edx,4),%eax
 80493b0:	8b 15 00 e8 1f 08    	mov    0x81fe800,%edx
 80493b6:	89 10                	mov    %edx,(%eax)
 80493b8:	c7 05 70 e8 5f 08 3d 	movl   $0xcc00003d,0x85fe870
 80493bf:	00 00 cc 
 80493c2:	a1 24 e8 3f 08       	mov    0x83fe824,%eax
 80493c7:	8b 80 98 ff df ff    	mov    -0x200068(%eax),%eax
 80493cd:	8b 80 98 ff df ff    	mov    -0x200068(%eax),%eax
 80493d3:	8b 80 98 ff df ff    	mov    -0x200068(%eax),%eax
 80493d9:	8b 80 98 ff df ff    	mov    -0x200068(%eax),%eax
 80493df:	8b 80 98 ff df ff    	mov    -0x200068(%eax),%eax
 80493e5:	8b 80 98 ff df ff    	mov    -0x200068(%eax),%eax
 80493eb:	8b 80 98 ff df ff    	mov    -0x200068(%eax),%eax
 80493f1:	8b 80 98 ff df ff    	mov    -0x200068(%eax),%eax
 80493f7:	8b 80 98 ff df ff    	mov    -0x200068(%eax),%eax
 80493fd:	8b 80 98 ff df ff    	mov    -0x200068(%eax),%eax
 8049403:	8b 80 98 ff df ff    	mov    -0x200068(%eax),%eax
 8049409:	8b 80 98 ff df ff    	mov    -0x200068(%eax),%eax
 804940f:	8b 80 98 ff df ff    	mov    -0x200068(%eax),%eax
 8049415:	8b 80 98 ff df ff    	mov    -0x200068(%eax),%eax
 804941b:	8b 80 98 ff df ff    	mov    -0x200068(%eax),%eax
 8049421:	8b 80 98 ff df ff    	mov    -0x200068(%eax),%eax
 8049427:	8b 80 98 ff df ff    	mov    -0x200068(%eax),%eax
 804942d:	8b 80 98 ff df ff    	mov    -0x200068(%eax),%eax
 8049433:	8b 80 98 ff df ff    	mov    -0x200068(%eax),%eax
 8049439:	8b 80 98 ff df ff    	mov    -0x200068(%eax),%eax
 804943f:	8b 80 98 ff df ff    	mov    -0x200068(%eax),%eax
 8049445:	8b 80 98 ff df ff    	mov    -0x200068(%eax),%eax
 804944b:	8b 80 98 ff df ff    	mov    -0x200068(%eax),%eax
 8049451:	8b 80 98 ff df ff    	mov    -0x200068(%eax),%eax
 8049457:	8b 80 98 ff df ff    	mov    -0x200068(%eax),%eax
 804945d:	8b 80 98 ff df ff    	mov    -0x200068(%eax),%eax
 8049463:	8b 80 98 ff df ff    	mov    -0x200068(%eax),%eax
 8049469:	8b 80 98 ff df ff    	mov    -0x200068(%eax),%eax
 804946f:	8b 80 98 ff df ff    	mov    -0x200068(%eax),%eax
 8049475:	8b 80 98 ff df ff    	mov    -0x200068(%eax),%eax
 804947b:	8b 80 98 ff df ff    	mov    -0x200068(%eax),%eax
 8049481:	8b 80 98 ff df ff    	mov    -0x200068(%eax),%eax
 8049487:	a3 4c 57 05 08       	mov    %eax,0x805574c
 804948c:	c7 05 70 e8 5f 08 3e 	movl   $0xcc00003e,0x85fe870
 8049493:	00 00 cc 
 8049496:	a1 4c 57 05 08       	mov    0x805574c,%eax
 804949b:	c7 05 70 e8 5f 08 3f 	movl   $0xcc00003f,0x85fe870
 80494a2:	00 00 cc 
 80494a5:	89 c0                	mov    %eax,%eax
 80494a7:	a3 00 e8 1f 08       	mov    %eax,0x81fe800
 80494ac:	b8 20 e8 3f 08       	mov    $0x83fe820,%eax
 80494b1:	8b 15 48 e8 3f 08    	mov    0x83fe848,%edx
 80494b7:	c7 05 70 e8 5f 08 40 	movl   $0xcc000040,0x85fe870
 80494be:	00 00 cc 
 80494c1:	a3 64 e8 3f 08       	mov    %eax,0x83fe864
 80494c6:	8b 04 95 60 e8 3f 08 	mov    0x83fe860(,%edx,4),%eax
 80494cd:	8b 15 20 e8 3f 08    	mov    0x83fe820,%edx
 80494d3:	8b 92 98 ff df ff    	mov    -0x200068(%edx),%edx
 80494d9:	89 10                	mov    %edx,(%eax)
 80494db:	a1 20 e8 3f 08       	mov    0x83fe820,%eax
 80494e0:	8b 15 48 e8 3f 08    	mov    0x83fe848,%edx
 80494e6:	c7 05 70 e8 5f 08 41 	movl   $0xcc000041,0x85fe870
 80494ed:	00 00 cc 
 80494f0:	a3 64 e8 3f 08       	mov    %eax,0x83fe864
 80494f5:	8b 04 95 60 e8 3f 08 	mov    0x83fe860(,%edx,4),%eax
 80494fc:	8b 15 00 e8 1f 08    	mov    0x81fe800,%edx
 8049502:	89 10                	mov    %edx,(%eax)
 8049504:	c7 05 70 e8 5f 08 42 	movl   $0xcc000042,0x85fe870
 804950b:	00 00 cc 
 804950e:	c7 05 70 e8 5f 08 43 	movl   $0xcc000043,0x85fe870
 8049515:	00 00 cc 
 8049518:	b8 53 96 04 88       	mov    $0x88049653,%eax
 804951d:	c7 05 70 e8 5f 08 44 	movl   $0xcc000044,0x85fe870
 8049524:	00 00 cc 
 8049527:	a3 e0 e6 1f 08       	mov    %eax,0x81fe6e0
 804952c:	c7 05 e4 e6 1f 08 00 	movl   $0x80000000,0x81fe6e4
 8049533:	00 00 80 
 8049536:	c7 05 70 e8 5f 08 45 	movl   $0xcc000045,0x85fe870
 804953d:	00 00 cc 
 8049540:	b8 00 00 00 00       	mov    $0x0,%eax
 8049545:	b9 00 00 00 00       	mov    $0x0,%ecx
 804954a:	c7 05 f0 e6 1f 08 00 	movl   $0x0,0x81fe6f0
 8049551:	00 00 00 
 8049554:	c7 05 70 e8 5f 08 46 	movl   $0xcc000046,0x85fe870
 804955b:	00 00 cc 
 804955e:	66 a1 e0 e6 1f 08    	mov    0x81fe6e0,%ax
 8049564:	66 8b 0d e4 e6 1f 08 	mov    0x81fe6e4,%cx
 804956b:	8b 14 85 20 96 06 08 	mov    0x8069620(,%eax,4),%edx
 8049572:	8b 14 8a             	mov    (%edx,%ecx,4),%edx
 8049575:	66 8b 0d f2 e6 1f 08 	mov    0x81fe6f2,%cx
 804957c:	8b 14 95 20 96 06 08 	mov    0x8069620(,%edx,4),%edx
 8049583:	8b 14 8a             	mov    (%edx,%ecx,4),%edx
 8049586:	66 89 15 e8 e6 1f 08 	mov    %dx,0x81fe6e8
 804958d:	89 15 f0 e6 1f 08    	mov    %edx,0x81fe6f0
 8049593:	c7 05 70 e8 5f 08 47 	movl   $0xcc000047,0x85fe870
 804959a:	00 00 cc 
 804959d:	66 a1 e2 e6 1f 08    	mov    0x81fe6e2,%ax
 80495a3:	66 8b 0d e6 e6 1f 08 	mov    0x81fe6e6,%cx
 80495aa:	8b 14 85 20 96 06 08 	mov    0x8069620(,%eax,4),%edx
 80495b1:	8b 14 8a             	mov    (%edx,%ecx,4),%edx
 80495b4:	66 8b 0d f2 e6 1f 08 	mov    0x81fe6f2,%cx
 80495bb:	8b 14 95 20 96 06 08 	mov    0x8069620(,%edx,4),%edx
 80495c2:	8b 14 8a             	mov    (%edx,%ecx,4),%edx
 80495c5:	66 89 15 ea e6 1f 08 	mov    %dx,0x81fe6ea
 80495cc:	89 15 f0 e6 1f 08    	mov    %edx,0x81fe6f0
 80495d2:	a1 e8 e6 1f 08       	mov    0x81fe6e8,%eax
 80495d7:	c7 05 70 e8 5f 08 48 	movl   $0xcc000048,0x85fe870
 80495de:	00 00 cc 
 80495e1:	89 c0                	mov    %eax,%eax
 80495e3:	a3 00 e8 1f 08       	mov    %eax,0x81fe800
 80495e8:	b8 20 e8 3f 08       	mov    $0x83fe820,%eax
 80495ed:	8b 15 48 e8 3f 08    	mov    0x83fe848,%edx
 80495f3:	c7 05 70 e8 5f 08 49 	movl   $0xcc000049,0x85fe870
 80495fa:	00 00 cc 
 80495fd:	a3 64 e8 3f 08       	mov    %eax,0x83fe864
 8049602:	8b 04 95 60 e8 3f 08 	mov    0x83fe860(,%edx,4),%eax
 8049609:	8b 15 20 e8 3f 08    	mov    0x83fe820,%edx
 804960f:	8b 92 98 ff df ff    	mov    -0x200068(%edx),%edx
 8049615:	89 10                	mov    %edx,(%eax)
 8049617:	a1 20 e8 3f 08       	mov    0x83fe820,%eax
 804961c:	8b 15 48 e8 3f 08    	mov    0x83fe848,%edx
 8049622:	c7 05 70 e8 5f 08 4a 	movl   $0xcc00004a,0x85fe870
 8049629:	00 00 cc 
 804962c:	a3 64 e8 3f 08       	mov    %eax,0x83fe864
 8049631:	8b 04 95 60 e8 3f 08 	mov    0x83fe860(,%edx,4),%eax
 8049638:	8b 15 00 e8 1f 08    	mov    0x81fe800,%edx
 804963e:	89 10                	mov    %edx,(%eax)
 8049640:	8b 25 20 e8 3f 08    	mov    0x83fe820,%esp
 8049646:	83 3d 48 e8 3f 08 01 	cmpl   $0x1,0x83fe848
 804964d:	0f 84 2d ec ff ff    	je     8048280 <fgets@plt>
 8049653:	a3 40 57 05 08       	mov    %eax,0x8055740
 8049658:	c7 05 70 e8 5f 08 4b 	movl   $0xcc00004b,0x85fe870
 804965f:	00 00 cc 
 8049662:	a1 20 e8 3f 08       	mov    0x83fe820,%eax
 8049667:	8b 10                	mov    (%eax),%edx
 8049669:	89 15 00 e8 1f 08    	mov    %edx,0x81fe800
 804966f:	b8 20 e8 3f 08       	mov    $0x83fe820,%eax
 8049674:	8b 15 48 e8 3f 08    	mov    0x83fe848,%edx
 804967a:	c7 05 70 e8 5f 08 4c 	movl   $0xcc00004c,0x85fe870
 8049681:	00 00 cc 
 8049684:	a3 64 e8 3f 08       	mov    %eax,0x83fe864
 8049689:	8b 04 95 60 e8 3f 08 	mov    0x83fe860(,%edx,4),%eax
 8049690:	8b 15 20 e8 3f 08    	mov    0x83fe820,%edx
 8049696:	8b 92 a0 ff df ff    	mov    -0x200060(%edx),%edx
 804969c:	89 10                	mov    %edx,(%eax)
 804969e:	8b 15 00 e8 1f 08    	mov    0x81fe800,%edx
 80496a4:	89 d0                	mov    %edx,%eax
 80496a6:	a1 20 e8 3f 08       	mov    0x83fe820,%eax
 80496ab:	8b 80 a0 ff df ff    	mov    -0x200060(%eax),%eax
 80496b1:	8b 80 a0 ff df ff    	mov    -0x200060(%eax),%eax
 80496b7:	8b 80 a0 ff df ff    	mov    -0x200060(%eax),%eax
 80496bd:	a3 00 e8 1f 08       	mov    %eax,0x81fe800
 80496c2:	b8 20 e8 3f 08       	mov    $0x83fe820,%eax
 80496c7:	8b 15 48 e8 3f 08    	mov    0x83fe848,%edx
 80496cd:	c7 05 70 e8 5f 08 4d 	movl   $0xcc00004d,0x85fe870
 80496d4:	00 00 cc 
 80496d7:	a3 64 e8 3f 08       	mov    %eax,0x83fe864
 80496dc:	8b 04 95 60 e8 3f 08 	mov    0x83fe860(,%edx,4),%eax
 80496e3:	8b 15 00 e8 1f 08    	mov    0x81fe800,%edx
 80496e9:	89 10                	mov    %edx,(%eax)
 80496eb:	c7 05 70 e8 5f 08 4e 	movl   $0xcc00004e,0x85fe870
 80496f2:	00 00 cc 
 80496f5:	a1 24 e8 3f 08       	mov    0x83fe824,%eax
 80496fa:	8b 80 98 ff df ff    	mov    -0x200068(%eax),%eax
 8049700:	8b 80 98 ff df ff    	mov    -0x200068(%eax),%eax
 8049706:	8b 80 98 ff df ff    	mov    -0x200068(%eax),%eax
 804970c:	8b 80 98 ff df ff    	mov    -0x200068(%eax),%eax
 8049712:	8b 80 98 ff df ff    	mov    -0x200068(%eax),%eax
 8049718:	8b 80 98 ff df ff    	mov    -0x200068(%eax),%eax
 804971e:	8b 80 98 ff df ff    	mov    -0x200068(%eax),%eax
 8049724:	8b 80 98 ff df ff    	mov    -0x200068(%eax),%eax
 804972a:	8b 80 98 ff df ff    	mov    -0x200068(%eax),%eax
 8049730:	8b 80 98 ff df ff    	mov    -0x200068(%eax),%eax
 8049736:	8b 80 98 ff df ff    	mov    -0x200068(%eax),%eax
 804973c:	8b 80 98 ff df ff    	mov    -0x200068(%eax),%eax
 8049742:	8b 80 98 ff df ff    	mov    -0x200068(%eax),%eax
 8049748:	8b 80 98 ff df ff    	mov    -0x200068(%eax),%eax
 804974e:	8b 80 98 ff df ff    	mov    -0x200068(%eax),%eax
 8049754:	8b 80 98 ff df ff    	mov    -0x200068(%eax),%eax
 804975a:	8b 80 98 ff df ff    	mov    -0x200068(%eax),%eax
 8049760:	8b 80 98 ff df ff    	mov    -0x200068(%eax),%eax
 8049766:	8b 80 98 ff df ff    	mov    -0x200068(%eax),%eax
 804976c:	8b 80 98 ff df ff    	mov    -0x200068(%eax),%eax
 8049772:	8b 80 98 ff df ff    	mov    -0x200068(%eax),%eax
 8049778:	8b 80 98 ff df ff    	mov    -0x200068(%eax),%eax
 804977e:	8b 80 98 ff df ff    	mov    -0x200068(%eax),%eax
 8049784:	8b 80 98 ff df ff    	mov    -0x200068(%eax),%eax
 804978a:	8b 80 98 ff df ff    	mov    -0x200068(%eax),%eax
 8049790:	8b 80 98 ff df ff    	mov    -0x200068(%eax),%eax
 8049796:	8b 80 98 ff df ff    	mov    -0x200068(%eax),%eax
 804979c:	8b 80 98 ff df ff    	mov    -0x200068(%eax),%eax
 80497a2:	8b 80 98 ff df ff    	mov    -0x200068(%eax),%eax
 80497a8:	8b 80 98 ff df ff    	mov    -0x200068(%eax),%eax
 80497ae:	8b 80 98 ff df ff    	mov    -0x200068(%eax),%eax
 80497b4:	8b 80 98 ff df ff    	mov    -0x200068(%eax),%eax
 80497ba:	a3 4c 57 05 08       	mov    %eax,0x805574c
 80497bf:	c7 05 70 e8 5f 08 4f 	movl   $0xcc00004f,0x85fe870
 80497c6:	00 00 cc 
 80497c9:	a1 4c 57 05 08       	mov    0x805574c,%eax
 80497ce:	c7 05 70 e8 5f 08 50 	movl   $0xcc000050,0x85fe870
 80497d5:	00 00 cc 
 80497d8:	89 c0                	mov    %eax,%eax
 80497da:	a3 00 e8 1f 08       	mov    %eax,0x81fe800
 80497df:	b8 20 e8 3f 08       	mov    $0x83fe820,%eax
 80497e4:	8b 15 48 e8 3f 08    	mov    0x83fe848,%edx
 80497ea:	c7 05 70 e8 5f 08 51 	movl   $0xcc000051,0x85fe870
 80497f1:	00 00 cc 
 80497f4:	a3 64 e8 3f 08       	mov    %eax,0x83fe864
 80497f9:	8b 04 95 60 e8 3f 08 	mov    0x83fe860(,%edx,4),%eax
 8049800:	8b 15 20 e8 3f 08    	mov    0x83fe820,%edx
 8049806:	8b 92 98 ff df ff    	mov    -0x200068(%edx),%edx
 804980c:	89 10                	mov    %edx,(%eax)
 804980e:	a1 20 e8 3f 08       	mov    0x83fe820,%eax
 8049813:	8b 15 48 e8 3f 08    	mov    0x83fe848,%edx
 8049819:	c7 05 70 e8 5f 08 52 	movl   $0xcc000052,0x85fe870
 8049820:	00 00 cc 
 8049823:	a3 64 e8 3f 08       	mov    %eax,0x83fe864
 8049828:	8b 04 95 60 e8 3f 08 	mov    0x83fe860(,%edx,4),%eax
 804982f:	8b 15 00 e8 1f 08    	mov    0x81fe800,%edx
 8049835:	89 10                	mov    %edx,(%eax)
 8049837:	c7 05 70 e8 5f 08 53 	movl   $0xcc000053,0x85fe870
 804983e:	00 00 cc 
 8049841:	c7 05 70 e8 5f 08 54 	movl   $0xcc000054,0x85fe870
 8049848:	00 00 cc 
 804984b:	b8 86 99 04 88       	mov    $0x88049986,%eax
 8049850:	c7 05 70 e8 5f 08 55 	movl   $0xcc000055,0x85fe870
 8049857:	00 00 cc 
 804985a:	a3 e0 e6 1f 08       	mov    %eax,0x81fe6e0
 804985f:	c7 05 e4 e6 1f 08 00 	movl   $0x80000000,0x81fe6e4
 8049866:	00 00 80 
 8049869:	c7 05 70 e8 5f 08 56 	movl   $0xcc000056,0x85fe870
 8049870:	00 00 cc 
 8049873:	b8 00 00 00 00       	mov    $0x0,%eax
 8049878:	b9 00 00 00 00       	mov    $0x0,%ecx
 804987d:	c7 05 f0 e6 1f 08 00 	movl   $0x0,0x81fe6f0
 8049884:	00 00 00 
 8049887:	c7 05 70 e8 5f 08 57 	movl   $0xcc000057,0x85fe870
 804988e:	00 00 cc 
 8049891:	66 a1 e0 e6 1f 08    	mov    0x81fe6e0,%ax
 8049897:	66 8b 0d e4 e6 1f 08 	mov    0x81fe6e4,%cx
 804989e:	8b 14 85 20 96 06 08 	mov    0x8069620(,%eax,4),%edx
 80498a5:	8b 14 8a             	mov    (%edx,%ecx,4),%edx
 80498a8:	66 8b 0d f2 e6 1f 08 	mov    0x81fe6f2,%cx
 80498af:	8b 14 95 20 96 06 08 	mov    0x8069620(,%edx,4),%edx
 80498b6:	8b 14 8a             	mov    (%edx,%ecx,4),%edx
 80498b9:	66 89 15 e8 e6 1f 08 	mov    %dx,0x81fe6e8
 80498c0:	89 15 f0 e6 1f 08    	mov    %edx,0x81fe6f0
 80498c6:	c7 05 70 e8 5f 08 58 	movl   $0xcc000058,0x85fe870
 80498cd:	00 00 cc 
 80498d0:	66 a1 e2 e6 1f 08    	mov    0x81fe6e2,%ax
 80498d6:	66 8b 0d e6 e6 1f 08 	mov    0x81fe6e6,%cx
 80498dd:	8b 14 85 20 96 06 08 	mov    0x8069620(,%eax,4),%edx
 80498e4:	8b 14 8a             	mov    (%edx,%ecx,4),%edx
 80498e7:	66 8b 0d f2 e6 1f 08 	mov    0x81fe6f2,%cx
 80498ee:	8b 14 95 20 96 06 08 	mov    0x8069620(,%edx,4),%edx
 80498f5:	8b 14 8a             	mov    (%edx,%ecx,4),%edx
 80498f8:	66 89 15 ea e6 1f 08 	mov    %dx,0x81fe6ea
 80498ff:	89 15 f0 e6 1f 08    	mov    %edx,0x81fe6f0
 8049905:	a1 e8 e6 1f 08       	mov    0x81fe6e8,%eax
 804990a:	c7 05 70 e8 5f 08 59 	movl   $0xcc000059,0x85fe870
 8049911:	00 00 cc 
 8049914:	89 c0                	mov    %eax,%eax
 8049916:	a3 00 e8 1f 08       	mov    %eax,0x81fe800
 804991b:	b8 20 e8 3f 08       	mov    $0x83fe820,%eax
 8049920:	8b 15 48 e8 3f 08    	mov    0x83fe848,%edx
 8049926:	c7 05 70 e8 5f 08 5a 	movl   $0xcc00005a,0x85fe870
 804992d:	00 00 cc 
 8049930:	a3 64 e8 3f 08       	mov    %eax,0x83fe864
 8049935:	8b 04 95 60 e8 3f 08 	mov    0x83fe860(,%edx,4),%eax
 804993c:	8b 15 20 e8 3f 08    	mov    0x83fe820,%edx
 8049942:	8b 92 98 ff df ff    	mov    -0x200068(%edx),%edx
 8049948:	89 10                	mov    %edx,(%eax)
 804994a:	a1 20 e8 3f 08       	mov    0x83fe820,%eax
 804994f:	8b 15 48 e8 3f 08    	mov    0x83fe848,%edx
 8049955:	c7 05 70 e8 5f 08 5b 	movl   $0xcc00005b,0x85fe870
 804995c:	00 00 cc 
 804995f:	a3 64 e8 3f 08       	mov    %eax,0x83fe864
 8049964:	8b 04 95 60 e8 3f 08 	mov    0x83fe860(,%edx,4),%eax
 804996b:	8b 15 00 e8 1f 08    	mov    0x81fe800,%edx
 8049971:	89 10                	mov    %edx,(%eax)
 8049973:	8b 25 20 e8 3f 08    	mov    0x83fe820,%esp
 8049979:	83 3d 48 e8 3f 08 01 	cmpl   $0x1,0x83fe848
 8049980:	0f 84 2a e9 ff ff    	je     80482b0 <strlen@plt>
 8049986:	a3 40 57 05 08       	mov    %eax,0x8055740
 804998b:	c7 05 70 e8 5f 08 5c 	movl   $0xcc00005c,0x85fe870
 8049992:	00 00 cc 
 8049995:	a1 20 e8 3f 08       	mov    0x83fe820,%eax
 804999a:	8b 10                	mov    (%eax),%edx
 804999c:	89 15 00 e8 1f 08    	mov    %edx,0x81fe800
 80499a2:	b8 20 e8 3f 08       	mov    $0x83fe820,%eax
 80499a7:	8b 15 48 e8 3f 08    	mov    0x83fe848,%edx
 80499ad:	c7 05 70 e8 5f 08 5d 	movl   $0xcc00005d,0x85fe870
 80499b4:	00 00 cc 
 80499b7:	a3 64 e8 3f 08       	mov    %eax,0x83fe864
 80499bc:	8b 04 95 60 e8 3f 08 	mov    0x83fe860(,%edx,4),%eax
 80499c3:	8b 15 20 e8 3f 08    	mov    0x83fe820,%edx
 80499c9:	8b 92 a0 ff df ff    	mov    -0x200060(%edx),%edx
 80499cf:	89 10                	mov    %edx,(%eax)
 80499d1:	8b 15 00 e8 1f 08    	mov    0x81fe800,%edx
 80499d7:	89 d0                	mov    %edx,%eax
 80499d9:	a1 20 e8 3f 08       	mov    0x83fe820,%eax
 80499de:	8b 80 a0 ff df ff    	mov    -0x200060(%eax),%eax
 80499e4:	a3 00 e8 1f 08       	mov    %eax,0x81fe800
 80499e9:	b8 20 e8 3f 08       	mov    $0x83fe820,%eax
 80499ee:	8b 15 48 e8 3f 08    	mov    0x83fe848,%edx
 80499f4:	c7 05 70 e8 5f 08 5e 	movl   $0xcc00005e,0x85fe870
 80499fb:	00 00 cc 
 80499fe:	a3 64 e8 3f 08       	mov    %eax,0x83fe864
 8049a03:	8b 04 95 60 e8 3f 08 	mov    0x83fe860(,%edx,4),%eax
 8049a0a:	8b 15 00 e8 1f 08    	mov    0x81fe800,%edx
 8049a10:	89 10                	mov    %edx,(%eax)
 8049a12:	c7 05 70 e8 5f 08 5f 	movl   $0xcc00005f,0x85fe870
 8049a19:	00 00 cc 
 8049a1c:	a1 40 57 05 08       	mov    0x8055740,%eax
 8049a21:	a3 4c 57 05 08       	mov    %eax,0x805574c
 8049a26:	c7 05 70 e8 5f 08 60 	movl   $0xcc000060,0x85fe870
 8049a2d:	00 00 cc 
 8049a30:	c7 05 70 e8 5f 08 61 	movl   $0xcc000061,0x85fe870
 8049a37:	00 00 cc 
 8049a3a:	a1 24 e8 3f 08       	mov    0x83fe824,%eax
 8049a3f:	ba 7f ff ff ff       	mov    $0xffffff7f,%edx
 8049a44:	c7 05 70 e8 5f 08 62 	movl   $0xcc000062,0x85fe870
 8049a4b:	00 00 cc 
 8049a4e:	a3 e0 e6 1f 08       	mov    %eax,0x81fe6e0
 8049a53:	89 15 e4 e6 1f 08    	mov    %edx,0x81fe6e4
 8049a59:	c7 05 70 e8 5f 08 63 	movl   $0xcc000063,0x85fe870
 8049a60:	00 00 cc 
 8049a63:	b8 00 00 00 00       	mov    $0x0,%eax
 8049a68:	b9 00 00 00 00       	mov    $0x0,%ecx
 8049a6d:	c7 05 f0 e6 1f 08 00 	movl   $0x0,0x81fe6f0
 8049a74:	00 00 00 
 8049a77:	c7 05 70 e8 5f 08 64 	movl   $0xcc000064,0x85fe870
 8049a7e:	00 00 cc 
 8049a81:	66 a1 e0 e6 1f 08    	mov    0x81fe6e0,%ax
 8049a87:	66 8b 0d e4 e6 1f 08 	mov    0x81fe6e4,%cx
 8049a8e:	8b 14 85 20 96 06 08 	mov    0x8069620(,%eax,4),%edx
 8049a95:	8b 14 8a             	mov    (%edx,%ecx,4),%edx
 8049a98:	66 8b 0d f2 e6 1f 08 	mov    0x81fe6f2,%cx
 8049a9f:	8b 14 95 20 96 06 08 	mov    0x8069620(,%edx,4),%edx
 8049aa6:	8b 14 8a             	mov    (%edx,%ecx,4),%edx
 8049aa9:	66 89 15 e8 e6 1f 08 	mov    %dx,0x81fe6e8
 8049ab0:	89 15 f0 e6 1f 08    	mov    %edx,0x81fe6f0
 8049ab6:	c7 05 70 e8 5f 08 65 	movl   $0xcc000065,0x85fe870
 8049abd:	00 00 cc 
 8049ac0:	66 a1 e2 e6 1f 08    	mov    0x81fe6e2,%ax
 8049ac6:	66 8b 0d e6 e6 1f 08 	mov    0x81fe6e6,%cx
 8049acd:	8b 14 85 20 96 06 08 	mov    0x8069620(,%eax,4),%edx
 8049ad4:	8b 14 8a             	mov    (%edx,%ecx,4),%edx
 8049ad7:	66 8b 0d f2 e6 1f 08 	mov    0x81fe6f2,%cx
 8049ade:	8b 14 95 20 96 06 08 	mov    0x8069620(,%edx,4),%edx
 8049ae5:	8b 14 8a             	mov    (%edx,%ecx,4),%edx
 8049ae8:	66 89 15 ea e6 1f 08 	mov    %dx,0x81fe6ea
 8049aef:	89 15 f0 e6 1f 08    	mov    %edx,0x81fe6f0
 8049af5:	a1 e8 e6 1f 08       	mov    0x81fe6e8,%eax
 8049afa:	a3 48 57 05 08       	mov    %eax,0x8055748
 8049aff:	c7 05 70 e8 5f 08 66 	movl   $0xcc000066,0x85fe870
 8049b06:	00 00 cc 
 8049b09:	a1 4c 57 05 08       	mov    0x805574c,%eax
 8049b0e:	8b 15 48 57 05 08    	mov    0x8055748,%edx
 8049b14:	c7 05 70 e8 5f 08 67 	movl   $0xcc000067,0x85fe870
 8049b1b:	00 00 cc 
 8049b1e:	a3 e0 e6 1f 08       	mov    %eax,0x81fe6e0
 8049b23:	89 15 e4 e6 1f 08    	mov    %edx,0x81fe6e4
 8049b29:	c7 05 70 e8 5f 08 68 	movl   $0xcc000068,0x85fe870
 8049b30:	00 00 cc 
 8049b33:	b8 00 00 00 00       	mov    $0x0,%eax
 8049b38:	b9 00 00 00 00       	mov    $0x0,%ecx
 8049b3d:	c7 05 f0 e6 1f 08 00 	movl   $0x0,0x81fe6f0
 8049b44:	00 00 00 
 8049b47:	c7 05 70 e8 5f 08 69 	movl   $0xcc000069,0x85fe870
 8049b4e:	00 00 cc 
 8049b51:	66 a1 e0 e6 1f 08    	mov    0x81fe6e0,%ax
 8049b57:	66 8b 0d e4 e6 1f 08 	mov    0x81fe6e4,%cx
 8049b5e:	8b 14 85 20 96 06 08 	mov    0x8069620(,%eax,4),%edx
 8049b65:	8b 14 8a             	mov    (%edx,%ecx,4),%edx
 8049b68:	66 8b 0d f2 e6 1f 08 	mov    0x81fe6f2,%cx
 8049b6f:	8b 14 95 20 96 06 08 	mov    0x8069620(,%edx,4),%edx
 8049b76:	8b 14 8a             	mov    (%edx,%ecx,4),%edx
 8049b79:	66 89 15 e8 e6 1f 08 	mov    %dx,0x81fe6e8
 8049b80:	89 15 f0 e6 1f 08    	mov    %edx,0x81fe6f0
 8049b86:	c7 05 70 e8 5f 08 6a 	movl   $0xcc00006a,0x85fe870
 8049b8d:	00 00 cc 
 8049b90:	66 a1 e2 e6 1f 08    	mov    0x81fe6e2,%ax
 8049b96:	66 8b 0d e6 e6 1f 08 	mov    0x81fe6e6,%cx
 8049b9d:	8b 14 85 20 96 06 08 	mov    0x8069620(,%eax,4),%edx
 8049ba4:	8b 14 8a             	mov    (%edx,%ecx,4),%edx
 8049ba7:	66 8b 0d f2 e6 1f 08 	mov    0x81fe6f2,%cx
 8049bae:	8b 14 95 20 96 06 08 	mov    0x8069620(,%edx,4),%edx
 8049bb5:	8b 14 8a             	mov    (%edx,%ecx,4),%edx
 8049bb8:	66 89 15 ea e6 1f 08 	mov    %dx,0x81fe6ea
 8049bbf:	89 15 f0 e6 1f 08    	mov    %edx,0x81fe6f0
 8049bc5:	a1 e8 e6 1f 08       	mov    0x81fe6e8,%eax
 8049bca:	a3 4c 57 05 08       	mov    %eax,0x805574c
 8049bcf:	c7 05 40 57 05 08 00 	movl   $0x0,0x8055740
 8049bd6:	00 00 00 
 8049bd9:	c7 05 70 e8 5f 08 6b 	movl   $0xcc00006b,0x85fe870
 8049be0:	00 00 cc 
 8049be3:	a1 4c 57 05 08       	mov    0x805574c,%eax
 8049be8:	8b 15 48 e8 3f 08    	mov    0x83fe848,%edx
 8049bee:	c7 05 70 e8 5f 08 6c 	movl   $0xcc00006c,0x85fe870
 8049bf5:	00 00 cc 
 8049bf8:	a3 64 e8 3f 08       	mov    %eax,0x83fe864
 8049bfd:	8b 04 95 60 e8 3f 08 	mov    0x83fe860(,%edx,4),%eax
 8049c04:	8a 15 40 57 05 08    	mov    0x8055740,%dl
 8049c0a:	88 10                	mov    %dl,(%eax)
 8049c0c:	c7 05 4c 57 05 08 09 	movl   $0x9,0x805574c
 8049c13:	00 00 00 
 8049c16:	c7 05 70 e8 5f 08 6d 	movl   $0xcc00006d,0x85fe870
 8049c1d:	00 00 cc 
 8049c20:	c7 05 48 57 05 08 39 	movl   $0x39,0x8055748
 8049c27:	00 00 00 
 8049c2a:	c7 05 70 e8 5f 08 6e 	movl   $0xcc00006e,0x85fe870
 8049c31:	00 00 cc 
 8049c34:	a1 24 e8 3f 08       	mov    0x83fe824,%eax
 8049c39:	8b 80 98 ff df ff    	mov    -0x200068(%eax),%eax
 8049c3f:	8b 80 98 ff df ff    	mov    -0x200068(%eax),%eax
 8049c45:	8b 80 98 ff df ff    	mov    -0x200068(%eax),%eax
 8049c4b:	8b 80 98 ff df ff    	mov    -0x200068(%eax),%eax
 8049c51:	8b 80 98 ff df ff    	mov    -0x200068(%eax),%eax
 8049c57:	8b 80 98 ff df ff    	mov    -0x200068(%eax),%eax
 8049c5d:	8b 80 98 ff df ff    	mov    -0x200068(%eax),%eax
 8049c63:	8b 80 98 ff df ff    	mov    -0x200068(%eax),%eax
 8049c69:	8b 80 98 ff df ff    	mov    -0x200068(%eax),%eax
 8049c6f:	8b 80 98 ff df ff    	mov    -0x200068(%eax),%eax
 8049c75:	8b 80 98 ff df ff    	mov    -0x200068(%eax),%eax
 8049c7b:	8b 80 98 ff df ff    	mov    -0x200068(%eax),%eax
 8049c81:	8b 80 98 ff df ff    	mov    -0x200068(%eax),%eax
 8049c87:	8b 80 98 ff df ff    	mov    -0x200068(%eax),%eax
 8049c8d:	8b 80 98 ff df ff    	mov    -0x200068(%eax),%eax
 8049c93:	8b 80 98 ff df ff    	mov    -0x200068(%eax),%eax
 8049c99:	8b 80 98 ff df ff    	mov    -0x200068(%eax),%eax
 8049c9f:	8b 80 98 ff df ff    	mov    -0x200068(%eax),%eax
 8049ca5:	8b 80 98 ff df ff    	mov    -0x200068(%eax),%eax
 8049cab:	8b 80 98 ff df ff    	mov    -0x200068(%eax),%eax
 8049cb1:	8b 80 98 ff df ff    	mov    -0x200068(%eax),%eax
 8049cb7:	8b 80 98 ff df ff    	mov    -0x200068(%eax),%eax
 8049cbd:	8b 80 98 ff df ff    	mov    -0x200068(%eax),%eax
 8049cc3:	8b 80 98 ff df ff    	mov    -0x200068(%eax),%eax
 8049cc9:	8b 80 98 ff df ff    	mov    -0x200068(%eax),%eax
 8049ccf:	8b 80 98 ff df ff    	mov    -0x200068(%eax),%eax
 8049cd5:	8b 80 98 ff df ff    	mov    -0x200068(%eax),%eax
 8049cdb:	8b 80 98 ff df ff    	mov    -0x200068(%eax),%eax
 8049ce1:	8b 80 98 ff df ff    	mov    -0x200068(%eax),%eax
 8049ce7:	8b 80 98 ff df ff    	mov    -0x200068(%eax),%eax
 8049ced:	8b 80 98 ff df ff    	mov    -0x200068(%eax),%eax
 8049cf3:	8b 80 98 ff df ff    	mov    -0x200068(%eax),%eax
 8049cf9:	8b 80 98 ff df ff    	mov    -0x200068(%eax),%eax
 8049cff:	8b 80 98 ff df ff    	mov    -0x200068(%eax),%eax
 8049d05:	8b 80 98 ff df ff    	mov    -0x200068(%eax),%eax
 8049d0b:	8b 80 98 ff df ff    	mov    -0x200068(%eax),%eax
 8049d11:	8b 80 98 ff df ff    	mov    -0x200068(%eax),%eax
 8049d17:	8b 80 98 ff df ff    	mov    -0x200068(%eax),%eax
 8049d1d:	8b 80 98 ff df ff    	mov    -0x200068(%eax),%eax
 8049d23:	8b 80 98 ff df ff    	mov    -0x200068(%eax),%eax
 8049d29:	8b 15 48 e8 3f 08    	mov    0x83fe848,%edx
 8049d2f:	c7 05 70 e8 5f 08 6f 	movl   $0xcc00006f,0x85fe870
 8049d36:	00 00 cc 
 8049d39:	a3 64 e8 3f 08       	mov    %eax,0x83fe864
 8049d3e:	8b 04 95 60 e8 3f 08 	mov    0x83fe860(,%edx,4),%eax
 8049d45:	8b 15 48 57 05 08    	mov    0x8055748,%edx
 8049d4b:	89 10                	mov    %edx,(%eax)
 8049d4d:	c7 05 70 e8 5f 08 70 	movl   $0xcc000070,0x85fe870
 8049d54:	00 00 cc 
 8049d57:	c7 05 44 57 05 08 02 	movl   $0x2,0x8055744
 8049d5e:	00 00 00 
 8049d61:	c7 05 70 e8 5f 08 71 	movl   $0xcc000071,0x85fe870
 8049d68:	00 00 cc 
 8049d6b:	a1 24 e8 3f 08       	mov    0x83fe824,%eax
 8049d70:	8b 80 98 ff df ff    	mov    -0x200068(%eax),%eax
 8049d76:	8b 80 98 ff df ff    	mov    -0x200068(%eax),%eax
 8049d7c:	8b 80 98 ff df ff    	mov    -0x200068(%eax),%eax
 8049d82:	8b 80 98 ff df ff    	mov    -0x200068(%eax),%eax
 8049d88:	8b 80 98 ff df ff    	mov    -0x200068(%eax),%eax
 8049d8e:	8b 80 98 ff df ff    	mov    -0x200068(%eax),%eax
 8049d94:	8b 80 98 ff df ff    	mov    -0x200068(%eax),%eax
 8049d9a:	8b 80 98 ff df ff    	mov    -0x200068(%eax),%eax
 8049da0:	8b 80 98 ff df ff    	mov    -0x200068(%eax),%eax
 8049da6:	8b 80 98 ff df ff    	mov    -0x200068(%eax),%eax
 8049dac:	8b 80 98 ff df ff    	mov    -0x200068(%eax),%eax
 8049db2:	8b 80 98 ff df ff    	mov    -0x200068(%eax),%eax
 8049db8:	8b 80 98 ff df ff    	mov    -0x200068(%eax),%eax
 8049dbe:	8b 80 98 ff df ff    	mov    -0x200068(%eax),%eax
 8049dc4:	8b 80 98 ff df ff    	mov    -0x200068(%eax),%eax
 8049dca:	8b 80 98 ff df ff    	mov    -0x200068(%eax),%eax
 8049dd0:	8b 80 98 ff df ff    	mov    -0x200068(%eax),%eax
 8049dd6:	8b 80 98 ff df ff    	mov    -0x200068(%eax),%eax
 8049ddc:	8b 80 98 ff df ff    	mov    -0x200068(%eax),%eax
 8049de2:	8b 80 98 ff df ff    	mov    -0x200068(%eax),%eax
 8049de8:	8b 80 98 ff df ff    	mov    -0x200068(%eax),%eax
 8049dee:	8b 80 98 ff df ff    	mov    -0x200068(%eax),%eax
 8049df4:	8b 80 98 ff df ff    	mov    -0x200068(%eax),%eax
 8049dfa:	8b 80 98 ff df ff    	mov    -0x200068(%eax),%eax
 8049e00:	8b 80 98 ff df ff    	mov    -0x200068(%eax),%eax
 8049e06:	8b 80 98 ff df ff    	mov    -0x200068(%eax),%eax
 8049e0c:	8b 80 98 ff df ff    	mov    -0x200068(%eax),%eax
 8049e12:	8b 80 98 ff df ff    	mov    -0x200068(%eax),%eax
 8049e18:	8b 80 98 ff df ff    	mov    -0x200068(%eax),%eax
 8049e1e:	8b 80 98 ff df ff    	mov    -0x200068(%eax),%eax
 8049e24:	8b 80 98 ff df ff    	mov    -0x200068(%eax),%eax
 8049e2a:	8b 80 98 ff df ff    	mov    -0x200068(%eax),%eax
 8049e30:	8b 80 98 ff df ff    	mov    -0x200068(%eax),%eax
 8049e36:	8b 80 98 ff df ff    	mov    -0x200068(%eax),%eax
 8049e3c:	8b 80 98 ff df ff    	mov    -0x200068(%eax),%eax
 8049e42:	8b 80 98 ff df ff    	mov    -0x200068(%eax),%eax
 8049e48:	8b 80 98 ff df ff    	mov    -0x200068(%eax),%eax
 8049e4e:	8b 80 98 ff df ff    	mov    -0x200068(%eax),%eax
 8049e54:	8b 80 98 ff df ff    	mov    -0x200068(%eax),%eax
 8049e5a:	8b 80 98 ff df ff    	mov    -0x200068(%eax),%eax
 8049e60:	8b 80 98 ff df ff    	mov    -0x200068(%eax),%eax
 8049e66:	8b 80 98 ff df ff    	mov    -0x200068(%eax),%eax
 8049e6c:	8b 15 48 e8 3f 08    	mov    0x83fe848,%edx
 8049e72:	c7 05 70 e8 5f 08 72 	movl   $0xcc000072,0x85fe870
 8049e79:	00 00 cc 
 8049e7c:	a3 64 e8 3f 08       	mov    %eax,0x83fe864
 8049e81:	8b 04 95 60 e8 3f 08 	mov    0x83fe860(,%edx,4),%eax
 8049e88:	8b 15 44 57 05 08    	mov    0x8055744,%edx
 8049e8e:	89 10                	mov    %edx,(%eax)
 8049e90:	c7 05 70 e8 5f 08 73 	movl   $0xcc000073,0x85fe870
 8049e97:	00 00 cc 
 8049e9a:	c7 05 40 57 05 08 07 	movl   $0x7,0x8055740
 8049ea1:	00 00 00 
 8049ea4:	c7 05 70 e8 5f 08 74 	movl   $0xcc000074,0x85fe870
 8049eab:	00 00 cc 
 8049eae:	a1 24 e8 3f 08       	mov    0x83fe824,%eax
 8049eb3:	8b 80 98 ff df ff    	mov    -0x200068(%eax),%eax
 8049eb9:	8b 80 98 ff df ff    	mov    -0x200068(%eax),%eax
 8049ebf:	8b 80 98 ff df ff    	mov    -0x200068(%eax),%eax
 8049ec5:	8b 80 98 ff df ff    	mov    -0x200068(%eax),%eax
 8049ecb:	8b 80 98 ff df ff    	mov    -0x200068(%eax),%eax
 8049ed1:	8b 80 98 ff df ff    	mov    -0x200068(%eax),%eax
 8049ed7:	8b 80 98 ff df ff    	mov    -0x200068(%eax),%eax
 8049edd:	8b 80 98 ff df ff    	mov    -0x200068(%eax),%eax
 8049ee3:	8b 80 98 ff df ff    	mov    -0x200068(%eax),%eax
 8049ee9:	8b 80 98 ff df ff    	mov    -0x200068(%eax),%eax
 8049eef:	8b 80 98 ff df ff    	mov    -0x200068(%eax),%eax
 8049ef5:	8b 80 98 ff df ff    	mov    -0x200068(%eax),%eax
 8049efb:	8b 80 98 ff df ff    	mov    -0x200068(%eax),%eax
 8049f01:	8b 80 98 ff df ff    	mov    -0x200068(%eax),%eax
 8049f07:	8b 80 98 ff df ff    	mov    -0x200068(%eax),%eax
 8049f0d:	8b 80 98 ff df ff    	mov    -0x200068(%eax),%eax
 8049f13:	8b 80 98 ff df ff    	mov    -0x200068(%eax),%eax
 8049f19:	8b 80 98 ff df ff    	mov    -0x200068(%eax),%eax
 8049f1f:	8b 80 98 ff df ff    	mov    -0x200068(%eax),%eax
 8049f25:	8b 80 98 ff df ff    	mov    -0x200068(%eax),%eax
 8049f2b:	8b 80 98 ff df ff    	mov    -0x200068(%eax),%eax
 8049f31:	8b 80 98 ff df ff    	mov    -0x200068(%eax),%eax
 8049f37:	8b 80 98 ff df ff    	mov    -0x200068(%eax),%eax
 8049f3d:	8b 80 98 ff df ff    	mov    -0x200068(%eax),%eax
 8049f43:	8b 80 98 ff df ff    	mov    -0x200068(%eax),%eax
 8049f49:	8b 80 98 ff df ff    	mov    -0x200068(%eax),%eax
 8049f4f:	8b 80 98 ff df ff    	mov    -0x200068(%eax),%eax
 8049f55:	8b 80 98 ff df ff    	mov    -0x200068(%eax),%eax
 8049f5b:	8b 80 98 ff df ff    	mov    -0x200068(%eax),%eax
 8049f61:	8b 80 98 ff df ff    	mov    -0x200068(%eax),%eax
 8049f67:	8b 80 98 ff df ff    	mov    -0x200068(%eax),%eax
 8049f6d:	8b 80 98 ff df ff    	mov    -0x200068(%eax),%eax
 8049f73:	8b 80 98 ff df ff    	mov    -0x200068(%eax),%eax
 8049f79:	8b 15 48 e8 3f 08    	mov    0x83fe848,%edx
 8049f7f:	c7 05 70 e8 5f 08 75 	movl   $0xcc000075,0x85fe870
 8049f86:	00 00 cc 
 8049f89:	a3 64 e8 3f 08       	mov    %eax,0x83fe864
 8049f8e:	8b 04 95 60 e8 3f 08 	mov    0x83fe860(,%edx,4),%eax
 8049f95:	8b 15 40 57 05 08    	mov    0x8055740,%edx
 8049f9b:	89 10                	mov    %edx,(%eax)
 8049f9d:	c7 05 70 e8 5f 08 76 	movl   $0xcc000076,0x85fe870
 8049fa4:	00 00 cc 
 8049fa7:	c7 05 40 57 05 08 6d 	movl   $0x6d,0x8055740
 8049fae:	00 00 00 
 8049fb1:	c7 05 70 e8 5f 08 77 	movl   $0xcc000077,0x85fe870
 8049fb8:	00 00 cc 
 8049fbb:	a1 24 e8 3f 08       	mov    0x83fe824,%eax
 8049fc0:	8b 80 98 ff df ff    	mov    -0x200068(%eax),%eax
 8049fc6:	8b 80 98 ff df ff    	mov    -0x200068(%eax),%eax
 8049fcc:	8b 80 98 ff df ff    	mov    -0x200068(%eax),%eax
 8049fd2:	8b 80 98 ff df ff    	mov    -0x200068(%eax),%eax
 8049fd8:	8b 80 98 ff df ff    	mov    -0x200068(%eax),%eax
 8049fde:	8b 80 98 ff df ff    	mov    -0x200068(%eax),%eax
 8049fe4:	8b 80 98 ff df ff    	mov    -0x200068(%eax),%eax
 8049fea:	8b 80 98 ff df ff    	mov    -0x200068(%eax),%eax
 8049ff0:	8b 80 98 ff df ff    	mov    -0x200068(%eax),%eax
 8049ff6:	8b 80 98 ff df ff    	mov    -0x200068(%eax),%eax
 8049ffc:	8b 80 98 ff df ff    	mov    -0x200068(%eax),%eax
 804a002:	8b 80 98 ff df ff    	mov    -0x200068(%eax),%eax
 804a008:	8b 80 98 ff df ff    	mov    -0x200068(%eax),%eax
 804a00e:	8b 80 98 ff df ff    	mov    -0x200068(%eax),%eax
 804a014:	8b 80 98 ff df ff    	mov    -0x200068(%eax),%eax
 804a01a:	8b 80 98 ff df ff    	mov    -0x200068(%eax),%eax
 804a020:	8b 80 98 ff df ff    	mov    -0x200068(%eax),%eax
 804a026:	8b 80 98 ff df ff    	mov    -0x200068(%eax),%eax
 804a02c:	8b 80 98 ff df ff    	mov    -0x200068(%eax),%eax
 804a032:	8b 80 98 ff df ff    	mov    -0x200068(%eax),%eax
 804a038:	8b 80 98 ff df ff    	mov    -0x200068(%eax),%eax
 804a03e:	8b 80 98 ff df ff    	mov    -0x200068(%eax),%eax
 804a044:	8b 80 98 ff df ff    	mov    -0x200068(%eax),%eax
 804a04a:	8b 80 98 ff df ff    	mov    -0x200068(%eax),%eax
 804a050:	8b 80 98 ff df ff    	mov    -0x200068(%eax),%eax
 804a056:	8b 80 98 ff df ff    	mov    -0x200068(%eax),%eax
 804a05c:	8b 80 98 ff df ff    	mov    -0x200068(%eax),%eax
 804a062:	8b 80 98 ff df ff    	mov    -0x200068(%eax),%eax
 804a068:	8b 80 98 ff df ff    	mov    -0x200068(%eax),%eax
 804a06e:	8b 80 98 ff df ff    	mov    -0x200068(%eax),%eax
 804a074:	8b 80 98 ff df ff    	mov    -0x200068(%eax),%eax
 804a07a:	8b 80 98 ff df ff    	mov    -0x200068(%eax),%eax
 804a080:	8b 80 98 ff df ff    	mov    -0x200068(%eax),%eax
 804a086:	8b 80 98 ff df ff    	mov    -0x200068(%eax),%eax
 804a08c:	8b 15 48 e8 3f 08    	mov    0x83fe848,%edx
 804a092:	c7 05 70 e8 5f 08 78 	movl   $0xcc000078,0x85fe870
 804a099:	00 00 cc 
 804a09c:	a3 64 e8 3f 08       	mov    %eax,0x83fe864
 804a0a1:	8b 04 95 60 e8 3f 08 	mov    0x83fe860(,%edx,4),%eax
 804a0a8:	8b 15 40 57 05 08    	mov    0x8055740,%edx
 804a0ae:	89 10                	mov    %edx,(%eax)
 804a0b0:	c7 05 70 e8 5f 08 79 	movl   $0xcc000079,0x85fe870
 804a0b7:	00 00 cc 
 804a0ba:	c7 05 40 57 05 08 75 	movl   $0x75,0x8055740
 804a0c1:	00 00 00 
 804a0c4:	c7 05 70 e8 5f 08 7a 	movl   $0xcc00007a,0x85fe870
 804a0cb:	00 00 cc 
 804a0ce:	a1 24 e8 3f 08       	mov    0x83fe824,%eax
 804a0d3:	8b 80 98 ff df ff    	mov    -0x200068(%eax),%eax
 804a0d9:	8b 80 98 ff df ff    	mov    -0x200068(%eax),%eax
 804a0df:	8b 80 98 ff df ff    	mov    -0x200068(%eax),%eax
 804a0e5:	8b 80 98 ff df ff    	mov    -0x200068(%eax),%eax
 804a0eb:	8b 80 98 ff df ff    	mov    -0x200068(%eax),%eax
 804a0f1:	8b 80 98 ff df ff    	mov    -0x200068(%eax),%eax
 804a0f7:	8b 80 98 ff df ff    	mov    -0x200068(%eax),%eax
 804a0fd:	8b 80 98 ff df ff    	mov    -0x200068(%eax),%eax
 804a103:	8b 80 98 ff df ff    	mov    -0x200068(%eax),%eax
 804a109:	8b 80 98 ff df ff    	mov    -0x200068(%eax),%eax
 804a10f:	8b 80 98 ff df ff    	mov    -0x200068(%eax),%eax
 804a115:	8b 80 98 ff df ff    	mov    -0x200068(%eax),%eax
 804a11b:	8b 80 98 ff df ff    	mov    -0x200068(%eax),%eax
 804a121:	8b 80 98 ff df ff    	mov    -0x200068(%eax),%eax
 804a127:	8b 80 98 ff df ff    	mov    -0x200068(%eax),%eax
 804a12d:	8b 80 98 ff df ff    	mov    -0x200068(%eax),%eax
 804a133:	8b 80 98 ff df ff    	mov    -0x200068(%eax),%eax
 804a139:	8b 80 98 ff df ff    	mov    -0x200068(%eax),%eax
 804a13f:	8b 80 98 ff df ff    	mov    -0x200068(%eax),%eax
 804a145:	8b 80 98 ff df ff    	mov    -0x200068(%eax),%eax
 804a14b:	8b 80 98 ff df ff    	mov    -0x200068(%eax),%eax
 804a151:	8b 80 98 ff df ff    	mov    -0x200068(%eax),%eax
 804a157:	8b 80 98 ff df ff    	mov    -0x200068(%eax),%eax
 804a15d:	8b 80 98 ff df ff    	mov    -0x200068(%eax),%eax
 804a163:	8b 80 98 ff df ff    	mov    -0x200068(%eax),%eax
 804a169:	8b 80 98 ff df ff    	mov    -0x200068(%eax),%eax
 804a16f:	8b 80 98 ff df ff    	mov    -0x200068(%eax),%eax
 804a175:	8b 80 98 ff df ff    	mov    -0x200068(%eax),%eax
 804a17b:	8b 80 98 ff df ff    	mov    -0x200068(%eax),%eax
 804a181:	8b 80 98 ff df ff    	mov    -0x200068(%eax),%eax
 804a187:	8b 80 98 ff df ff    	mov    -0x200068(%eax),%eax
 804a18d:	8b 80 98 ff df ff    	mov    -0x200068(%eax),%eax
 804a193:	8b 80 98 ff df ff    	mov    -0x200068(%eax),%eax
 804a199:	8b 80 98 ff df ff    	mov    -0x200068(%eax),%eax
 804a19f:	8b 80 98 ff df ff    	mov    -0x200068(%eax),%eax
 804a1a5:	8b 15 48 e8 3f 08    	mov    0x83fe848,%edx
 804a1ab:	c7 05 70 e8 5f 08 7b 	movl   $0xcc00007b,0x85fe870
 804a1b2:	00 00 cc 
 804a1b5:	a3 64 e8 3f 08       	mov    %eax,0x83fe864
 804a1ba:	8b 04 95 60 e8 3f 08 	mov    0x83fe860(,%edx,4),%eax
 804a1c1:	8b 15 40 57 05 08    	mov    0x8055740,%edx
 804a1c7:	89 10                	mov    %edx,(%eax)
 804a1c9:	c7 05 70 e8 5f 08 7c 	movl   $0xcc00007c,0x85fe870
 804a1d0:	00 00 cc 
 804a1d3:	c7 05 40 57 05 08 5a 	movl   $0x5a,0x8055740
 804a1da:	00 00 00 
 804a1dd:	c7 05 70 e8 5f 08 7d 	movl   $0xcc00007d,0x85fe870
 804a1e4:	00 00 cc 
 804a1e7:	a1 24 e8 3f 08       	mov    0x83fe824,%eax
 804a1ec:	8b 80 98 ff df ff    	mov    -0x200068(%eax),%eax
 804a1f2:	8b 80 98 ff df ff    	mov    -0x200068(%eax),%eax
 804a1f8:	8b 80 98 ff df ff    	mov    -0x200068(%eax),%eax
 804a1fe:	8b 80 98 ff df ff    	mov    -0x200068(%eax),%eax
 804a204:	8b 80 98 ff df ff    	mov    -0x200068(%eax),%eax
 804a20a:	8b 80 98 ff df ff    	mov    -0x200068(%eax),%eax
 804a210:	8b 80 98 ff df ff    	mov    -0x200068(%eax),%eax
 804a216:	8b 80 98 ff df ff    	mov    -0x200068(%eax),%eax
 804a21c:	8b 80 98 ff df ff    	mov    -0x200068(%eax),%eax
 804a222:	8b 80 98 ff df ff    	mov    -0x200068(%eax),%eax
 804a228:	8b 80 98 ff df ff    	mov    -0x200068(%eax),%eax
 804a22e:	8b 80 98 ff df ff    	mov    -0x200068(%eax),%eax
 804a234:	8b 80 98 ff df ff    	mov    -0x200068(%eax),%eax
 804a23a:	8b 80 98 ff df ff    	mov    -0x200068(%eax),%eax
 804a240:	8b 80 98 ff df ff    	mov    -0x200068(%eax),%eax
 804a246:	8b 80 98 ff df ff    	mov    -0x200068(%eax),%eax
 804a24c:	8b 80 98 ff df ff    	mov    -0x200068(%eax),%eax
 804a252:	8b 80 98 ff df ff    	mov    -0x200068(%eax),%eax
 804a258:	8b 80 98 ff df ff    	mov    -0x200068(%eax),%eax
 804a25e:	8b 80 98 ff df ff    	mov    -0x200068(%eax),%eax
 804a264:	8b 80 98 ff df ff    	mov    -0x200068(%eax),%eax
 804a26a:	8b 80 98 ff df ff    	mov    -0x200068(%eax),%eax
 804a270:	8b 80 98 ff df ff    	mov    -0x200068(%eax),%eax
 804a276:	8b 80 98 ff df ff    	mov    -0x200068(%eax),%eax
 804a27c:	8b 80 98 ff df ff    	mov    -0x200068(%eax),%eax
 804a282:	8b 80 98 ff df ff    	mov    -0x200068(%eax),%eax
 804a288:	8b 80 98 ff df ff    	mov    -0x200068(%eax),%eax
 804a28e:	8b 80 98 ff df ff    	mov    -0x200068(%eax),%eax
 804a294:	8b 80 98 ff df ff    	mov    -0x200068(%eax),%eax
 804a29a:	8b 80 98 ff df ff    	mov    -0x200068(%eax),%eax
 804a2a0:	8b 80 98 ff df ff    	mov    -0x200068(%eax),%eax
 804a2a6:	8b 80 98 ff df ff    	mov    -0x200068(%eax),%eax
 804a2ac:	8b 80 98 ff df ff    	mov    -0x200068(%eax),%eax
 804a2b2:	8b 80 98 ff df ff    	mov    -0x200068(%eax),%eax
 804a2b8:	8b 80 98 ff df ff    	mov    -0x200068(%eax),%eax
 804a2be:	8b 80 98 ff df ff    	mov    -0x200068(%eax),%eax
 804a2c4:	8b 15 48 e8 3f 08    	mov    0x83fe848,%edx
 804a2ca:	c7 05 70 e8 5f 08 7e 	movl   $0xcc00007e,0x85fe870
 804a2d1:	00 00 cc 
 804a2d4:	a3 64 e8 3f 08       	mov    %eax,0x83fe864
 804a2d9:	8b 04 95 60 e8 3f 08 	mov    0x83fe860(,%edx,4),%eax
 804a2e0:	8b 15 40 57 05 08    	mov    0x8055740,%edx
 804a2e6:	89 10                	mov    %edx,(%eax)
 804a2e8:	c7 05 70 e8 5f 08 7f 	movl   $0xcc00007f,0x85fe870
 804a2ef:	00 00 cc 
 804a2f2:	c7 05 40 57 05 08 06 	movl   $0x6,0x8055740
 804a2f9:	00 00 00 
 804a2fc:	c7 05 70 e8 5f 08 80 	movl   $0xcc000080,0x85fe870
 804a303:	00 00 cc 
 804a306:	a1 24 e8 3f 08       	mov    0x83fe824,%eax
 804a30b:	8b 80 98 ff df ff    	mov    -0x200068(%eax),%eax
 804a311:	8b 80 98 ff df ff    	mov    -0x200068(%eax),%eax
 804a317:	8b 80 98 ff df ff    	mov    -0x200068(%eax),%eax
 804a31d:	8b 80 98 ff df ff    	mov    -0x200068(%eax),%eax
 804a323:	8b 80 98 ff df ff    	mov    -0x200068(%eax),%eax
 804a329:	8b 80 98 ff df ff    	mov    -0x200068(%eax),%eax
 804a32f:	8b 80 98 ff df ff    	mov    -0x200068(%eax),%eax
 804a335:	8b 80 98 ff df ff    	mov    -0x200068(%eax),%eax
 804a33b:	8b 80 98 ff df ff    	mov    -0x200068(%eax),%eax
 804a341:	8b 80 98 ff df ff    	mov    -0x200068(%eax),%eax
 804a347:	8b 80 98 ff df ff    	mov    -0x200068(%eax),%eax
 804a34d:	8b 80 98 ff df ff    	mov    -0x200068(%eax),%eax
 804a353:	8b 80 98 ff df ff    	mov    -0x200068(%eax),%eax
 804a359:	8b 80 98 ff df ff    	mov    -0x200068(%eax),%eax
 804a35f:	8b 80 98 ff df ff    	mov    -0x200068(%eax),%eax
 804a365:	8b 80 98 ff df ff    	mov    -0x200068(%eax),%eax
 804a36b:	8b 80 98 ff df ff    	mov    -0x200068(%eax),%eax
 804a371:	8b 80 98 ff df ff    	mov    -0x200068(%eax),%eax
 804a377:	8b 80 98 ff df ff    	mov    -0x200068(%eax),%eax
 804a37d:	8b 80 98 ff df ff    	mov    -0x200068(%eax),%eax
 804a383:	8b 80 98 ff df ff    	mov    -0x200068(%eax),%eax
 804a389:	8b 80 98 ff df ff    	mov    -0x200068(%eax),%eax
 804a38f:	8b 80 98 ff df ff    	mov    -0x200068(%eax),%eax
 804a395:	8b 80 98 ff df ff    	mov    -0x200068(%eax),%eax
 804a39b:	8b 80 98 ff df ff    	mov    -0x200068(%eax),%eax
 804a3a1:	8b 80 98 ff df ff    	mov    -0x200068(%eax),%eax
 804a3a7:	8b 80 98 ff df ff    	mov    -0x200068(%eax),%eax
 804a3ad:	8b 80 98 ff df ff    	mov    -0x200068(%eax),%eax
 804a3b3:	8b 80 98 ff df ff    	mov    -0x200068(%eax),%eax
 804a3b9:	8b 80 98 ff df ff    	mov    -0x200068(%eax),%eax
 804a3bf:	8b 80 98 ff df ff    	mov    -0x200068(%eax),%eax
 804a3c5:	8b 80 98 ff df ff    	mov    -0x200068(%eax),%eax
 804a3cb:	8b 80 98 ff df ff    	mov    -0x200068(%eax),%eax
 804a3d1:	8b 80 98 ff df ff    	mov    -0x200068(%eax),%eax
 804a3d7:	8b 80 98 ff df ff    	mov    -0x200068(%eax),%eax
 804a3dd:	8b 80 98 ff df ff    	mov    -0x200068(%eax),%eax
 804a3e3:	8b 80 98 ff df ff    	mov    -0x200068(%eax),%eax
 804a3e9:	8b 15 48 e8 3f 08    	mov    0x83fe848,%edx
 804a3ef:	c7 05 70 e8 5f 08 81 	movl   $0xcc000081,0x85fe870
 804a3f6:	00 00 cc 
 804a3f9:	a3 64 e8 3f 08       	mov    %eax,0x83fe864
 804a3fe:	8b 04 95 60 e8 3f 08 	mov    0x83fe860(,%edx,4),%eax
 804a405:	8b 15 40 57 05 08    	mov    0x8055740,%edx
 804a40b:	89 10                	mov    %edx,(%eax)
 804a40d:	c7 05 70 e8 5f 08 82 	movl   $0xcc000082,0x85fe870
 804a414:	00 00 cc 
 804a417:	c7 05 40 57 05 08 01 	movl   $0x1,0x8055740
 804a41e:	00 00 00 
 804a421:	c7 05 70 e8 5f 08 83 	movl   $0xcc000083,0x85fe870
 804a428:	00 00 cc 
 804a42b:	a1 24 e8 3f 08       	mov    0x83fe824,%eax
 804a430:	8b 80 98 ff df ff    	mov    -0x200068(%eax),%eax
 804a436:	8b 80 98 ff df ff    	mov    -0x200068(%eax),%eax
 804a43c:	8b 80 98 ff df ff    	mov    -0x200068(%eax),%eax
 804a442:	8b 80 98 ff df ff    	mov    -0x200068(%eax),%eax
 804a448:	8b 80 98 ff df ff    	mov    -0x200068(%eax),%eax
 804a44e:	8b 80 98 ff df ff    	mov    -0x200068(%eax),%eax
 804a454:	8b 80 98 ff df ff    	mov    -0x200068(%eax),%eax
 804a45a:	8b 80 98 ff df ff    	mov    -0x200068(%eax),%eax
 804a460:	8b 80 98 ff df ff    	mov    -0x200068(%eax),%eax
 804a466:	8b 80 98 ff df ff    	mov    -0x200068(%eax),%eax
 804a46c:	8b 80 98 ff df ff    	mov    -0x200068(%eax),%eax
 804a472:	8b 80 98 ff df ff    	mov    -0x200068(%eax),%eax
 804a478:	8b 80 98 ff df ff    	mov    -0x200068(%eax),%eax
 804a47e:	8b 80 98 ff df ff    	mov    -0x200068(%eax),%eax
 804a484:	8b 80 98 ff df ff    	mov    -0x200068(%eax),%eax
 804a48a:	8b 80 98 ff df ff    	mov    -0x200068(%eax),%eax
 804a490:	8b 80 98 ff df ff    	mov    -0x200068(%eax),%eax
 804a496:	8b 80 98 ff df ff    	mov    -0x200068(%eax),%eax
 804a49c:	8b 80 98 ff df ff    	mov    -0x200068(%eax),%eax
 804a4a2:	8b 80 98 ff df ff    	mov    -0x200068(%eax),%eax
 804a4a8:	8b 80 98 ff df ff    	mov    -0x200068(%eax),%eax
 804a4ae:	8b 80 98 ff df ff    	mov    -0x200068(%eax),%eax
 804a4b4:	8b 80 98 ff df ff    	mov    -0x200068(%eax),%eax
 804a4ba:	8b 80 98 ff df ff    	mov    -0x200068(%eax),%eax
 804a4c0:	8b 80 98 ff df ff    	mov    -0x200068(%eax),%eax
 804a4c6:	8b 80 98 ff df ff    	mov    -0x200068(%eax),%eax
 804a4cc:	8b 80 98 ff df ff    	mov    -0x200068(%eax),%eax
 804a4d2:	8b 80 98 ff df ff    	mov    -0x200068(%eax),%eax
 804a4d8:	8b 80 98 ff df ff    	mov    -0x200068(%eax),%eax
 804a4de:	8b 80 98 ff df ff    	mov    -0x200068(%eax),%eax
 804a4e4:	8b 80 98 ff df ff    	mov    -0x200068(%eax),%eax
 804a4ea:	8b 80 98 ff df ff    	mov    -0x200068(%eax),%eax
 804a4f0:	8b 80 98 ff df ff    	mov    -0x200068(%eax),%eax
 804a4f6:	8b 80 98 ff df ff    	mov    -0x200068(%eax),%eax
 804a4fc:	8b 80 98 ff df ff    	mov    -0x200068(%eax),%eax
 804a502:	8b 80 98 ff df ff    	mov    -0x200068(%eax),%eax
 804a508:	8b 80 98 ff df ff    	mov    -0x200068(%eax),%eax
 804a50e:	8b 80 98 ff df ff    	mov    -0x200068(%eax),%eax
 804a514:	8b 15 48 e8 3f 08    	mov    0x83fe848,%edx
 804a51a:	c7 05 70 e8 5f 08 84 	movl   $0xcc000084,0x85fe870
 804a521:	00 00 cc 
 804a524:	a3 64 e8 3f 08       	mov    %eax,0x83fe864
 804a529:	8b 04 95 60 e8 3f 08 	mov    0x83fe860(,%edx,4),%eax
 804a530:	8b 15 40 57 05 08    	mov    0x8055740,%edx
 804a536:	89 10                	mov    %edx,(%eax)
 804a538:	c7 05 70 e8 5f 08 85 	movl   $0xcc000085,0x85fe870
 804a53f:	00 00 cc 
 804a542:	c7 05 40 57 05 08 30 	movl   $0x30,0x8055740
 804a549:	00 00 00 
 804a54c:	c7 05 70 e8 5f 08 86 	movl   $0xcc000086,0x85fe870
 804a553:	00 00 cc 
 804a556:	a1 24 e8 3f 08       	mov    0x83fe824,%eax
 804a55b:	8b 80 98 ff df ff    	mov    -0x200068(%eax),%eax
 804a561:	8b 80 98 ff df ff    	mov    -0x200068(%eax),%eax
 804a567:	8b 80 98 ff df ff    	mov    -0x200068(%eax),%eax
 804a56d:	8b 80 98 ff df ff    	mov    -0x200068(%eax),%eax
 804a573:	8b 80 98 ff df ff    	mov    -0x200068(%eax),%eax
 804a579:	8b 80 98 ff df ff    	mov    -0x200068(%eax),%eax
 804a57f:	8b 80 98 ff df ff    	mov    -0x200068(%eax),%eax
 804a585:	8b 80 98 ff df ff    	mov    -0x200068(%eax),%eax
 804a58b:	8b 80 98 ff df ff    	mov    -0x200068(%eax),%eax
 804a591:	8b 80 98 ff df ff    	mov    -0x200068(%eax),%eax
 804a597:	8b 80 98 ff df ff    	mov    -0x200068(%eax),%eax
 804a59d:	8b 80 98 ff df ff    	mov    -0x200068(%eax),%eax
 804a5a3:	8b 80 98 ff df ff    	mov    -0x200068(%eax),%eax
 804a5a9:	8b 80 98 ff df ff    	mov    -0x200068(%eax),%eax
 804a5af:	8b 80 98 ff df ff    	mov    -0x200068(%eax),%eax
 804a5b5:	8b 80 98 ff df ff    	mov    -0x200068(%eax),%eax
 804a5bb:	8b 80 98 ff df ff    	mov    -0x200068(%eax),%eax
 804a5c1:	8b 80 98 ff df ff    	mov    -0x200068(%eax),%eax
 804a5c7:	8b 80 98 ff df ff    	mov    -0x200068(%eax),%eax
 804a5cd:	8b 80 98 ff df ff    	mov    -0x200068(%eax),%eax
 804a5d3:	8b 80 98 ff df ff    	mov    -0x200068(%eax),%eax
 804a5d9:	8b 80 98 ff df ff    	mov    -0x200068(%eax),%eax
 804a5df:	8b 80 98 ff df ff    	mov    -0x200068(%eax),%eax
 804a5e5:	8b 80 98 ff df ff    	mov    -0x200068(%eax),%eax
 804a5eb:	8b 80 98 ff df ff    	mov    -0x200068(%eax),%eax
 804a5f1:	8b 80 98 ff df ff    	mov    -0x200068(%eax),%eax
 804a5f7:	8b 80 98 ff df ff    	mov    -0x200068(%eax),%eax
 804a5fd:	8b 80 98 ff df ff    	mov    -0x200068(%eax),%eax
 804a603:	8b 80 98 ff df ff    	mov    -0x200068(%eax),%eax
 804a609:	8b 80 98 ff df ff    	mov    -0x200068(%eax),%eax
 804a60f:	8b 80 98 ff df ff    	mov    -0x200068(%eax),%eax
 804a615:	8b 80 98 ff df ff    	mov    -0x200068(%eax),%eax
 804a61b:	8b 80 98 ff df ff    	mov    -0x200068(%eax),%eax
 804a621:	8b 80 98 ff df ff    	mov    -0x200068(%eax),%eax
 804a627:	8b 80 98 ff df ff    	mov    -0x200068(%eax),%eax
 804a62d:	8b 80 98 ff df ff    	mov    -0x200068(%eax),%eax
 804a633:	8b 80 98 ff df ff    	mov    -0x200068(%eax),%eax
 804a639:	8b 80 98 ff df ff    	mov    -0x200068(%eax),%eax
 804a63f:	8b 80 98 ff df ff    	mov    -0x200068(%eax),%eax
 804a645:	8b 15 48 e8 3f 08    	mov    0x83fe848,%edx
 804a64b:	c7 05 70 e8 5f 08 87 	movl   $0xcc000087,0x85fe870
 804a652:	00 00 cc 
 804a655:	a3 64 e8 3f 08       	mov    %eax,0x83fe864
 804a65a:	8b 04 95 60 e8 3f 08 	mov    0x83fe860(,%edx,4),%eax
 804a661:	8b 15 40 57 05 08    	mov    0x8055740,%edx
 804a667:	89 10                	mov    %edx,(%eax)
 804a669:	c7 05 70 e8 5f 08 88 	movl   $0xcc000088,0x85fe870
 804a670:	00 00 cc 
 804a673:	c7 05 70 e8 5f 08 89 	movl   $0xcc000089,0x85fe870
 804a67a:	00 00 cc 
 804a67d:	a1 24 e8 3f 08       	mov    0x83fe824,%eax
 804a682:	8b 80 98 ff df ff    	mov    -0x200068(%eax),%eax
 804a688:	8b 80 98 ff df ff    	mov    -0x200068(%eax),%eax
 804a68e:	8b 80 98 ff df ff    	mov    -0x200068(%eax),%eax
 804a694:	8b 80 98 ff df ff    	mov    -0x200068(%eax),%eax
 804a69a:	8b 80 98 ff df ff    	mov    -0x200068(%eax),%eax
 804a6a0:	8b 80 98 ff df ff    	mov    -0x200068(%eax),%eax
 804a6a6:	8b 80 98 ff df ff    	mov    -0x200068(%eax),%eax
 804a6ac:	8b 80 98 ff df ff    	mov    -0x200068(%eax),%eax
 804a6b2:	8b 80 98 ff df ff    	mov    -0x200068(%eax),%eax
 804a6b8:	8b 80 98 ff df ff    	mov    -0x200068(%eax),%eax
 804a6be:	8b 80 98 ff df ff    	mov    -0x200068(%eax),%eax
 804a6c4:	8b 80 98 ff df ff    	mov    -0x200068(%eax),%eax
 804a6ca:	8b 80 98 ff df ff    	mov    -0x200068(%eax),%eax
 804a6d0:	8b 80 98 ff df ff    	mov    -0x200068(%eax),%eax
 804a6d6:	8b 80 98 ff df ff    	mov    -0x200068(%eax),%eax
 804a6dc:	8b 80 98 ff df ff    	mov    -0x200068(%eax),%eax
 804a6e2:	8b 80 98 ff df ff    	mov    -0x200068(%eax),%eax
 804a6e8:	8b 80 98 ff df ff    	mov    -0x200068(%eax),%eax
 804a6ee:	8b 80 98 ff df ff    	mov    -0x200068(%eax),%eax
 804a6f4:	8b 80 98 ff df ff    	mov    -0x200068(%eax),%eax
 804a6fa:	8b 80 98 ff df ff    	mov    -0x200068(%eax),%eax
 804a700:	8b 80 98 ff df ff    	mov    -0x200068(%eax),%eax
 804a706:	8b 80 98 ff df ff    	mov    -0x200068(%eax),%eax
 804a70c:	8b 80 98 ff df ff    	mov    -0x200068(%eax),%eax
 804a712:	8b 80 98 ff df ff    	mov    -0x200068(%eax),%eax
 804a718:	8b 80 98 ff df ff    	mov    -0x200068(%eax),%eax
 804a71e:	8b 80 98 ff df ff    	mov    -0x200068(%eax),%eax
 804a724:	8b 80 98 ff df ff    	mov    -0x200068(%eax),%eax
 804a72a:	8b 80 98 ff df ff    	mov    -0x200068(%eax),%eax
 804a730:	8b 80 98 ff df ff    	mov    -0x200068(%eax),%eax
 804a736:	8b 80 98 ff df ff    	mov    -0x200068(%eax),%eax
 804a73c:	8b 80 98 ff df ff    	mov    -0x200068(%eax),%eax
 804a742:	a3 40 57 05 08       	mov    %eax,0x8055740
 804a747:	c7 05 70 e8 5f 08 8a 	movl   $0xcc00008a,0x85fe870
 804a74e:	00 00 cc 
 804a751:	a1 40 57 05 08       	mov    0x8055740,%eax
 804a756:	8b 15 48 e8 3f 08    	mov    0x83fe848,%edx
 804a75c:	c7 05 70 e8 5f 08 8b 	movl   $0xcc00008b,0x85fe870
 804a763:	00 00 cc 
 804a766:	a3 64 e8 3f 08       	mov    %eax,0x83fe864
 804a76b:	8b 04 95 60 e8 3f 08 	mov    0x83fe860(,%edx,4),%eax
 804a772:	ba 00 00 00 00       	mov    $0x0,%edx
 804a777:	8a 10                	mov    (%eax),%dl
 804a779:	89 15 40 57 05 08    	mov    %edx,0x8055740
 804a77f:	c7 05 70 e8 5f 08 8c 	movl   $0xcc00008c,0x85fe870
 804a786:	00 00 cc 
 804a789:	ba 00 00 00 00       	mov    $0x0,%edx
 804a78e:	8a 15 40 57 05 08    	mov    0x8055740,%dl
 804a794:	8b 14 95 60 e2 1f 08 	mov    0x81fe260(,%edx,4),%edx
 804a79b:	89 15 40 57 05 08    	mov    %edx,0x8055740
 804a7a1:	c7 05 70 e8 5f 08 8d 	movl   $0xcc00008d,0x85fe870
 804a7a8:	00 00 cc 
 804a7ab:	a1 40 57 05 08       	mov    0x8055740,%eax
 804a7b0:	8b 15 4c 57 05 08    	mov    0x805574c,%edx
 804a7b6:	c7 05 70 e8 5f 08 8e 	movl   $0xcc00008e,0x85fe870
 804a7bd:	00 00 cc 
 804a7c0:	a3 e0 e6 1f 08       	mov    %eax,0x81fe6e0
 804a7c5:	89 15 e4 e6 1f 08    	mov    %edx,0x81fe6e4
 804a7cb:	c7 05 70 e8 5f 08 8f 	movl   $0xcc00008f,0x85fe870
 804a7d2:	00 00 cc 
 804a7d5:	b8 00 00 00 00       	mov    $0x0,%eax
 804a7da:	b9 00 00 00 00       	mov    $0x0,%ecx
 804a7df:	c7 05 f0 e6 1f 08 00 	movl   $0x0,0x81fe6f0
 804a7e6:	00 00 00 
 804a7e9:	c7 05 70 e8 5f 08 90 	movl   $0xcc000090,0x85fe870
 804a7f0:	00 00 cc 
 804a7f3:	66 a1 e0 e6 1f 08    	mov    0x81fe6e0,%ax
 804a7f9:	66 8b 0d e4 e6 1f 08 	mov    0x81fe6e4,%cx
 804a800:	8b 14 85 20 96 06 08 	mov    0x8069620(,%eax,4),%edx
 804a807:	8b 14 8a             	mov    (%edx,%ecx,4),%edx
 804a80a:	66 8b 0d f2 e6 1f 08 	mov    0x81fe6f2,%cx
 804a811:	8b 14 95 20 96 06 08 	mov    0x8069620(,%edx,4),%edx
 804a818:	8b 14 8a             	mov    (%edx,%ecx,4),%edx
 804a81b:	66 89 15 e8 e6 1f 08 	mov    %dx,0x81fe6e8
 804a822:	89 15 f0 e6 1f 08    	mov    %edx,0x81fe6f0
 804a828:	c7 05 70 e8 5f 08 91 	movl   $0xcc000091,0x85fe870
 804a82f:	00 00 cc 
 804a832:	66 a1 e2 e6 1f 08    	mov    0x81fe6e2,%ax
 804a838:	66 8b 0d e6 e6 1f 08 	mov    0x81fe6e6,%cx
 804a83f:	8b 14 85 20 96 06 08 	mov    0x8069620(,%eax,4),%edx
 804a846:	8b 14 8a             	mov    (%edx,%ecx,4),%edx
 804a849:	66 8b 0d f2 e6 1f 08 	mov    0x81fe6f2,%cx
 804a850:	8b 14 95 20 96 06 08 	mov    0x8069620(,%edx,4),%edx
 804a857:	8b 14 8a             	mov    (%edx,%ecx,4),%edx
 804a85a:	66 89 15 ea e6 1f 08 	mov    %dx,0x81fe6ea
 804a861:	89 15 f0 e6 1f 08    	mov    %edx,0x81fe6f0
 804a867:	a1 e8 e6 1f 08       	mov    0x81fe6e8,%eax
 804a86c:	a3 40 57 05 08       	mov    %eax,0x8055740
 804a871:	c7 05 70 e8 5f 08 92 	movl   $0xcc000092,0x85fe870
 804a878:	00 00 cc 
 804a87b:	a1 40 57 05 08       	mov    0x8055740,%eax
 804a880:	8b 15 48 57 05 08    	mov    0x8055748,%edx
 804a886:	c7 05 70 e8 5f 08 93 	movl   $0xcc000093,0x85fe870
 804a88d:	00 00 cc 
 804a890:	a3 e0 e6 1f 08       	mov    %eax,0x81fe6e0
 804a895:	89 15 e4 e6 1f 08    	mov    %edx,0x81fe6e4
 804a89b:	c7 05 70 e8 5f 08 94 	movl   $0xcc000094,0x85fe870
 804a8a2:	00 00 cc 
 804a8a5:	c7 05 70 e8 5f 08 95 	movl   $0xcc000095,0x85fe870
 804a8ac:	00 00 cc 
 804a8af:	b8 00 00 00 00       	mov    $0x0,%eax
 804a8b4:	ba 00 00 00 00       	mov    $0x0,%edx
 804a8b9:	a0 e0 e6 1f 08       	mov    0x81fe6e0,%al
 804a8be:	8a 15 e4 e6 1f 08    	mov    0x81fe6e4,%dl
 804a8c4:	8b 04 85 70 a1 1a 08 	mov    0x81aa170(,%eax,4),%eax
 804a8cb:	8a 04 10             	mov    (%eax,%edx,1),%al
 804a8ce:	a2 e8 e6 1f 08       	mov    %al,0x81fe6e8
 804a8d3:	c7 05 70 e8 5f 08 96 	movl   $0xcc000096,0x85fe870
 804a8da:	00 00 cc 
 804a8dd:	b8 00 00 00 00       	mov    $0x0,%eax
 804a8e2:	ba 00 00 00 00       	mov    $0x0,%edx
 804a8e7:	a0 e1 e6 1f 08       	mov    0x81fe6e1,%al
 804a8ec:	8a 15 e5 e6 1f 08    	mov    0x81fe6e5,%dl
 804a8f2:	8b 04 85 70 a1 1a 08 	mov    0x81aa170(,%eax,4),%eax
 804a8f9:	8a 04 10             	mov    (%eax,%edx,1),%al
 804a8fc:	a2 e9 e6 1f 08       	mov    %al,0x81fe6e9
 804a901:	c7 05 70 e8 5f 08 97 	movl   $0xcc000097,0x85fe870
 804a908:	00 00 cc 
 804a90b:	b8 00 00 00 00       	mov    $0x0,%eax
 804a910:	ba 00 00 00 00       	mov    $0x0,%edx
 804a915:	a0 e2 e6 1f 08       	mov    0x81fe6e2,%al
 804a91a:	8a 15 e6 e6 1f 08    	mov    0x81fe6e6,%dl
 804a920:	8b 04 85 70 a1 1a 08 	mov    0x81aa170(,%eax,4),%eax
 804a927:	8a 04 10             	mov    (%eax,%edx,1),%al
 804a92a:	a2 ea e6 1f 08       	mov    %al,0x81fe6ea
 804a92f:	c7 05 70 e8 5f 08 98 	movl   $0xcc000098,0x85fe870
 804a936:	00 00 cc 
 804a939:	b8 00 00 00 00       	mov    $0x0,%eax
 804a93e:	ba 00 00 00 00       	mov    $0x0,%edx
 804a943:	a0 e3 e6 1f 08       	mov    0x81fe6e3,%al
 804a948:	8a 15 e7 e6 1f 08    	mov    0x81fe6e7,%dl
 804a94e:	8b 04 85 70 a1 1a 08 	mov    0x81aa170(,%eax,4),%eax
 804a955:	8a 04 10             	mov    (%eax,%edx,1),%al
 804a958:	a2 eb e6 1f 08       	mov    %al,0x81fe6eb
 804a95d:	a1 e8 e6 1f 08       	mov    0x81fe6e8,%eax
 804a962:	a3 40 57 05 08       	mov    %eax,0x8055740
 804a967:	c7 05 70 e8 5f 08 99 	movl   $0xcc000099,0x85fe870
 804a96e:	00 00 cc 
 804a971:	a1 24 e8 3f 08       	mov    0x83fe824,%eax
 804a976:	8b 80 98 ff df ff    	mov    -0x200068(%eax),%eax
 804a97c:	8b 80 98 ff df ff    	mov    -0x200068(%eax),%eax
 804a982:	8b 80 98 ff df ff    	mov    -0x200068(%eax),%eax
 804a988:	8b 80 98 ff df ff    	mov    -0x200068(%eax),%eax
 804a98e:	8b 80 98 ff df ff    	mov    -0x200068(%eax),%eax
 804a994:	8b 80 98 ff df ff    	mov    -0x200068(%eax),%eax
 804a99a:	8b 80 98 ff df ff    	mov    -0x200068(%eax),%eax
 804a9a0:	8b 80 98 ff df ff    	mov    -0x200068(%eax),%eax
 804a9a6:	8b 80 98 ff df ff    	mov    -0x200068(%eax),%eax
 804a9ac:	8b 80 98 ff df ff    	mov    -0x200068(%eax),%eax
 804a9b2:	8b 80 98 ff df ff    	mov    -0x200068(%eax),%eax
 804a9b8:	8b 80 98 ff df ff    	mov    -0x200068(%eax),%eax
 804a9be:	8b 80 98 ff df ff    	mov    -0x200068(%eax),%eax
 804a9c4:	8b 80 98 ff df ff    	mov    -0x200068(%eax),%eax
 804a9ca:	8b 80 98 ff df ff    	mov    -0x200068(%eax),%eax
 804a9d0:	8b 80 98 ff df ff    	mov    -0x200068(%eax),%eax
 804a9d6:	8b 80 98 ff df ff    	mov    -0x200068(%eax),%eax
 804a9dc:	8b 80 98 ff df ff    	mov    -0x200068(%eax),%eax
 804a9e2:	8b 80 98 ff df ff    	mov    -0x200068(%eax),%eax
 804a9e8:	8b 80 98 ff df ff    	mov    -0x200068(%eax),%eax
 804a9ee:	8b 80 98 ff df ff    	mov    -0x200068(%eax),%eax
 804a9f4:	8b 80 98 ff df ff    	mov    -0x200068(%eax),%eax
 804a9fa:	8b 80 98 ff df ff    	mov    -0x200068(%eax),%eax
 804aa00:	8b 80 98 ff df ff    	mov    -0x200068(%eax),%eax
 804aa06:	8b 80 98 ff df ff    	mov    -0x200068(%eax),%eax
 804aa0c:	8b 80 98 ff df ff    	mov    -0x200068(%eax),%eax
 804aa12:	8b 80 98 ff df ff    	mov    -0x200068(%eax),%eax
 804aa18:	8b 80 98 ff df ff    	mov    -0x200068(%eax),%eax
 804aa1e:	8b 80 98 ff df ff    	mov    -0x200068(%eax),%eax
 804aa24:	8b 80 98 ff df ff    	mov    -0x200068(%eax),%eax
 804aa2a:	8b 80 98 ff df ff    	mov    -0x200068(%eax),%eax
 804aa30:	8b 80 98 ff df ff    	mov    -0x200068(%eax),%eax
 804aa36:	8b 80 98 ff df ff    	mov    -0x200068(%eax),%eax
 804aa3c:	8b 80 98 ff df ff    	mov    -0x200068(%eax),%eax
 804aa42:	8b 80 98 ff df ff    	mov    -0x200068(%eax),%eax
 804aa48:	8b 80 98 ff df ff    	mov    -0x200068(%eax),%eax
 804aa4e:	8b 80 98 ff df ff    	mov    -0x200068(%eax),%eax
 804aa54:	8b 80 98 ff df ff    	mov    -0x200068(%eax),%eax
 804aa5a:	8b 80 98 ff df ff    	mov    -0x200068(%eax),%eax
 804aa60:	8b 80 98 ff df ff    	mov    -0x200068(%eax),%eax
 804aa66:	8b 80 98 ff df ff    	mov    -0x200068(%eax),%eax
 804aa6c:	8b 15 48 e8 3f 08    	mov    0x83fe848,%edx
 804aa72:	c7 05 70 e8 5f 08 9a 	movl   $0xcc00009a,0x85fe870
 804aa79:	00 00 cc 
 804aa7c:	a3 64 e8 3f 08       	mov    %eax,0x83fe864
 804aa81:	8b 04 95 60 e8 3f 08 	mov    0x83fe860(,%edx,4),%eax
 804aa88:	8b 15 40 57 05 08    	mov    0x8055740,%edx
 804aa8e:	89 10                	mov    %edx,(%eax)
 804aa90:	c7 05 70 e8 5f 08 9b 	movl   $0xcc00009b,0x85fe870
 804aa97:	00 00 cc 
 804aa9a:	a1 24 e8 3f 08       	mov    0x83fe824,%eax
 804aa9f:	ba 81 ff ff ff       	mov    $0xffffff81,%edx
 804aaa4:	c7 05 70 e8 5f 08 9c 	movl   $0xcc00009c,0x85fe870
 804aaab:	00 00 cc 
 804aaae:	a3 e0 e6 1f 08       	mov    %eax,0x81fe6e0
 804aab3:	89 15 e4 e6 1f 08    	mov    %edx,0x81fe6e4
 804aab9:	c7 05 70 e8 5f 08 9d 	movl   $0xcc00009d,0x85fe870
 804aac0:	00 00 cc 
 804aac3:	b8 00 00 00 00       	mov    $0x0,%eax
 804aac8:	b9 00 00 00 00       	mov    $0x0,%ecx
 804aacd:	c7 05 f0 e6 1f 08 00 	movl   $0x0,0x81fe6f0
 804aad4:	00 00 00 
 804aad7:	c7 05 70 e8 5f 08 9e 	movl   $0xcc00009e,0x85fe870
 804aade:	00 00 cc 
 804aae1:	66 a1 e0 e6 1f 08    	mov    0x81fe6e0,%ax
 804aae7:	66 8b 0d e4 e6 1f 08 	mov    0x81fe6e4,%cx
 804aaee:	8b 14 85 20 96 06 08 	mov    0x8069620(,%eax,4),%edx
 804aaf5:	8b 14 8a             	mov    (%edx,%ecx,4),%edx
 804aaf8:	66 8b 0d f2 e6 1f 08 	mov    0x81fe6f2,%cx
 804aaff:	8b 14 95 20 96 06 08 	mov    0x8069620(,%edx,4),%edx
 804ab06:	8b 14 8a             	mov    (%edx,%ecx,4),%edx
 804ab09:	66 89 15 e8 e6 1f 08 	mov    %dx,0x81fe6e8
 804ab10:	89 15 f0 e6 1f 08    	mov    %edx,0x81fe6f0
 804ab16:	c7 05 70 e8 5f 08 9f 	movl   $0xcc00009f,0x85fe870
 804ab1d:	00 00 cc 
 804ab20:	66 a1 e2 e6 1f 08    	mov    0x81fe6e2,%ax
 804ab26:	66 8b 0d e6 e6 1f 08 	mov    0x81fe6e6,%cx
 804ab2d:	8b 14 85 20 96 06 08 	mov    0x8069620(,%eax,4),%edx
 804ab34:	8b 14 8a             	mov    (%edx,%ecx,4),%edx
 804ab37:	66 8b 0d f2 e6 1f 08 	mov    0x81fe6f2,%cx
 804ab3e:	8b 14 95 20 96 06 08 	mov    0x8069620(,%edx,4),%edx
 804ab45:	8b 14 8a             	mov    (%edx,%ecx,4),%edx
 804ab48:	66 89 15 ea e6 1f 08 	mov    %dx,0x81fe6ea
 804ab4f:	89 15 f0 e6 1f 08    	mov    %edx,0x81fe6f0
 804ab55:	a1 e8 e6 1f 08       	mov    0x81fe6e8,%eax
 804ab5a:	a3 48 57 05 08       	mov    %eax,0x8055748
 804ab5f:	c7 05 70 e8 5f 08 a0 	movl   $0xcc0000a0,0x85fe870
 804ab66:	00 00 cc 
 804ab69:	a1 48 57 05 08       	mov    0x8055748,%eax
 804ab6e:	8b 15 48 e8 3f 08    	mov    0x83fe848,%edx
 804ab74:	c7 05 70 e8 5f 08 a1 	movl   $0xcc0000a1,0x85fe870
 804ab7b:	00 00 cc 
 804ab7e:	a3 64 e8 3f 08       	mov    %eax,0x83fe864
 804ab83:	8b 04 95 60 e8 3f 08 	mov    0x83fe860(,%edx,4),%eax
 804ab8a:	ba 00 00 00 00       	mov    $0x0,%edx
 804ab8f:	8a 10                	mov    (%eax),%dl
 804ab91:	89 15 40 57 05 08    	mov    %edx,0x8055740
 804ab97:	c7 05 70 e8 5f 08 a2 	movl   $0xcc0000a2,0x85fe870
 804ab9e:	00 00 cc 
 804aba1:	ba 00 00 00 00       	mov    $0x0,%edx
 804aba6:	8a 15 40 57 05 08    	mov    0x8055740,%dl
 804abac:	8b 14 95 60 e2 1f 08 	mov    0x81fe260(,%edx,4),%edx
 804abb3:	89 15 48 57 05 08    	mov    %edx,0x8055748
 804abb9:	c7 05 70 e8 5f 08 a3 	movl   $0xcc0000a3,0x85fe870
 804abc0:	00 00 cc 
 804abc3:	a1 48 57 05 08       	mov    0x8055748,%eax
 804abc8:	8b 15 44 57 05 08    	mov    0x8055744,%edx
 804abce:	c7 05 70 e8 5f 08 a4 	movl   $0xcc0000a4,0x85fe870
 804abd5:	00 00 cc 
 804abd8:	a3 e0 e6 1f 08       	mov    %eax,0x81fe6e0
 804abdd:	89 15 e4 e6 1f 08    	mov    %edx,0x81fe6e4
 804abe3:	c7 05 70 e8 5f 08 a5 	movl   $0xcc0000a5,0x85fe870
 804abea:	00 00 cc 
 804abed:	b8 00 00 00 00       	mov    $0x0,%eax
 804abf2:	b9 00 00 00 00       	mov    $0x0,%ecx
 804abf7:	c7 05 f0 e6 1f 08 01 	movl   $0x1,0x81fe6f0
 804abfe:	00 00 00 
 804ac01:	c7 05 70 e8 5f 08 a6 	movl   $0xcc0000a6,0x85fe870
 804ac08:	00 00 cc 
 804ac0b:	66 a1 e0 e6 1f 08    	mov    0x81fe6e0,%ax
 804ac11:	66 8b 0d e4 e6 1f 08 	mov    0x81fe6e4,%cx
 804ac18:	66 8b 0c 4d 40 97 16 	mov    0x8169740(,%ecx,2),%cx
 804ac1f:	08 
 804ac20:	8b 14 85 20 96 06 08 	mov    0x8069620(,%eax,4),%edx
 804ac27:	8b 14 8a             	mov    (%edx,%ecx,4),%edx
 804ac2a:	8b 14 95 20 96 06 08 	mov    0x8069620(,%edx,4),%edx
 804ac31:	8b 0d f0 e6 1f 08    	mov    0x81fe6f0,%ecx
 804ac37:	8b 14 8a             	mov    (%edx,%ecx,4),%edx
 804ac3a:	66 89 15 e8 e6 1f 08 	mov    %dx,0x81fe6e8
 804ac41:	89 15 ee e6 1f 08    	mov    %edx,0x81fe6ee
 804ac47:	c7 05 70 e8 5f 08 a7 	movl   $0xcc0000a7,0x85fe870
 804ac4e:	00 00 cc 
 804ac51:	66 a1 e2 e6 1f 08    	mov    0x81fe6e2,%ax
 804ac57:	66 8b 0d e6 e6 1f 08 	mov    0x81fe6e6,%cx
 804ac5e:	66 8b 0c 4d 40 97 16 	mov    0x8169740(,%ecx,2),%cx
 804ac65:	08 
 804ac66:	8b 14 85 20 96 06 08 	mov    0x8069620(,%eax,4),%edx
 804ac6d:	8b 14 8a             	mov    (%edx,%ecx,4),%edx
 804ac70:	8b 14 95 20 96 06 08 	mov    0x8069620(,%edx,4),%edx
 804ac77:	8b 0d f0 e6 1f 08    	mov    0x81fe6f0,%ecx
 804ac7d:	8b 14 8a             	mov    (%edx,%ecx,4),%edx
 804ac80:	66 89 15 ea e6 1f 08 	mov    %dx,0x81fe6ea
 804ac87:	89 15 ee e6 1f 08    	mov    %edx,0x81fe6ee
 804ac8d:	a1 e8 e6 1f 08       	mov    0x81fe6e8,%eax
 804ac92:	a3 48 57 05 08       	mov    %eax,0x8055748
 804ac97:	c7 05 40 57 05 08 61 	movl   $0x61,0x8055740
 804ac9e:	00 00 00 
 804aca1:	c7 05 70 e8 5f 08 a8 	movl   $0xcc0000a8,0x85fe870
 804aca8:	00 00 cc 
 804acab:	a1 48 57 05 08       	mov    0x8055748,%eax
 804acb0:	8b 15 40 57 05 08    	mov    0x8055740,%edx
 804acb6:	c7 05 70 e8 5f 08 a9 	movl   $0xcc0000a9,0x85fe870
 804acbd:	00 00 cc 
 804acc0:	a3 e0 e6 1f 08       	mov    %eax,0x81fe6e0
 804acc5:	89 15 e4 e6 1f 08    	mov    %edx,0x81fe6e4
 804accb:	c7 05 70 e8 5f 08 aa 	movl   $0xcc0000aa,0x85fe870
 804acd2:	00 00 cc 
 804acd5:	c7 05 70 e8 5f 08 ab 	movl   $0xcc0000ab,0x85fe870
 804acdc:	00 00 cc 
 804acdf:	b8 00 00 00 00       	mov    $0x0,%eax
 804ace4:	ba 00 00 00 00       	mov    $0x0,%edx
 804ace9:	a0 e0 e6 1f 08       	mov    0x81fe6e0,%al
 804acee:	8a 15 e4 e6 1f 08    	mov    0x81fe6e4,%dl
 804acf4:	8b 04 85 70 a1 1a 08 	mov    0x81aa170(,%eax,4),%eax
 804acfb:	8a 04 10             	mov    (%eax,%edx,1),%al
 804acfe:	a2 e8 e6 1f 08       	mov    %al,0x81fe6e8
 804ad03:	c7 05 70 e8 5f 08 ac 	movl   $0xcc0000ac,0x85fe870
 804ad0a:	00 00 cc 
 804ad0d:	b8 00 00 00 00       	mov    $0x0,%eax
 804ad12:	ba 00 00 00 00       	mov    $0x0,%edx
 804ad17:	a0 e1 e6 1f 08       	mov    0x81fe6e1,%al
 804ad1c:	8a 15 e5 e6 1f 08    	mov    0x81fe6e5,%dl
 804ad22:	8b 04 85 70 a1 1a 08 	mov    0x81aa170(,%eax,4),%eax
 804ad29:	8a 04 10             	mov    (%eax,%edx,1),%al
 804ad2c:	a2 e9 e6 1f 08       	mov    %al,0x81fe6e9
 804ad31:	c7 05 70 e8 5f 08 ad 	movl   $0xcc0000ad,0x85fe870
 804ad38:	00 00 cc 
 804ad3b:	b8 00 00 00 00       	mov    $0x0,%eax
 804ad40:	ba 00 00 00 00       	mov    $0x0,%edx
 804ad45:	a0 e2 e6 1f 08       	mov    0x81fe6e2,%al
 804ad4a:	8a 15 e6 e6 1f 08    	mov    0x81fe6e6,%dl
 804ad50:	8b 04 85 70 a1 1a 08 	mov    0x81aa170(,%eax,4),%eax
 804ad57:	8a 04 10             	mov    (%eax,%edx,1),%al
 804ad5a:	a2 ea e6 1f 08       	mov    %al,0x81fe6ea
 804ad5f:	c7 05 70 e8 5f 08 ae 	movl   $0xcc0000ae,0x85fe870
 804ad66:	00 00 cc 
 804ad69:	b8 00 00 00 00       	mov    $0x0,%eax
 804ad6e:	ba 00 00 00 00       	mov    $0x0,%edx
 804ad73:	a0 e3 e6 1f 08       	mov    0x81fe6e3,%al
 804ad78:	8a 15 e7 e6 1f 08    	mov    0x81fe6e7,%dl
 804ad7e:	8b 04 85 70 a1 1a 08 	mov    0x81aa170(,%eax,4),%eax
 804ad85:	8a 04 10             	mov    (%eax,%edx,1),%al
 804ad88:	a2 eb e6 1f 08       	mov    %al,0x81fe6eb
 804ad8d:	a1 e8 e6 1f 08       	mov    0x81fe6e8,%eax
 804ad92:	a3 48 57 05 08       	mov    %eax,0x8055748
 804ad97:	c7 05 70 e8 5f 08 af 	movl   $0xcc0000af,0x85fe870
 804ad9e:	00 00 cc 
 804ada1:	a1 24 e8 3f 08       	mov    0x83fe824,%eax
 804ada6:	8b 80 98 ff df ff    	mov    -0x200068(%eax),%eax
 804adac:	8b 80 98 ff df ff    	mov    -0x200068(%eax),%eax
 804adb2:	8b 80 98 ff df ff    	mov    -0x200068(%eax),%eax
 804adb8:	8b 80 98 ff df ff    	mov    -0x200068(%eax),%eax
 804adbe:	8b 80 98 ff df ff    	mov    -0x200068(%eax),%eax
 804adc4:	8b 80 98 ff df ff    	mov    -0x200068(%eax),%eax
 804adca:	8b 80 98 ff df ff    	mov    -0x200068(%eax),%eax
 804add0:	8b 80 98 ff df ff    	mov    -0x200068(%eax),%eax
 804add6:	8b 80 98 ff df ff    	mov    -0x200068(%eax),%eax
 804addc:	8b 80 98 ff df ff    	mov    -0x200068(%eax),%eax
 804ade2:	8b 80 98 ff df ff    	mov    -0x200068(%eax),%eax
 804ade8:	8b 80 98 ff df ff    	mov    -0x200068(%eax),%eax
 804adee:	8b 80 98 ff df ff    	mov    -0x200068(%eax),%eax
 804adf4:	8b 80 98 ff df ff    	mov    -0x200068(%eax),%eax
 804adfa:	8b 80 98 ff df ff    	mov    -0x200068(%eax),%eax
 804ae00:	8b 80 98 ff df ff    	mov    -0x200068(%eax),%eax
 804ae06:	8b 80 98 ff df ff    	mov    -0x200068(%eax),%eax
 804ae0c:	8b 80 98 ff df ff    	mov    -0x200068(%eax),%eax
 804ae12:	8b 80 98 ff df ff    	mov    -0x200068(%eax),%eax
 804ae18:	8b 80 98 ff df ff    	mov    -0x200068(%eax),%eax
 804ae1e:	8b 80 98 ff df ff    	mov    -0x200068(%eax),%eax
 804ae24:	8b 80 98 ff df ff    	mov    -0x200068(%eax),%eax
 804ae2a:	8b 80 98 ff df ff    	mov    -0x200068(%eax),%eax
 804ae30:	8b 80 98 ff df ff    	mov    -0x200068(%eax),%eax
 804ae36:	8b 80 98 ff df ff    	mov    -0x200068(%eax),%eax
 804ae3c:	8b 80 98 ff df ff    	mov    -0x200068(%eax),%eax
 804ae42:	8b 80 98 ff df ff    	mov    -0x200068(%eax),%eax
 804ae48:	8b 80 98 ff df ff    	mov    -0x200068(%eax),%eax
 804ae4e:	8b 80 98 ff df ff    	mov    -0x200068(%eax),%eax
 804ae54:	8b 80 98 ff df ff    	mov    -0x200068(%eax),%eax
 804ae5a:	8b 80 98 ff df ff    	mov    -0x200068(%eax),%eax
 804ae60:	8b 80 98 ff df ff    	mov    -0x200068(%eax),%eax
 804ae66:	8b 80 98 ff df ff    	mov    -0x200068(%eax),%eax
 804ae6c:	8b 80 98 ff df ff    	mov    -0x200068(%eax),%eax
 804ae72:	8b 80 98 ff df ff    	mov    -0x200068(%eax),%eax
 804ae78:	8b 80 98 ff df ff    	mov    -0x200068(%eax),%eax
 804ae7e:	8b 80 98 ff df ff    	mov    -0x200068(%eax),%eax
 804ae84:	8b 80 98 ff df ff    	mov    -0x200068(%eax),%eax
 804ae8a:	8b 80 98 ff df ff    	mov    -0x200068(%eax),%eax
 804ae90:	8b 80 98 ff df ff    	mov    -0x200068(%eax),%eax
 804ae96:	8b 80 98 ff df ff    	mov    -0x200068(%eax),%eax
 804ae9c:	a3 40 57 05 08       	mov    %eax,0x8055740
 804aea1:	c7 05 70 e8 5f 08 b0 	movl   $0xcc0000b0,0x85fe870
 804aea8:	00 00 cc 
 804aeab:	a1 40 57 05 08       	mov    0x8055740,%eax
 804aeb0:	8b 15 48 e8 3f 08    	mov    0x83fe848,%edx
 804aeb6:	c7 05 70 e8 5f 08 b1 	movl   $0xcc0000b1,0x85fe870
 804aebd:	00 00 cc 
 804aec0:	a3 64 e8 3f 08       	mov    %eax,0x83fe864
 804aec5:	8b 04 95 60 e8 3f 08 	mov    0x83fe860(,%edx,4),%eax
 804aecc:	8b 00                	mov    (%eax),%eax
 804aece:	a3 40 57 05 08       	mov    %eax,0x8055740
 804aed3:	c7 05 70 e8 5f 08 b2 	movl   $0xcc0000b2,0x85fe870
 804aeda:	00 00 cc 
 804aedd:	a1 40 57 05 08       	mov    0x8055740,%eax
 804aee2:	8b 15 48 57 05 08    	mov    0x8055748,%edx
 804aee8:	c7 05 70 e8 5f 08 b3 	movl   $0xcc0000b3,0x85fe870
 804aeef:	00 00 cc 
 804aef2:	a3 e0 e6 1f 08       	mov    %eax,0x81fe6e0
 804aef7:	89 15 e4 e6 1f 08    	mov    %edx,0x81fe6e4
 804aefd:	c7 05 70 e8 5f 08 b4 	movl   $0xcc0000b4,0x85fe870
 804af04:	00 00 cc 
 804af07:	c7 05 70 e8 5f 08 b5 	movl   $0xcc0000b5,0x85fe870
 804af0e:	00 00 cc 
 804af11:	b8 00 00 00 00       	mov    $0x0,%eax
 804af16:	ba 00 00 00 00       	mov    $0x0,%edx
 804af1b:	a0 e0 e6 1f 08       	mov    0x81fe6e0,%al
 804af20:	8a 15 e4 e6 1f 08    	mov    0x81fe6e4,%dl
 804af26:	8b 04 85 60 9c 19 08 	mov    0x8199c60(,%eax,4),%eax
 804af2d:	8a 04 10             	mov    (%eax,%edx,1),%al
 804af30:	a2 e8 e6 1f 08       	mov    %al,0x81fe6e8
 804af35:	c7 05 70 e8 5f 08 b6 	movl   $0xcc0000b6,0x85fe870
 804af3c:	00 00 cc 
 804af3f:	b8 00 00 00 00       	mov    $0x0,%eax
 804af44:	ba 00 00 00 00       	mov    $0x0,%edx
 804af49:	a0 e1 e6 1f 08       	mov    0x81fe6e1,%al
 804af4e:	8a 15 e5 e6 1f 08    	mov    0x81fe6e5,%dl
 804af54:	8b 04 85 60 9c 19 08 	mov    0x8199c60(,%eax,4),%eax
 804af5b:	8a 04 10             	mov    (%eax,%edx,1),%al
 804af5e:	a2 e9 e6 1f 08       	mov    %al,0x81fe6e9
 804af63:	c7 05 70 e8 5f 08 b7 	movl   $0xcc0000b7,0x85fe870
 804af6a:	00 00 cc 
 804af6d:	b8 00 00 00 00       	mov    $0x0,%eax
 804af72:	ba 00 00 00 00       	mov    $0x0,%edx
 804af77:	a0 e2 e6 1f 08       	mov    0x81fe6e2,%al
 804af7c:	8a 15 e6 e6 1f 08    	mov    0x81fe6e6,%dl
 804af82:	8b 04 85 60 9c 19 08 	mov    0x8199c60(,%eax,4),%eax
 804af89:	8a 04 10             	mov    (%eax,%edx,1),%al
 804af8c:	a2 ea e6 1f 08       	mov    %al,0x81fe6ea
 804af91:	c7 05 70 e8 5f 08 b8 	movl   $0xcc0000b8,0x85fe870
 804af98:	00 00 cc 
 804af9b:	b8 00 00 00 00       	mov    $0x0,%eax
 804afa0:	ba 00 00 00 00       	mov    $0x0,%edx
 804afa5:	a0 e3 e6 1f 08       	mov    0x81fe6e3,%al
 804afaa:	8a 15 e7 e6 1f 08    	mov    0x81fe6e7,%dl
 804afb0:	8b 04 85 60 9c 19 08 	mov    0x8199c60(,%eax,4),%eax
 804afb7:	8a 04 10             	mov    (%eax,%edx,1),%al
 804afba:	a2 eb e6 1f 08       	mov    %al,0x81fe6eb
 804afbf:	a1 e8 e6 1f 08       	mov    0x81fe6e8,%eax
 804afc4:	a3 48 57 05 08       	mov    %eax,0x8055748
 804afc9:	c7 05 70 e8 5f 08 b9 	movl   $0xcc0000b9,0x85fe870
 804afd0:	00 00 cc 
 804afd3:	a1 24 e8 3f 08       	mov    0x83fe824,%eax
 804afd8:	ba 82 ff ff ff       	mov    $0xffffff82,%edx
 804afdd:	c7 05 70 e8 5f 08 ba 	movl   $0xcc0000ba,0x85fe870
 804afe4:	00 00 cc 
 804afe7:	a3 e0 e6 1f 08       	mov    %eax,0x81fe6e0
 804afec:	89 15 e4 e6 1f 08    	mov    %edx,0x81fe6e4
 804aff2:	c7 05 70 e8 5f 08 bb 	movl   $0xcc0000bb,0x85fe870
 804aff9:	00 00 cc 
 804affc:	b8 00 00 00 00       	mov    $0x0,%eax
 804b001:	b9 00 00 00 00       	mov    $0x0,%ecx
 804b006:	c7 05 f0 e6 1f 08 00 	movl   $0x0,0x81fe6f0
 804b00d:	00 00 00 
 804b010:	c7 05 70 e8 5f 08 bc 	movl   $0xcc0000bc,0x85fe870
 804b017:	00 00 cc 
 804b01a:	66 a1 e0 e6 1f 08    	mov    0x81fe6e0,%ax
 804b020:	66 8b 0d e4 e6 1f 08 	mov    0x81fe6e4,%cx
 804b027:	8b 14 85 20 96 06 08 	mov    0x8069620(,%eax,4),%edx
 804b02e:	8b 14 8a             	mov    (%edx,%ecx,4),%edx
 804b031:	66 8b 0d f2 e6 1f 08 	mov    0x81fe6f2,%cx
 804b038:	8b 14 95 20 96 06 08 	mov    0x8069620(,%edx,4),%edx
 804b03f:	8b 14 8a             	mov    (%edx,%ecx,4),%edx
 804b042:	66 89 15 e8 e6 1f 08 	mov    %dx,0x81fe6e8
 804b049:	89 15 f0 e6 1f 08    	mov    %edx,0x81fe6f0
 804b04f:	c7 05 70 e8 5f 08 bd 	movl   $0xcc0000bd,0x85fe870
 804b056:	00 00 cc 
 804b059:	66 a1 e2 e6 1f 08    	mov    0x81fe6e2,%ax
 804b05f:	66 8b 0d e6 e6 1f 08 	mov    0x81fe6e6,%cx
 804b066:	8b 14 85 20 96 06 08 	mov    0x8069620(,%eax,4),%edx
 804b06d:	8b 14 8a             	mov    (%edx,%ecx,4),%edx
 804b070:	66 8b 0d f2 e6 1f 08 	mov    0x81fe6f2,%cx
 804b077:	8b 14 95 20 96 06 08 	mov    0x8069620(,%edx,4),%edx
 804b07e:	8b 14 8a             	mov    (%edx,%ecx,4),%edx
 804b081:	66 89 15 ea e6 1f 08 	mov    %dx,0x81fe6ea
 804b088:	89 15 f0 e6 1f 08    	mov    %edx,0x81fe6f0
 804b08e:	a1 e8 e6 1f 08       	mov    0x81fe6e8,%eax
 804b093:	a3 40 57 05 08       	mov    %eax,0x8055740
 804b098:	c7 05 70 e8 5f 08 be 	movl   $0xcc0000be,0x85fe870
 804b09f:	00 00 cc 
 804b0a2:	a1 40 57 05 08       	mov    0x8055740,%eax
 804b0a7:	8b 15 48 e8 3f 08    	mov    0x83fe848,%edx
 804b0ad:	c7 05 70 e8 5f 08 bf 	movl   $0xcc0000bf,0x85fe870
 804b0b4:	00 00 cc 
 804b0b7:	a3 64 e8 3f 08       	mov    %eax,0x83fe864
 804b0bc:	8b 04 95 60 e8 3f 08 	mov    0x83fe860(,%edx,4),%eax
 804b0c3:	ba 00 00 00 00       	mov    $0x0,%edx
 804b0c8:	8a 10                	mov    (%eax),%dl
 804b0ca:	89 15 40 57 05 08    	mov    %edx,0x8055740
 804b0d0:	c7 05 70 e8 5f 08 c0 	movl   $0xcc0000c0,0x85fe870
 804b0d7:	00 00 cc 
 804b0da:	ba 00 00 00 00       	mov    $0x0,%edx
 804b0df:	8a 15 40 57 05 08    	mov    0x8055740,%dl
 804b0e5:	8b 14 95 60 e2 1f 08 	mov    0x81fe260(,%edx,4),%edx
 804b0ec:	89 15 40 57 05 08    	mov    %edx,0x8055740
 804b0f2:	c7 05 70 e8 5f 08 c1 	movl   $0xcc0000c1,0x85fe870
 804b0f9:	00 00 cc 
 804b0fc:	a1 24 e8 3f 08       	mov    0x83fe824,%eax
 804b101:	8b 80 98 ff df ff    	mov    -0x200068(%eax),%eax
 804b107:	8b 80 98 ff df ff    	mov    -0x200068(%eax),%eax
 804b10d:	8b 80 98 ff df ff    	mov    -0x200068(%eax),%eax
 804b113:	8b 80 98 ff df ff    	mov    -0x200068(%eax),%eax
 804b119:	8b 80 98 ff df ff    	mov    -0x200068(%eax),%eax
 804b11f:	8b 80 98 ff df ff    	mov    -0x200068(%eax),%eax
 804b125:	8b 80 98 ff df ff    	mov    -0x200068(%eax),%eax
 804b12b:	8b 80 98 ff df ff    	mov    -0x200068(%eax),%eax
 804b131:	8b 80 98 ff df ff    	mov    -0x200068(%eax),%eax
 804b137:	8b 80 98 ff df ff    	mov    -0x200068(%eax),%eax
 804b13d:	8b 80 98 ff df ff    	mov    -0x200068(%eax),%eax
 804b143:	8b 80 98 ff df ff    	mov    -0x200068(%eax),%eax
 804b149:	8b 80 98 ff df ff    	mov    -0x200068(%eax),%eax
 804b14f:	8b 80 98 ff df ff    	mov    -0x200068(%eax),%eax
 804b155:	8b 80 98 ff df ff    	mov    -0x200068(%eax),%eax
 804b15b:	8b 80 98 ff df ff    	mov    -0x200068(%eax),%eax
 804b161:	8b 80 98 ff df ff    	mov    -0x200068(%eax),%eax
 804b167:	8b 80 98 ff df ff    	mov    -0x200068(%eax),%eax
 804b16d:	8b 80 98 ff df ff    	mov    -0x200068(%eax),%eax
 804b173:	8b 80 98 ff df ff    	mov    -0x200068(%eax),%eax
 804b179:	8b 80 98 ff df ff    	mov    -0x200068(%eax),%eax
 804b17f:	8b 80 98 ff df ff    	mov    -0x200068(%eax),%eax
 804b185:	8b 80 98 ff df ff    	mov    -0x200068(%eax),%eax
 804b18b:	8b 80 98 ff df ff    	mov    -0x200068(%eax),%eax
 804b191:	8b 80 98 ff df ff    	mov    -0x200068(%eax),%eax
 804b197:	8b 80 98 ff df ff    	mov    -0x200068(%eax),%eax
 804b19d:	8b 80 98 ff df ff    	mov    -0x200068(%eax),%eax
 804b1a3:	8b 80 98 ff df ff    	mov    -0x200068(%eax),%eax
 804b1a9:	8b 80 98 ff df ff    	mov    -0x200068(%eax),%eax
 804b1af:	8b 80 98 ff df ff    	mov    -0x200068(%eax),%eax
 804b1b5:	8b 80 98 ff df ff    	mov    -0x200068(%eax),%eax
 804b1bb:	8b 80 98 ff df ff    	mov    -0x200068(%eax),%eax
 804b1c1:	8b 80 98 ff df ff    	mov    -0x200068(%eax),%eax
 804b1c7:	a3 44 57 05 08       	mov    %eax,0x8055744
 804b1cc:	c7 05 70 e8 5f 08 c2 	movl   $0xcc0000c2,0x85fe870
 804b1d3:	00 00 cc 
 804b1d6:	a1 44 57 05 08       	mov    0x8055744,%eax
 804b1db:	8b 15 48 e8 3f 08    	mov    0x83fe848,%edx
 804b1e1:	c7 05 70 e8 5f 08 c3 	movl   $0xcc0000c3,0x85fe870
 804b1e8:	00 00 cc 
 804b1eb:	a3 64 e8 3f 08       	mov    %eax,0x83fe864
 804b1f0:	8b 04 95 60 e8 3f 08 	mov    0x83fe860(,%edx,4),%eax
 804b1f7:	8b 00                	mov    (%eax),%eax
 804b1f9:	a3 44 57 05 08       	mov    %eax,0x8055744
 804b1fe:	c7 05 70 e8 5f 08 c4 	movl   $0xcc0000c4,0x85fe870
 804b205:	00 00 cc 
 804b208:	a1 40 57 05 08       	mov    0x8055740,%eax
 804b20d:	8b 15 44 57 05 08    	mov    0x8055744,%edx
 804b213:	c7 05 70 e8 5f 08 c5 	movl   $0xcc0000c5,0x85fe870
 804b21a:	00 00 cc 
 804b21d:	a3 e0 e6 1f 08       	mov    %eax,0x81fe6e0
 804b222:	89 15 e4 e6 1f 08    	mov    %edx,0x81fe6e4
 804b228:	c7 05 70 e8 5f 08 c6 	movl   $0xcc0000c6,0x85fe870
 804b22f:	00 00 cc 
 804b232:	b8 00 00 00 00       	mov    $0x0,%eax
 804b237:	b9 00 00 00 00       	mov    $0x0,%ecx
 804b23c:	c7 05 f0 e6 1f 08 01 	movl   $0x1,0x81fe6f0
 804b243:	00 00 00 
 804b246:	c7 05 70 e8 5f 08 c7 	movl   $0xcc0000c7,0x85fe870
 804b24d:	00 00 cc 
 804b250:	66 a1 e0 e6 1f 08    	mov    0x81fe6e0,%ax
 804b256:	66 8b 0d e4 e6 1f 08 	mov    0x81fe6e4,%cx
 804b25d:	66 8b 0c 4d 40 97 16 	mov    0x8169740(,%ecx,2),%cx
 804b264:	08 
 804b265:	8b 14 85 20 96 06 08 	mov    0x8069620(,%eax,4),%edx
 804b26c:	8b 14 8a             	mov    (%edx,%ecx,4),%edx
 804b26f:	8b 14 95 20 96 06 08 	mov    0x8069620(,%edx,4),%edx
 804b276:	8b 0d f0 e6 1f 08    	mov    0x81fe6f0,%ecx
 804b27c:	8b 14 8a             	mov    (%edx,%ecx,4),%edx
 804b27f:	66 89 15 e8 e6 1f 08 	mov    %dx,0x81fe6e8
 804b286:	89 15 ee e6 1f 08    	mov    %edx,0x81fe6ee
 804b28c:	c7 05 70 e8 5f 08 c8 	movl   $0xcc0000c8,0x85fe870
 804b293:	00 00 cc 
 804b296:	66 a1 e2 e6 1f 08    	mov    0x81fe6e2,%ax
 804b29c:	66 8b 0d e6 e6 1f 08 	mov    0x81fe6e6,%cx
 804b2a3:	66 8b 0c 4d 40 97 16 	mov    0x8169740(,%ecx,2),%cx
 804b2aa:	08 
 804b2ab:	8b 14 85 20 96 06 08 	mov    0x8069620(,%eax,4),%edx
 804b2b2:	8b 14 8a             	mov    (%edx,%ecx,4),%edx
 804b2b5:	8b 14 95 20 96 06 08 	mov    0x8069620(,%edx,4),%edx
 804b2bc:	8b 0d f0 e6 1f 08    	mov    0x81fe6f0,%ecx
 804b2c2:	8b 14 8a             	mov    (%edx,%ecx,4),%edx
 804b2c5:	66 89 15 ea e6 1f 08 	mov    %dx,0x81fe6ea
 804b2cc:	89 15 ee e6 1f 08    	mov    %edx,0x81fe6ee
 804b2d2:	a1 e8 e6 1f 08       	mov    0x81fe6e8,%eax
 804b2d7:	a3 44 57 05 08       	mov    %eax,0x8055744
 804b2dc:	c7 05 70 e8 5f 08 c9 	movl   $0xcc0000c9,0x85fe870
 804b2e3:	00 00 cc 
 804b2e6:	a1 24 e8 3f 08       	mov    0x83fe824,%eax
 804b2eb:	8b 80 98 ff df ff    	mov    -0x200068(%eax),%eax
 804b2f1:	8b 80 98 ff df ff    	mov    -0x200068(%eax),%eax
 804b2f7:	8b 80 98 ff df ff    	mov    -0x200068(%eax),%eax
 804b2fd:	8b 80 98 ff df ff    	mov    -0x200068(%eax),%eax
 804b303:	8b 80 98 ff df ff    	mov    -0x200068(%eax),%eax
 804b309:	8b 80 98 ff df ff    	mov    -0x200068(%eax),%eax
 804b30f:	8b 80 98 ff df ff    	mov    -0x200068(%eax),%eax
 804b315:	8b 80 98 ff df ff    	mov    -0x200068(%eax),%eax
 804b31b:	8b 80 98 ff df ff    	mov    -0x200068(%eax),%eax
 804b321:	8b 80 98 ff df ff    	mov    -0x200068(%eax),%eax
 804b327:	8b 80 98 ff df ff    	mov    -0x200068(%eax),%eax
 804b32d:	8b 80 98 ff df ff    	mov    -0x200068(%eax),%eax
 804b333:	8b 80 98 ff df ff    	mov    -0x200068(%eax),%eax
 804b339:	8b 80 98 ff df ff    	mov    -0x200068(%eax),%eax
 804b33f:	8b 80 98 ff df ff    	mov    -0x200068(%eax),%eax
 804b345:	8b 80 98 ff df ff    	mov    -0x200068(%eax),%eax
 804b34b:	8b 80 98 ff df ff    	mov    -0x200068(%eax),%eax
 804b351:	8b 80 98 ff df ff    	mov    -0x200068(%eax),%eax
 804b357:	8b 80 98 ff df ff    	mov    -0x200068(%eax),%eax
 804b35d:	8b 80 98 ff df ff    	mov    -0x200068(%eax),%eax
 804b363:	8b 80 98 ff df ff    	mov    -0x200068(%eax),%eax
 804b369:	8b 80 98 ff df ff    	mov    -0x200068(%eax),%eax
 804b36f:	8b 80 98 ff df ff    	mov    -0x200068(%eax),%eax
 804b375:	8b 80 98 ff df ff    	mov    -0x200068(%eax),%eax
 804b37b:	8b 80 98 ff df ff    	mov    -0x200068(%eax),%eax
 804b381:	8b 80 98 ff df ff    	mov    -0x200068(%eax),%eax
 804b387:	8b 80 98 ff df ff    	mov    -0x200068(%eax),%eax
 804b38d:	8b 80 98 ff df ff    	mov    -0x200068(%eax),%eax
 804b393:	8b 80 98 ff df ff    	mov    -0x200068(%eax),%eax
 804b399:	8b 80 98 ff df ff    	mov    -0x200068(%eax),%eax
 804b39f:	8b 80 98 ff df ff    	mov    -0x200068(%eax),%eax
 804b3a5:	8b 80 98 ff df ff    	mov    -0x200068(%eax),%eax
 804b3ab:	8b 80 98 ff df ff    	mov    -0x200068(%eax),%eax
 804b3b1:	8b 80 98 ff df ff    	mov    -0x200068(%eax),%eax
 804b3b7:	a3 40 57 05 08       	mov    %eax,0x8055740
 804b3bc:	c7 05 70 e8 5f 08 ca 	movl   $0xcc0000ca,0x85fe870
 804b3c3:	00 00 cc 
 804b3c6:	a1 40 57 05 08       	mov    0x8055740,%eax
 804b3cb:	8b 15 48 e8 3f 08    	mov    0x83fe848,%edx
 804b3d1:	c7 05 70 e8 5f 08 cb 	movl   $0xcc0000cb,0x85fe870
 804b3d8:	00 00 cc 
 804b3db:	a3 64 e8 3f 08       	mov    %eax,0x83fe864
 804b3e0:	8b 04 95 60 e8 3f 08 	mov    0x83fe860(,%edx,4),%eax
 804b3e7:	8b 00                	mov    (%eax),%eax
 804b3e9:	a3 40 57 05 08       	mov    %eax,0x8055740
 804b3ee:	c7 05 70 e8 5f 08 cc 	movl   $0xcc0000cc,0x85fe870
 804b3f5:	00 00 cc 
 804b3f8:	a1 44 57 05 08       	mov    0x8055744,%eax
 804b3fd:	8b 15 40 57 05 08    	mov    0x8055740,%edx
 804b403:	c7 05 70 e8 5f 08 cd 	movl   $0xcc0000cd,0x85fe870
 804b40a:	00 00 cc 
 804b40d:	a3 e0 e6 1f 08       	mov    %eax,0x81fe6e0
 804b412:	89 15 e4 e6 1f 08    	mov    %edx,0x81fe6e4
 804b418:	c7 05 70 e8 5f 08 ce 	movl   $0xcc0000ce,0x85fe870
 804b41f:	00 00 cc 
 804b422:	b8 00 00 00 00       	mov    $0x0,%eax
 804b427:	b9 00 00 00 00       	mov    $0x0,%ecx
 804b42c:	c7 05 f0 e6 1f 08 01 	movl   $0x1,0x81fe6f0
 804b433:	00 00 00 
 804b436:	c7 05 70 e8 5f 08 cf 	movl   $0xcc0000cf,0x85fe870
 804b43d:	00 00 cc 
 804b440:	66 a1 e0 e6 1f 08    	mov    0x81fe6e0,%ax
 804b446:	66 8b 0d e4 e6 1f 08 	mov    0x81fe6e4,%cx
 804b44d:	66 8b 0c 4d 40 97 16 	mov    0x8169740(,%ecx,2),%cx
 804b454:	08 
 804b455:	8b 14 85 20 96 06 08 	mov    0x8069620(,%eax,4),%edx
 804b45c:	8b 14 8a             	mov    (%edx,%ecx,4),%edx
 804b45f:	8b 14 95 20 96 06 08 	mov    0x8069620(,%edx,4),%edx
 804b466:	8b 0d f0 e6 1f 08    	mov    0x81fe6f0,%ecx
 804b46c:	8b 14 8a             	mov    (%edx,%ecx,4),%edx
 804b46f:	66 89 15 e8 e6 1f 08 	mov    %dx,0x81fe6e8
 804b476:	89 15 ee e6 1f 08    	mov    %edx,0x81fe6ee
 804b47c:	c7 05 70 e8 5f 08 d0 	movl   $0xcc0000d0,0x85fe870
 804b483:	00 00 cc 
 804b486:	66 a1 e2 e6 1f 08    	mov    0x81fe6e2,%ax
 804b48c:	66 8b 0d e6 e6 1f 08 	mov    0x81fe6e6,%cx
 804b493:	66 8b 0c 4d 40 97 16 	mov    0x8169740(,%ecx,2),%cx
 804b49a:	08 
 804b49b:	8b 14 85 20 96 06 08 	mov    0x8069620(,%eax,4),%edx
 804b4a2:	8b 14 8a             	mov    (%edx,%ecx,4),%edx
 804b4a5:	8b 14 95 20 96 06 08 	mov    0x8069620(,%edx,4),%edx
 804b4ac:	8b 0d f0 e6 1f 08    	mov    0x81fe6f0,%ecx
 804b4b2:	8b 14 8a             	mov    (%edx,%ecx,4),%edx
 804b4b5:	66 89 15 ea e6 1f 08 	mov    %dx,0x81fe6ea
 804b4bc:	89 15 ee e6 1f 08    	mov    %edx,0x81fe6ee
 804b4c2:	a1 e8 e6 1f 08       	mov    0x81fe6e8,%eax
 804b4c7:	a3 44 57 05 08       	mov    %eax,0x8055744
 804b4cc:	c7 05 70 e8 5f 08 d1 	movl   $0xcc0000d1,0x85fe870
 804b4d3:	00 00 cc 
 804b4d6:	a1 48 57 05 08       	mov    0x8055748,%eax
 804b4db:	8b 15 44 57 05 08    	mov    0x8055744,%edx
 804b4e1:	c7 05 70 e8 5f 08 d2 	movl   $0xcc0000d2,0x85fe870
 804b4e8:	00 00 cc 
 804b4eb:	a3 e0 e6 1f 08       	mov    %eax,0x81fe6e0
 804b4f0:	89 15 e4 e6 1f 08    	mov    %edx,0x81fe6e4
 804b4f6:	c7 05 70 e8 5f 08 d3 	movl   $0xcc0000d3,0x85fe870
 804b4fd:	00 00 cc 
 804b500:	c7 05 70 e8 5f 08 d4 	movl   $0xcc0000d4,0x85fe870
 804b507:	00 00 cc 
 804b50a:	b8 00 00 00 00       	mov    $0x0,%eax
 804b50f:	ba 00 00 00 00       	mov    $0x0,%edx
 804b514:	a0 e0 e6 1f 08       	mov    0x81fe6e0,%al
 804b519:	8a 15 e4 e6 1f 08    	mov    0x81fe6e4,%dl
 804b51f:	8b 04 85 60 9c 19 08 	mov    0x8199c60(,%eax,4),%eax
 804b526:	8a 04 10             	mov    (%eax,%edx,1),%al
 804b529:	a2 e8 e6 1f 08       	mov    %al,0x81fe6e8
 804b52e:	c7 05 70 e8 5f 08 d5 	movl   $0xcc0000d5,0x85fe870
 804b535:	00 00 cc 
 804b538:	b8 00 00 00 00       	mov    $0x0,%eax
 804b53d:	ba 00 00 00 00       	mov    $0x0,%edx
 804b542:	a0 e1 e6 1f 08       	mov    0x81fe6e1,%al
 804b547:	8a 15 e5 e6 1f 08    	mov    0x81fe6e5,%dl
 804b54d:	8b 04 85 60 9c 19 08 	mov    0x8199c60(,%eax,4),%eax
 804b554:	8a 04 10             	mov    (%eax,%edx,1),%al
 804b557:	a2 e9 e6 1f 08       	mov    %al,0x81fe6e9
 804b55c:	c7 05 70 e8 5f 08 d6 	movl   $0xcc0000d6,0x85fe870
 804b563:	00 00 cc 
 804b566:	b8 00 00 00 00       	mov    $0x0,%eax
 804b56b:	ba 00 00 00 00       	mov    $0x0,%edx
 804b570:	a0 e2 e6 1f 08       	mov    0x81fe6e2,%al
 804b575:	8a 15 e6 e6 1f 08    	mov    0x81fe6e6,%dl
 804b57b:	8b 04 85 60 9c 19 08 	mov    0x8199c60(,%eax,4),%eax
 804b582:	8a 04 10             	mov    (%eax,%edx,1),%al
 804b585:	a2 ea e6 1f 08       	mov    %al,0x81fe6ea
 804b58a:	c7 05 70 e8 5f 08 d7 	movl   $0xcc0000d7,0x85fe870
 804b591:	00 00 cc 
 804b594:	b8 00 00 00 00       	mov    $0x0,%eax
 804b599:	ba 00 00 00 00       	mov    $0x0,%edx
 804b59e:	a0 e3 e6 1f 08       	mov    0x81fe6e3,%al
 804b5a3:	8a 15 e7 e6 1f 08    	mov    0x81fe6e7,%dl
 804b5a9:	8b 04 85 60 9c 19 08 	mov    0x8199c60(,%eax,4),%eax
 804b5b0:	8a 04 10             	mov    (%eax,%edx,1),%al
 804b5b3:	a2 eb e6 1f 08       	mov    %al,0x81fe6eb
 804b5b8:	a1 e8 e6 1f 08       	mov    0x81fe6e8,%eax
 804b5bd:	a3 48 57 05 08       	mov    %eax,0x8055748
 804b5c2:	c7 05 70 e8 5f 08 d8 	movl   $0xcc0000d8,0x85fe870
 804b5c9:	00 00 cc 
 804b5cc:	a1 24 e8 3f 08       	mov    0x83fe824,%eax
 804b5d1:	ba 83 ff ff ff       	mov    $0xffffff83,%edx
 804b5d6:	c7 05 70 e8 5f 08 d9 	movl   $0xcc0000d9,0x85fe870
 804b5dd:	00 00 cc 
 804b5e0:	a3 e0 e6 1f 08       	mov    %eax,0x81fe6e0
 804b5e5:	89 15 e4 e6 1f 08    	mov    %edx,0x81fe6e4
 804b5eb:	c7 05 70 e8 5f 08 da 	movl   $0xcc0000da,0x85fe870
 804b5f2:	00 00 cc 
 804b5f5:	b8 00 00 00 00       	mov    $0x0,%eax
 804b5fa:	b9 00 00 00 00       	mov    $0x0,%ecx
 804b5ff:	c7 05 f0 e6 1f 08 00 	movl   $0x0,0x81fe6f0
 804b606:	00 00 00 
 804b609:	c7 05 70 e8 5f 08 db 	movl   $0xcc0000db,0x85fe870
 804b610:	00 00 cc 
 804b613:	66 a1 e0 e6 1f 08    	mov    0x81fe6e0,%ax
 804b619:	66 8b 0d e4 e6 1f 08 	mov    0x81fe6e4,%cx
 804b620:	8b 14 85 20 96 06 08 	mov    0x8069620(,%eax,4),%edx
 804b627:	8b 14 8a             	mov    (%edx,%ecx,4),%edx
 804b62a:	66 8b 0d f2 e6 1f 08 	mov    0x81fe6f2,%cx
 804b631:	8b 14 95 20 96 06 08 	mov    0x8069620(,%edx,4),%edx
 804b638:	8b 14 8a             	mov    (%edx,%ecx,4),%edx
 804b63b:	66 89 15 e8 e6 1f 08 	mov    %dx,0x81fe6e8
 804b642:	89 15 f0 e6 1f 08    	mov    %edx,0x81fe6f0
 804b648:	c7 05 70 e8 5f 08 dc 	movl   $0xcc0000dc,0x85fe870
 804b64f:	00 00 cc 
 804b652:	66 a1 e2 e6 1f 08    	mov    0x81fe6e2,%ax
 804b658:	66 8b 0d e6 e6 1f 08 	mov    0x81fe6e6,%cx
 804b65f:	8b 14 85 20 96 06 08 	mov    0x8069620(,%eax,4),%edx
 804b666:	8b 14 8a             	mov    (%edx,%ecx,4),%edx
 804b669:	66 8b 0d f2 e6 1f 08 	mov    0x81fe6f2,%cx
 804b670:	8b 14 95 20 96 06 08 	mov    0x8069620(,%edx,4),%edx
 804b677:	8b 14 8a             	mov    (%edx,%ecx,4),%edx
 804b67a:	66 89 15 ea e6 1f 08 	mov    %dx,0x81fe6ea
 804b681:	89 15 f0 e6 1f 08    	mov    %edx,0x81fe6f0
 804b687:	a1 e8 e6 1f 08       	mov    0x81fe6e8,%eax
 804b68c:	a3 44 57 05 08       	mov    %eax,0x8055744
 804b691:	c7 05 70 e8 5f 08 dd 	movl   $0xcc0000dd,0x85fe870
 804b698:	00 00 cc 
 804b69b:	a1 44 57 05 08       	mov    0x8055744,%eax
 804b6a0:	8b 15 48 e8 3f 08    	mov    0x83fe848,%edx
 804b6a6:	c7 05 70 e8 5f 08 de 	movl   $0xcc0000de,0x85fe870
 804b6ad:	00 00 cc 
 804b6b0:	a3 64 e8 3f 08       	mov    %eax,0x83fe864
 804b6b5:	8b 04 95 60 e8 3f 08 	mov    0x83fe860(,%edx,4),%eax
 804b6bc:	ba 00 00 00 00       	mov    $0x0,%edx
 804b6c1:	8a 10                	mov    (%eax),%dl
 804b6c3:	89 15 40 57 05 08    	mov    %edx,0x8055740
 804b6c9:	c7 05 70 e8 5f 08 df 	movl   $0xcc0000df,0x85fe870
 804b6d0:	00 00 cc 
 804b6d3:	ba 00 00 00 00       	mov    $0x0,%edx
 804b6d8:	8a 15 40 57 05 08    	mov    0x8055740,%dl
 804b6de:	8b 14 95 60 e2 1f 08 	mov    0x81fe260(,%edx,4),%edx
 804b6e5:	89 15 44 57 05 08    	mov    %edx,0x8055744
 804b6eb:	c7 05 40 57 05 08 0f 	movl   $0xf,0x8055740
 804b6f2:	00 00 00 
 804b6f5:	c7 05 70 e8 5f 08 e0 	movl   $0xcc0000e0,0x85fe870
 804b6fc:	00 00 cc 
 804b6ff:	a1 44 57 05 08       	mov    0x8055744,%eax
 804b704:	8b 15 40 57 05 08    	mov    0x8055740,%edx
 804b70a:	c7 05 70 e8 5f 08 e1 	movl   $0xcc0000e1,0x85fe870
 804b711:	00 00 cc 
 804b714:	a3 e0 e6 1f 08       	mov    %eax,0x81fe6e0
 804b719:	89 15 e4 e6 1f 08    	mov    %edx,0x81fe6e4
 804b71f:	c7 05 70 e8 5f 08 e2 	movl   $0xcc0000e2,0x85fe870
 804b726:	00 00 cc 
 804b729:	b8 00 00 00 00       	mov    $0x0,%eax
 804b72e:	b9 00 00 00 00       	mov    $0x0,%ecx
 804b733:	c7 05 f0 e6 1f 08 00 	movl   $0x0,0x81fe6f0
 804b73a:	00 00 00 
 804b73d:	c7 05 70 e8 5f 08 e3 	movl   $0xcc0000e3,0x85fe870
 804b744:	00 00 cc 
 804b747:	66 a1 e0 e6 1f 08    	mov    0x81fe6e0,%ax
 804b74d:	66 8b 0d e4 e6 1f 08 	mov    0x81fe6e4,%cx
 804b754:	8b 14 85 20 96 06 08 	mov    0x8069620(,%eax,4),%edx
 804b75b:	8b 14 8a             	mov    (%edx,%ecx,4),%edx
 804b75e:	66 8b 0d f2 e6 1f 08 	mov    0x81fe6f2,%cx
 804b765:	8b 14 95 20 96 06 08 	mov    0x8069620(,%edx,4),%edx
 804b76c:	8b 14 8a             	mov    (%edx,%ecx,4),%edx
 804b76f:	66 89 15 e8 e6 1f 08 	mov    %dx,0x81fe6e8
 804b776:	89 15 f0 e6 1f 08    	mov    %edx,0x81fe6f0
 804b77c:	c7 05 70 e8 5f 08 e4 	movl   $0xcc0000e4,0x85fe870
 804b783:	00 00 cc 
 804b786:	66 a1 e2 e6 1f 08    	mov    0x81fe6e2,%ax
 804b78c:	66 8b 0d e6 e6 1f 08 	mov    0x81fe6e6,%cx
 804b793:	8b 14 85 20 96 06 08 	mov    0x8069620(,%eax,4),%edx
 804b79a:	8b 14 8a             	mov    (%edx,%ecx,4),%edx
 804b79d:	66 8b 0d f2 e6 1f 08 	mov    0x81fe6f2,%cx
 804b7a4:	8b 14 95 20 96 06 08 	mov    0x8069620(,%edx,4),%edx
 804b7ab:	8b 14 8a             	mov    (%edx,%ecx,4),%edx
 804b7ae:	66 89 15 ea e6 1f 08 	mov    %dx,0x81fe6ea
 804b7b5:	89 15 f0 e6 1f 08    	mov    %edx,0x81fe6f0
 804b7bb:	a1 e8 e6 1f 08       	mov    0x81fe6e8,%eax
 804b7c0:	a3 44 57 05 08       	mov    %eax,0x8055744
 804b7c5:	c7 05 70 e8 5f 08 e5 	movl   $0xcc0000e5,0x85fe870
 804b7cc:	00 00 cc 
 804b7cf:	a1 24 e8 3f 08       	mov    0x83fe824,%eax
 804b7d4:	8b 80 98 ff df ff    	mov    -0x200068(%eax),%eax
 804b7da:	8b 80 98 ff df ff    	mov    -0x200068(%eax),%eax
 804b7e0:	8b 80 98 ff df ff    	mov    -0x200068(%eax),%eax
 804b7e6:	8b 80 98 ff df ff    	mov    -0x200068(%eax),%eax
 804b7ec:	8b 80 98 ff df ff    	mov    -0x200068(%eax),%eax
 804b7f2:	8b 80 98 ff df ff    	mov    -0x200068(%eax),%eax
 804b7f8:	8b 80 98 ff df ff    	mov    -0x200068(%eax),%eax
 804b7fe:	8b 80 98 ff df ff    	mov    -0x200068(%eax),%eax
 804b804:	8b 80 98 ff df ff    	mov    -0x200068(%eax),%eax
 804b80a:	8b 80 98 ff df ff    	mov    -0x200068(%eax),%eax
 804b810:	8b 80 98 ff df ff    	mov    -0x200068(%eax),%eax
 804b816:	8b 80 98 ff df ff    	mov    -0x200068(%eax),%eax
 804b81c:	8b 80 98 ff df ff    	mov    -0x200068(%eax),%eax
 804b822:	8b 80 98 ff df ff    	mov    -0x200068(%eax),%eax
 804b828:	8b 80 98 ff df ff    	mov    -0x200068(%eax),%eax
 804b82e:	8b 80 98 ff df ff    	mov    -0x200068(%eax),%eax
 804b834:	8b 80 98 ff df ff    	mov    -0x200068(%eax),%eax
 804b83a:	8b 80 98 ff df ff    	mov    -0x200068(%eax),%eax
 804b840:	8b 80 98 ff df ff    	mov    -0x200068(%eax),%eax
 804b846:	8b 80 98 ff df ff    	mov    -0x200068(%eax),%eax
 804b84c:	8b 80 98 ff df ff    	mov    -0x200068(%eax),%eax
 804b852:	8b 80 98 ff df ff    	mov    -0x200068(%eax),%eax
 804b858:	8b 80 98 ff df ff    	mov    -0x200068(%eax),%eax
 804b85e:	8b 80 98 ff df ff    	mov    -0x200068(%eax),%eax
 804b864:	8b 80 98 ff df ff    	mov    -0x200068(%eax),%eax
 804b86a:	8b 80 98 ff df ff    	mov    -0x200068(%eax),%eax
 804b870:	8b 80 98 ff df ff    	mov    -0x200068(%eax),%eax
 804b876:	8b 80 98 ff df ff    	mov    -0x200068(%eax),%eax
 804b87c:	8b 80 98 ff df ff    	mov    -0x200068(%eax),%eax
 804b882:	8b 80 98 ff df ff    	mov    -0x200068(%eax),%eax
 804b888:	8b 80 98 ff df ff    	mov    -0x200068(%eax),%eax
 804b88e:	8b 80 98 ff df ff    	mov    -0x200068(%eax),%eax
 804b894:	8b 80 98 ff df ff    	mov    -0x200068(%eax),%eax
 804b89a:	8b 80 98 ff df ff    	mov    -0x200068(%eax),%eax
 804b8a0:	8b 80 98 ff df ff    	mov    -0x200068(%eax),%eax
 804b8a6:	a3 40 57 05 08       	mov    %eax,0x8055740
 804b8ab:	c7 05 70 e8 5f 08 e6 	movl   $0xcc0000e6,0x85fe870
 804b8b2:	00 00 cc 
 804b8b5:	a1 40 57 05 08       	mov    0x8055740,%eax
 804b8ba:	8b 15 48 e8 3f 08    	mov    0x83fe848,%edx
 804b8c0:	c7 05 70 e8 5f 08 e7 	movl   $0xcc0000e7,0x85fe870
 804b8c7:	00 00 cc 
 804b8ca:	a3 64 e8 3f 08       	mov    %eax,0x83fe864
 804b8cf:	8b 04 95 60 e8 3f 08 	mov    0x83fe860(,%edx,4),%eax
 804b8d6:	8b 00                	mov    (%eax),%eax
 804b8d8:	a3 40 57 05 08       	mov    %eax,0x8055740
 804b8dd:	c7 05 70 e8 5f 08 e8 	movl   $0xcc0000e8,0x85fe870
 804b8e4:	00 00 cc 
 804b8e7:	a1 44 57 05 08       	mov    0x8055744,%eax
 804b8ec:	8b 15 40 57 05 08    	mov    0x8055740,%edx
 804b8f2:	c7 05 70 e8 5f 08 e9 	movl   $0xcc0000e9,0x85fe870
 804b8f9:	00 00 cc 
 804b8fc:	a3 e0 e6 1f 08       	mov    %eax,0x81fe6e0
 804b901:	89 15 e4 e6 1f 08    	mov    %edx,0x81fe6e4
 804b907:	c7 05 70 e8 5f 08 ea 	movl   $0xcc0000ea,0x85fe870
 804b90e:	00 00 cc 
 804b911:	c7 05 70 e8 5f 08 eb 	movl   $0xcc0000eb,0x85fe870
 804b918:	00 00 cc 
 804b91b:	b8 00 00 00 00       	mov    $0x0,%eax
 804b920:	ba 00 00 00 00       	mov    $0x0,%edx
 804b925:	a0 e0 e6 1f 08       	mov    0x81fe6e0,%al
 804b92a:	8a 15 e4 e6 1f 08    	mov    0x81fe6e4,%dl
 804b930:	8b 04 85 70 a1 1a 08 	mov    0x81aa170(,%eax,4),%eax
 804b937:	8a 04 10             	mov    (%eax,%edx,1),%al
 804b93a:	a2 e8 e6 1f 08       	mov    %al,0x81fe6e8
 804b93f:	c7 05 70 e8 5f 08 ec 	movl   $0xcc0000ec,0x85fe870
 804b946:	00 00 cc 
 804b949:	b8 00 00 00 00       	mov    $0x0,%eax
 804b94e:	ba 00 00 00 00       	mov    $0x0,%edx
 804b953:	a0 e1 e6 1f 08       	mov    0x81fe6e1,%al
 804b958:	8a 15 e5 e6 1f 08    	mov    0x81fe6e5,%dl
 804b95e:	8b 04 85 70 a1 1a 08 	mov    0x81aa170(,%eax,4),%eax
 804b965:	8a 04 10             	mov    (%eax,%edx,1),%al
 804b968:	a2 e9 e6 1f 08       	mov    %al,0x81fe6e9
 804b96d:	c7 05 70 e8 5f 08 ed 	movl   $0xcc0000ed,0x85fe870
 804b974:	00 00 cc 
 804b977:	b8 00 00 00 00       	mov    $0x0,%eax
 804b97c:	ba 00 00 00 00       	mov    $0x0,%edx
 804b981:	a0 e2 e6 1f 08       	mov    0x81fe6e2,%al
 804b986:	8a 15 e6 e6 1f 08    	mov    0x81fe6e6,%dl
 804b98c:	8b 04 85 70 a1 1a 08 	mov    0x81aa170(,%eax,4),%eax
 804b993:	8a 04 10             	mov    (%eax,%edx,1),%al
 804b996:	a2 ea e6 1f 08       	mov    %al,0x81fe6ea
 804b99b:	c7 05 70 e8 5f 08 ee 	movl   $0xcc0000ee,0x85fe870
 804b9a2:	00 00 cc 
 804b9a5:	b8 00 00 00 00       	mov    $0x0,%eax
 804b9aa:	ba 00 00 00 00       	mov    $0x0,%edx
 804b9af:	a0 e3 e6 1f 08       	mov    0x81fe6e3,%al
 804b9b4:	8a 15 e7 e6 1f 08    	mov    0x81fe6e7,%dl
 804b9ba:	8b 04 85 70 a1 1a 08 	mov    0x81aa170(,%eax,4),%eax
 804b9c1:	8a 04 10             	mov    (%eax,%edx,1),%al
 804b9c4:	a2 eb e6 1f 08       	mov    %al,0x81fe6eb
 804b9c9:	a1 e8 e6 1f 08       	mov    0x81fe6e8,%eax
 804b9ce:	a3 44 57 05 08       	mov    %eax,0x8055744
 804b9d3:	c7 05 70 e8 5f 08 ef 	movl   $0xcc0000ef,0x85fe870
 804b9da:	00 00 cc 
 804b9dd:	a1 48 57 05 08       	mov    0x8055748,%eax
 804b9e2:	8b 15 44 57 05 08    	mov    0x8055744,%edx
 804b9e8:	c7 05 70 e8 5f 08 f0 	movl   $0xcc0000f0,0x85fe870
 804b9ef:	00 00 cc 
 804b9f2:	a3 e0 e6 1f 08       	mov    %eax,0x81fe6e0
 804b9f7:	89 15 e4 e6 1f 08    	mov    %edx,0x81fe6e4
 804b9fd:	c7 05 70 e8 5f 08 f1 	movl   $0xcc0000f1,0x85fe870
 804ba04:	00 00 cc 
 804ba07:	c7 05 70 e8 5f 08 f2 	movl   $0xcc0000f2,0x85fe870
 804ba0e:	00 00 cc 
 804ba11:	b8 00 00 00 00       	mov    $0x0,%eax
 804ba16:	ba 00 00 00 00       	mov    $0x0,%edx
 804ba1b:	a0 e0 e6 1f 08       	mov    0x81fe6e0,%al
 804ba20:	8a 15 e4 e6 1f 08    	mov    0x81fe6e4,%dl
 804ba26:	8b 04 85 60 9c 19 08 	mov    0x8199c60(,%eax,4),%eax
 804ba2d:	8a 04 10             	mov    (%eax,%edx,1),%al
 804ba30:	a2 e8 e6 1f 08       	mov    %al,0x81fe6e8
 804ba35:	c7 05 70 e8 5f 08 f3 	movl   $0xcc0000f3,0x85fe870
 804ba3c:	00 00 cc 
 804ba3f:	b8 00 00 00 00       	mov    $0x0,%eax
 804ba44:	ba 00 00 00 00       	mov    $0x0,%edx
 804ba49:	a0 e1 e6 1f 08       	mov    0x81fe6e1,%al
 804ba4e:	8a 15 e5 e6 1f 08    	mov    0x81fe6e5,%dl
 804ba54:	8b 04 85 60 9c 19 08 	mov    0x8199c60(,%eax,4),%eax
 804ba5b:	8a 04 10             	mov    (%eax,%edx,1),%al
 804ba5e:	a2 e9 e6 1f 08       	mov    %al,0x81fe6e9
 804ba63:	c7 05 70 e8 5f 08 f4 	movl   $0xcc0000f4,0x85fe870
 804ba6a:	00 00 cc 
 804ba6d:	b8 00 00 00 00       	mov    $0x0,%eax
 804ba72:	ba 00 00 00 00       	mov    $0x0,%edx
 804ba77:	a0 e2 e6 1f 08       	mov    0x81fe6e2,%al
 804ba7c:	8a 15 e6 e6 1f 08    	mov    0x81fe6e6,%dl
 804ba82:	8b 04 85 60 9c 19 08 	mov    0x8199c60(,%eax,4),%eax
 804ba89:	8a 04 10             	mov    (%eax,%edx,1),%al
 804ba8c:	a2 ea e6 1f 08       	mov    %al,0x81fe6ea
 804ba91:	c7 05 70 e8 5f 08 f5 	movl   $0xcc0000f5,0x85fe870
 804ba98:	00 00 cc 
 804ba9b:	b8 00 00 00 00       	mov    $0x0,%eax
 804baa0:	ba 00 00 00 00       	mov    $0x0,%edx
 804baa5:	a0 e3 e6 1f 08       	mov    0x81fe6e3,%al
 804baaa:	8a 15 e7 e6 1f 08    	mov    0x81fe6e7,%dl
 804bab0:	8b 04 85 60 9c 19 08 	mov    0x8199c60(,%eax,4),%eax
 804bab7:	8a 04 10             	mov    (%eax,%edx,1),%al
 804baba:	a2 eb e6 1f 08       	mov    %al,0x81fe6eb
 804babf:	a1 e8 e6 1f 08       	mov    0x81fe6e8,%eax
 804bac4:	a3 48 57 05 08       	mov    %eax,0x8055748
 804bac9:	c7 05 70 e8 5f 08 f6 	movl   $0xcc0000f6,0x85fe870
 804bad0:	00 00 cc 
 804bad3:	a1 24 e8 3f 08       	mov    0x83fe824,%eax
 804bad8:	8b 80 98 ff df ff    	mov    -0x200068(%eax),%eax
 804bade:	8b 80 98 ff df ff    	mov    -0x200068(%eax),%eax
 804bae4:	8b 80 98 ff df ff    	mov    -0x200068(%eax),%eax
 804baea:	8b 80 98 ff df ff    	mov    -0x200068(%eax),%eax
 804baf0:	8b 80 98 ff df ff    	mov    -0x200068(%eax),%eax
 804baf6:	8b 80 98 ff df ff    	mov    -0x200068(%eax),%eax
 804bafc:	8b 80 98 ff df ff    	mov    -0x200068(%eax),%eax
 804bb02:	8b 80 98 ff df ff    	mov    -0x200068(%eax),%eax
 804bb08:	8b 80 98 ff df ff    	mov    -0x200068(%eax),%eax
 804bb0e:	8b 80 98 ff df ff    	mov    -0x200068(%eax),%eax
 804bb14:	8b 80 98 ff df ff    	mov    -0x200068(%eax),%eax
 804bb1a:	8b 80 98 ff df ff    	mov    -0x200068(%eax),%eax
 804bb20:	8b 80 98 ff df ff    	mov    -0x200068(%eax),%eax
 804bb26:	8b 80 98 ff df ff    	mov    -0x200068(%eax),%eax
 804bb2c:	8b 80 98 ff df ff    	mov    -0x200068(%eax),%eax
 804bb32:	8b 80 98 ff df ff    	mov    -0x200068(%eax),%eax
 804bb38:	8b 80 98 ff df ff    	mov    -0x200068(%eax),%eax
 804bb3e:	8b 80 98 ff df ff    	mov    -0x200068(%eax),%eax
 804bb44:	8b 80 98 ff df ff    	mov    -0x200068(%eax),%eax
 804bb4a:	8b 80 98 ff df ff    	mov    -0x200068(%eax),%eax
 804bb50:	8b 80 98 ff df ff    	mov    -0x200068(%eax),%eax
 804bb56:	8b 80 98 ff df ff    	mov    -0x200068(%eax),%eax
 804bb5c:	8b 80 98 ff df ff    	mov    -0x200068(%eax),%eax
 804bb62:	8b 80 98 ff df ff    	mov    -0x200068(%eax),%eax
 804bb68:	8b 80 98 ff df ff    	mov    -0x200068(%eax),%eax
 804bb6e:	8b 80 98 ff df ff    	mov    -0x200068(%eax),%eax
 804bb74:	8b 80 98 ff df ff    	mov    -0x200068(%eax),%eax
 804bb7a:	8b 80 98 ff df ff    	mov    -0x200068(%eax),%eax
 804bb80:	8b 80 98 ff df ff    	mov    -0x200068(%eax),%eax
 804bb86:	8b 80 98 ff df ff    	mov    -0x200068(%eax),%eax
 804bb8c:	8b 80 98 ff df ff    	mov    -0x200068(%eax),%eax
 804bb92:	a3 44 57 05 08       	mov    %eax,0x8055744
 804bb97:	c7 05 70 e8 5f 08 f7 	movl   $0xcc0000f7,0x85fe870
 804bb9e:	00 00 cc 
 804bba1:	a1 44 57 05 08       	mov    0x8055744,%eax
 804bba6:	8b 15 48 e8 3f 08    	mov    0x83fe848,%edx
 804bbac:	c7 05 70 e8 5f 08 f8 	movl   $0xcc0000f8,0x85fe870
 804bbb3:	00 00 cc 
 804bbb6:	a3 64 e8 3f 08       	mov    %eax,0x83fe864
 804bbbb:	8b 04 95 60 e8 3f 08 	mov    0x83fe860(,%edx,4),%eax
 804bbc2:	ba 00 00 00 00       	mov    $0x0,%edx
 804bbc7:	8a 10                	mov    (%eax),%dl
 804bbc9:	89 15 40 57 05 08    	mov    %edx,0x8055740
 804bbcf:	c7 05 70 e8 5f 08 f9 	movl   $0xcc0000f9,0x85fe870
 804bbd6:	00 00 cc 
 804bbd9:	ba 00 00 00 00       	mov    $0x0,%edx
 804bbde:	8a 15 40 57 05 08    	mov    0x8055740,%dl
 804bbe4:	8b 14 95 60 e2 1f 08 	mov    0x81fe260(,%edx,4),%edx
 804bbeb:	89 15 44 57 05 08    	mov    %edx,0x8055744
 804bbf1:	c7 05 70 e8 5f 08 fa 	movl   $0xcc0000fa,0x85fe870
 804bbf8:	00 00 cc 
 804bbfb:	a1 24 e8 3f 08       	mov    0x83fe824,%eax
 804bc00:	8b 80 98 ff df ff    	mov    -0x200068(%eax),%eax
 804bc06:	8b 80 98 ff df ff    	mov    -0x200068(%eax),%eax
 804bc0c:	8b 80 98 ff df ff    	mov    -0x200068(%eax),%eax
 804bc12:	8b 80 98 ff df ff    	mov    -0x200068(%eax),%eax
 804bc18:	8b 80 98 ff df ff    	mov    -0x200068(%eax),%eax
 804bc1e:	8b 80 98 ff df ff    	mov    -0x200068(%eax),%eax
 804bc24:	8b 80 98 ff df ff    	mov    -0x200068(%eax),%eax
 804bc2a:	8b 80 98 ff df ff    	mov    -0x200068(%eax),%eax
 804bc30:	8b 80 98 ff df ff    	mov    -0x200068(%eax),%eax
 804bc36:	8b 80 98 ff df ff    	mov    -0x200068(%eax),%eax
 804bc3c:	8b 80 98 ff df ff    	mov    -0x200068(%eax),%eax
 804bc42:	8b 80 98 ff df ff    	mov    -0x200068(%eax),%eax
 804bc48:	8b 80 98 ff df ff    	mov    -0x200068(%eax),%eax
 804bc4e:	8b 80 98 ff df ff    	mov    -0x200068(%eax),%eax
 804bc54:	8b 80 98 ff df ff    	mov    -0x200068(%eax),%eax
 804bc5a:	8b 80 98 ff df ff    	mov    -0x200068(%eax),%eax
 804bc60:	8b 80 98 ff df ff    	mov    -0x200068(%eax),%eax
 804bc66:	8b 80 98 ff df ff    	mov    -0x200068(%eax),%eax
 804bc6c:	8b 80 98 ff df ff    	mov    -0x200068(%eax),%eax
 804bc72:	8b 80 98 ff df ff    	mov    -0x200068(%eax),%eax
 804bc78:	8b 80 98 ff df ff    	mov    -0x200068(%eax),%eax
 804bc7e:	8b 80 98 ff df ff    	mov    -0x200068(%eax),%eax
 804bc84:	8b 80 98 ff df ff    	mov    -0x200068(%eax),%eax
 804bc8a:	8b 80 98 ff df ff    	mov    -0x200068(%eax),%eax
 804bc90:	8b 80 98 ff df ff    	mov    -0x200068(%eax),%eax
 804bc96:	8b 80 98 ff df ff    	mov    -0x200068(%eax),%eax
 804bc9c:	8b 80 98 ff df ff    	mov    -0x200068(%eax),%eax
 804bca2:	8b 80 98 ff df ff    	mov    -0x200068(%eax),%eax
 804bca8:	8b 80 98 ff df ff    	mov    -0x200068(%eax),%eax
 804bcae:	8b 80 98 ff df ff    	mov    -0x200068(%eax),%eax
 804bcb4:	8b 80 98 ff df ff    	mov    -0x200068(%eax),%eax
 804bcba:	8b 80 98 ff df ff    	mov    -0x200068(%eax),%eax
 804bcc0:	8b 80 98 ff df ff    	mov    -0x200068(%eax),%eax
 804bcc6:	a3 40 57 05 08       	mov    %eax,0x8055740
 804bccb:	c7 05 70 e8 5f 08 fb 	movl   $0xcc0000fb,0x85fe870
 804bcd2:	00 00 cc 
 804bcd5:	a1 40 57 05 08       	mov    0x8055740,%eax
 804bcda:	8b 15 48 e8 3f 08    	mov    0x83fe848,%edx
 804bce0:	c7 05 70 e8 5f 08 fc 	movl   $0xcc0000fc,0x85fe870
 804bce7:	00 00 cc 
 804bcea:	a3 64 e8 3f 08       	mov    %eax,0x83fe864
 804bcef:	8b 04 95 60 e8 3f 08 	mov    0x83fe860(,%edx,4),%eax
 804bcf6:	8b 00                	mov    (%eax),%eax
 804bcf8:	a3 40 57 05 08       	mov    %eax,0x8055740
 804bcfd:	c7 05 70 e8 5f 08 fd 	movl   $0xcc0000fd,0x85fe870
 804bd04:	00 00 cc 
 804bd07:	a1 44 57 05 08       	mov    0x8055744,%eax
 804bd0c:	8b 15 40 57 05 08    	mov    0x8055740,%edx
 804bd12:	c7 05 70 e8 5f 08 fe 	movl   $0xcc0000fe,0x85fe870
 804bd19:	00 00 cc 
 804bd1c:	a3 e0 e6 1f 08       	mov    %eax,0x81fe6e0
 804bd21:	89 15 e4 e6 1f 08    	mov    %edx,0x81fe6e4
 804bd27:	c7 05 70 e8 5f 08 ff 	movl   $0xcc0000ff,0x85fe870
 804bd2e:	00 00 cc 
 804bd31:	b8 00 00 00 00       	mov    $0x0,%eax
 804bd36:	b9 00 00 00 00       	mov    $0x0,%ecx
 804bd3b:	c7 05 f0 e6 1f 08 01 	movl   $0x1,0x81fe6f0
 804bd42:	00 00 00 
 804bd45:	c7 05 70 e8 5f 08 00 	movl   $0xcc000100,0x85fe870
 804bd4c:	01 00 cc 
 804bd4f:	66 a1 e0 e6 1f 08    	mov    0x81fe6e0,%ax
 804bd55:	66 8b 0d e4 e6 1f 08 	mov    0x81fe6e4,%cx
 804bd5c:	66 8b 0c 4d 40 97 16 	mov    0x8169740(,%ecx,2),%cx
 804bd63:	08 
 804bd64:	8b 14 85 20 96 06 08 	mov    0x8069620(,%eax,4),%edx
 804bd6b:	8b 14 8a             	mov    (%edx,%ecx,4),%edx
 804bd6e:	8b 14 95 20 96 06 08 	mov    0x8069620(,%edx,4),%edx
 804bd75:	8b 0d f0 e6 1f 08    	mov    0x81fe6f0,%ecx
 804bd7b:	8b 14 8a             	mov    (%edx,%ecx,4),%edx
 804bd7e:	66 89 15 e8 e6 1f 08 	mov    %dx,0x81fe6e8
 804bd85:	89 15 ee e6 1f 08    	mov    %edx,0x81fe6ee
 804bd8b:	c7 05 70 e8 5f 08 01 	movl   $0xcc000101,0x85fe870
 804bd92:	01 00 cc 
 804bd95:	66 a1 e2 e6 1f 08    	mov    0x81fe6e2,%ax
 804bd9b:	66 8b 0d e6 e6 1f 08 	mov    0x81fe6e6,%cx
 804bda2:	66 8b 0c 4d 40 97 16 	mov    0x8169740(,%ecx,2),%cx
 804bda9:	08 
 804bdaa:	8b 14 85 20 96 06 08 	mov    0x8069620(,%eax,4),%edx
 804bdb1:	8b 14 8a             	mov    (%edx,%ecx,4),%edx
 804bdb4:	8b 14 95 20 96 06 08 	mov    0x8069620(,%edx,4),%edx
 804bdbb:	8b 0d f0 e6 1f 08    	mov    0x81fe6f0,%ecx
 804bdc1:	8b 14 8a             	mov    (%edx,%ecx,4),%edx
 804bdc4:	66 89 15 ea e6 1f 08 	mov    %dx,0x81fe6ea
 804bdcb:	89 15 ee e6 1f 08    	mov    %edx,0x81fe6ee
 804bdd1:	a1 e8 e6 1f 08       	mov    0x81fe6e8,%eax
 804bdd6:	a3 44 57 05 08       	mov    %eax,0x8055744
 804bddb:	c7 05 40 57 05 08 74 	movl   $0x74,0x8055740
 804bde2:	00 00 00 
 804bde5:	c7 05 70 e8 5f 08 02 	movl   $0xcc000102,0x85fe870
 804bdec:	01 00 cc 
 804bdef:	a1 44 57 05 08       	mov    0x8055744,%eax
 804bdf4:	8b 15 40 57 05 08    	mov    0x8055740,%edx
 804bdfa:	c7 05 70 e8 5f 08 03 	movl   $0xcc000103,0x85fe870
 804be01:	01 00 cc 
 804be04:	a3 e0 e6 1f 08       	mov    %eax,0x81fe6e0
 804be09:	89 15 e4 e6 1f 08    	mov    %edx,0x81fe6e4
 804be0f:	c7 05 70 e8 5f 08 04 	movl   $0xcc000104,0x85fe870
 804be16:	01 00 cc 
 804be19:	c7 05 70 e8 5f 08 05 	movl   $0xcc000105,0x85fe870
 804be20:	01 00 cc 
 804be23:	b8 00 00 00 00       	mov    $0x0,%eax
 804be28:	ba 00 00 00 00       	mov    $0x0,%edx
 804be2d:	a0 e0 e6 1f 08       	mov    0x81fe6e0,%al
 804be32:	8a 15 e4 e6 1f 08    	mov    0x81fe6e4,%dl
 804be38:	8b 04 85 70 a1 1a 08 	mov    0x81aa170(,%eax,4),%eax
 804be3f:	8a 04 10             	mov    (%eax,%edx,1),%al
 804be42:	a2 e8 e6 1f 08       	mov    %al,0x81fe6e8
 804be47:	c7 05 70 e8 5f 08 06 	movl   $0xcc000106,0x85fe870
 804be4e:	01 00 cc 
 804be51:	b8 00 00 00 00       	mov    $0x0,%eax
 804be56:	ba 00 00 00 00       	mov    $0x0,%edx
 804be5b:	a0 e1 e6 1f 08       	mov    0x81fe6e1,%al
 804be60:	8a 15 e5 e6 1f 08    	mov    0x81fe6e5,%dl
 804be66:	8b 04 85 70 a1 1a 08 	mov    0x81aa170(,%eax,4),%eax
 804be6d:	8a 04 10             	mov    (%eax,%edx,1),%al
 804be70:	a2 e9 e6 1f 08       	mov    %al,0x81fe6e9
 804be75:	c7 05 70 e8 5f 08 07 	movl   $0xcc000107,0x85fe870
 804be7c:	01 00 cc 
 804be7f:	b8 00 00 00 00       	mov    $0x0,%eax
 804be84:	ba 00 00 00 00       	mov    $0x0,%edx
 804be89:	a0 e2 e6 1f 08       	mov    0x81fe6e2,%al
 804be8e:	8a 15 e6 e6 1f 08    	mov    0x81fe6e6,%dl
 804be94:	8b 04 85 70 a1 1a 08 	mov    0x81aa170(,%eax,4),%eax
 804be9b:	8a 04 10             	mov    (%eax,%edx,1),%al
 804be9e:	a2 ea e6 1f 08       	mov    %al,0x81fe6ea
 804bea3:	c7 05 70 e8 5f 08 08 	movl   $0xcc000108,0x85fe870
 804beaa:	01 00 cc 
 804bead:	b8 00 00 00 00       	mov    $0x0,%eax
 804beb2:	ba 00 00 00 00       	mov    $0x0,%edx
 804beb7:	a0 e3 e6 1f 08       	mov    0x81fe6e3,%al
 804bebc:	8a 15 e7 e6 1f 08    	mov    0x81fe6e7,%dl
 804bec2:	8b 04 85 70 a1 1a 08 	mov    0x81aa170(,%eax,4),%eax
 804bec9:	8a 04 10             	mov    (%eax,%edx,1),%al
 804becc:	a2 eb e6 1f 08       	mov    %al,0x81fe6eb
 804bed1:	a1 e8 e6 1f 08       	mov    0x81fe6e8,%eax
 804bed6:	a3 44 57 05 08       	mov    %eax,0x8055744
 804bedb:	c7 05 70 e8 5f 08 09 	movl   $0xcc000109,0x85fe870
 804bee2:	01 00 cc 
 804bee5:	a1 48 57 05 08       	mov    0x8055748,%eax
 804beea:	8b 15 44 57 05 08    	mov    0x8055744,%edx
 804bef0:	c7 05 70 e8 5f 08 0a 	movl   $0xcc00010a,0x85fe870
 804bef7:	01 00 cc 
 804befa:	a3 e0 e6 1f 08       	mov    %eax,0x81fe6e0
 804beff:	89 15 e4 e6 1f 08    	mov    %edx,0x81fe6e4
 804bf05:	c7 05 70 e8 5f 08 0b 	movl   $0xcc00010b,0x85fe870
 804bf0c:	01 00 cc 
 804bf0f:	c7 05 70 e8 5f 08 0c 	movl   $0xcc00010c,0x85fe870
 804bf16:	01 00 cc 
 804bf19:	b8 00 00 00 00       	mov    $0x0,%eax
 804bf1e:	ba 00 00 00 00       	mov    $0x0,%edx
 804bf23:	a0 e0 e6 1f 08       	mov    0x81fe6e0,%al
 804bf28:	8a 15 e4 e6 1f 08    	mov    0x81fe6e4,%dl
 804bf2e:	8b 04 85 60 9c 19 08 	mov    0x8199c60(,%eax,4),%eax
 804bf35:	8a 04 10             	mov    (%eax,%edx,1),%al
 804bf38:	a2 e8 e6 1f 08       	mov    %al,0x81fe6e8
 804bf3d:	c7 05 70 e8 5f 08 0d 	movl   $0xcc00010d,0x85fe870
 804bf44:	01 00 cc 
 804bf47:	b8 00 00 00 00       	mov    $0x0,%eax
 804bf4c:	ba 00 00 00 00       	mov    $0x0,%edx
 804bf51:	a0 e1 e6 1f 08       	mov    0x81fe6e1,%al
 804bf56:	8a 15 e5 e6 1f 08    	mov    0x81fe6e5,%dl
 804bf5c:	8b 04 85 60 9c 19 08 	mov    0x8199c60(,%eax,4),%eax
 804bf63:	8a 04 10             	mov    (%eax,%edx,1),%al
 804bf66:	a2 e9 e6 1f 08       	mov    %al,0x81fe6e9
 804bf6b:	c7 05 70 e8 5f 08 0e 	movl   $0xcc00010e,0x85fe870
 804bf72:	01 00 cc 
 804bf75:	b8 00 00 00 00       	mov    $0x0,%eax
 804bf7a:	ba 00 00 00 00       	mov    $0x0,%edx
 804bf7f:	a0 e2 e6 1f 08       	mov    0x81fe6e2,%al
 804bf84:	8a 15 e6 e6 1f 08    	mov    0x81fe6e6,%dl
 804bf8a:	8b 04 85 60 9c 19 08 	mov    0x8199c60(,%eax,4),%eax
 804bf91:	8a 04 10             	mov    (%eax,%edx,1),%al
 804bf94:	a2 ea e6 1f 08       	mov    %al,0x81fe6ea
 804bf99:	c7 05 70 e8 5f 08 0f 	movl   $0xcc00010f,0x85fe870
 804bfa0:	01 00 cc 
 804bfa3:	b8 00 00 00 00       	mov    $0x0,%eax
 804bfa8:	ba 00 00 00 00       	mov    $0x0,%edx
 804bfad:	a0 e3 e6 1f 08       	mov    0x81fe6e3,%al
 804bfb2:	8a 15 e7 e6 1f 08    	mov    0x81fe6e7,%dl
 804bfb8:	8b 04 85 60 9c 19 08 	mov    0x8199c60(,%eax,4),%eax
 804bfbf:	8a 04 10             	mov    (%eax,%edx,1),%al
 804bfc2:	a2 eb e6 1f 08       	mov    %al,0x81fe6eb
 804bfc7:	a1 e8 e6 1f 08       	mov    0x81fe6e8,%eax
 804bfcc:	a3 48 57 05 08       	mov    %eax,0x8055748
 804bfd1:	c7 05 70 e8 5f 08 10 	movl   $0xcc000110,0x85fe870
 804bfd8:	01 00 cc 
 804bfdb:	a1 24 e8 3f 08       	mov    0x83fe824,%eax
 804bfe0:	ba 85 ff ff ff       	mov    $0xffffff85,%edx
 804bfe5:	c7 05 70 e8 5f 08 11 	movl   $0xcc000111,0x85fe870
 804bfec:	01 00 cc 
 804bfef:	a3 e0 e6 1f 08       	mov    %eax,0x81fe6e0
 804bff4:	89 15 e4 e6 1f 08    	mov    %edx,0x81fe6e4
 804bffa:	c7 05 70 e8 5f 08 12 	movl   $0xcc000112,0x85fe870
 804c001:	01 00 cc 
 804c004:	b8 00 00 00 00       	mov    $0x0,%eax
 804c009:	b9 00 00 00 00       	mov    $0x0,%ecx
 804c00e:	c7 05 f0 e6 1f 08 00 	movl   $0x0,0x81fe6f0
 804c015:	00 00 00 
 804c018:	c7 05 70 e8 5f 08 13 	movl   $0xcc000113,0x85fe870
 804c01f:	01 00 cc 
 804c022:	66 a1 e0 e6 1f 08    	mov    0x81fe6e0,%ax
 804c028:	66 8b 0d e4 e6 1f 08 	mov    0x81fe6e4,%cx
 804c02f:	8b 14 85 20 96 06 08 	mov    0x8069620(,%eax,4),%edx
 804c036:	8b 14 8a             	mov    (%edx,%ecx,4),%edx
 804c039:	66 8b 0d f2 e6 1f 08 	mov    0x81fe6f2,%cx
 804c040:	8b 14 95 20 96 06 08 	mov    0x8069620(,%edx,4),%edx
 804c047:	8b 14 8a             	mov    (%edx,%ecx,4),%edx
 804c04a:	66 89 15 e8 e6 1f 08 	mov    %dx,0x81fe6e8
 804c051:	89 15 f0 e6 1f 08    	mov    %edx,0x81fe6f0
 804c057:	c7 05 70 e8 5f 08 14 	movl   $0xcc000114,0x85fe870
 804c05e:	01 00 cc 
 804c061:	66 a1 e2 e6 1f 08    	mov    0x81fe6e2,%ax
 804c067:	66 8b 0d e6 e6 1f 08 	mov    0x81fe6e6,%cx
 804c06e:	8b 14 85 20 96 06 08 	mov    0x8069620(,%eax,4),%edx
 804c075:	8b 14 8a             	mov    (%edx,%ecx,4),%edx
 804c078:	66 8b 0d f2 e6 1f 08 	mov    0x81fe6f2,%cx
 804c07f:	8b 14 95 20 96 06 08 	mov    0x8069620(,%edx,4),%edx
 804c086:	8b 14 8a             	mov    (%edx,%ecx,4),%edx
 804c089:	66 89 15 ea e6 1f 08 	mov    %dx,0x81fe6ea
 804c090:	89 15 f0 e6 1f 08    	mov    %edx,0x81fe6f0
 804c096:	a1 e8 e6 1f 08       	mov    0x81fe6e8,%eax
 804c09b:	a3 44 57 05 08       	mov    %eax,0x8055744
 804c0a0:	c7 05 70 e8 5f 08 15 	movl   $0xcc000115,0x85fe870
 804c0a7:	01 00 cc 
 804c0aa:	a1 44 57 05 08       	mov    0x8055744,%eax
 804c0af:	8b 15 48 e8 3f 08    	mov    0x83fe848,%edx
 804c0b5:	c7 05 70 e8 5f 08 16 	movl   $0xcc000116,0x85fe870
 804c0bc:	01 00 cc 
 804c0bf:	a3 64 e8 3f 08       	mov    %eax,0x83fe864
 804c0c4:	8b 04 95 60 e8 3f 08 	mov    0x83fe860(,%edx,4),%eax
 804c0cb:	ba 00 00 00 00       	mov    $0x0,%edx
 804c0d0:	8a 10                	mov    (%eax),%dl
 804c0d2:	89 15 40 57 05 08    	mov    %edx,0x8055740
 804c0d8:	c7 05 70 e8 5f 08 17 	movl   $0xcc000117,0x85fe870
 804c0df:	01 00 cc 
 804c0e2:	ba 00 00 00 00       	mov    $0x0,%edx
 804c0e7:	8a 15 40 57 05 08    	mov    0x8055740,%dl
 804c0ed:	8b 14 95 60 e2 1f 08 	mov    0x81fe260(,%edx,4),%edx
 804c0f4:	89 15 44 57 05 08    	mov    %edx,0x8055744
 804c0fa:	c7 05 70 e8 5f 08 18 	movl   $0xcc000118,0x85fe870
 804c101:	01 00 cc 
 804c104:	a1 24 e8 3f 08       	mov    0x83fe824,%eax
 804c109:	8b 80 98 ff df ff    	mov    -0x200068(%eax),%eax
 804c10f:	8b 80 98 ff df ff    	mov    -0x200068(%eax),%eax
 804c115:	8b 80 98 ff df ff    	mov    -0x200068(%eax),%eax
 804c11b:	8b 80 98 ff df ff    	mov    -0x200068(%eax),%eax
 804c121:	8b 80 98 ff df ff    	mov    -0x200068(%eax),%eax
 804c127:	8b 80 98 ff df ff    	mov    -0x200068(%eax),%eax
 804c12d:	8b 80 98 ff df ff    	mov    -0x200068(%eax),%eax
 804c133:	8b 80 98 ff df ff    	mov    -0x200068(%eax),%eax
 804c139:	8b 80 98 ff df ff    	mov    -0x200068(%eax),%eax
 804c13f:	8b 80 98 ff df ff    	mov    -0x200068(%eax),%eax
 804c145:	8b 80 98 ff df ff    	mov    -0x200068(%eax),%eax
 804c14b:	8b 80 98 ff df ff    	mov    -0x200068(%eax),%eax
 804c151:	8b 80 98 ff df ff    	mov    -0x200068(%eax),%eax
 804c157:	8b 80 98 ff df ff    	mov    -0x200068(%eax),%eax
 804c15d:	8b 80 98 ff df ff    	mov    -0x200068(%eax),%eax
 804c163:	8b 80 98 ff df ff    	mov    -0x200068(%eax),%eax
 804c169:	8b 80 98 ff df ff    	mov    -0x200068(%eax),%eax
 804c16f:	8b 80 98 ff df ff    	mov    -0x200068(%eax),%eax
 804c175:	8b 80 98 ff df ff    	mov    -0x200068(%eax),%eax
 804c17b:	8b 80 98 ff df ff    	mov    -0x200068(%eax),%eax
 804c181:	8b 80 98 ff df ff    	mov    -0x200068(%eax),%eax
 804c187:	8b 80 98 ff df ff    	mov    -0x200068(%eax),%eax
 804c18d:	8b 80 98 ff df ff    	mov    -0x200068(%eax),%eax
 804c193:	8b 80 98 ff df ff    	mov    -0x200068(%eax),%eax
 804c199:	8b 80 98 ff df ff    	mov    -0x200068(%eax),%eax
 804c19f:	8b 80 98 ff df ff    	mov    -0x200068(%eax),%eax
 804c1a5:	8b 80 98 ff df ff    	mov    -0x200068(%eax),%eax
 804c1ab:	8b 80 98 ff df ff    	mov    -0x200068(%eax),%eax
 804c1b1:	8b 80 98 ff df ff    	mov    -0x200068(%eax),%eax
 804c1b7:	8b 80 98 ff df ff    	mov    -0x200068(%eax),%eax
 804c1bd:	8b 80 98 ff df ff    	mov    -0x200068(%eax),%eax
 804c1c3:	8b 80 98 ff df ff    	mov    -0x200068(%eax),%eax
 804c1c9:	8b 80 98 ff df ff    	mov    -0x200068(%eax),%eax
 804c1cf:	a3 40 57 05 08       	mov    %eax,0x8055740
 804c1d4:	c7 05 70 e8 5f 08 19 	movl   $0xcc000119,0x85fe870
 804c1db:	01 00 cc 
 804c1de:	a1 40 57 05 08       	mov    0x8055740,%eax
 804c1e3:	8b 15 48 e8 3f 08    	mov    0x83fe848,%edx
 804c1e9:	c7 05 70 e8 5f 08 1a 	movl   $0xcc00011a,0x85fe870
 804c1f0:	01 00 cc 
 804c1f3:	a3 64 e8 3f 08       	mov    %eax,0x83fe864
 804c1f8:	8b 04 95 60 e8 3f 08 	mov    0x83fe860(,%edx,4),%eax
 804c1ff:	8b 00                	mov    (%eax),%eax
 804c201:	a3 40 57 05 08       	mov    %eax,0x8055740
 804c206:	c7 05 70 e8 5f 08 1b 	movl   $0xcc00011b,0x85fe870
 804c20d:	01 00 cc 
 804c210:	a1 44 57 05 08       	mov    0x8055744,%eax
 804c215:	8b 15 40 57 05 08    	mov    0x8055740,%edx
 804c21b:	c7 05 70 e8 5f 08 1c 	movl   $0xcc00011c,0x85fe870
 804c222:	01 00 cc 
 804c225:	a3 e0 e6 1f 08       	mov    %eax,0x81fe6e0
 804c22a:	89 15 e4 e6 1f 08    	mov    %edx,0x81fe6e4
 804c230:	c7 05 70 e8 5f 08 1d 	movl   $0xcc00011d,0x85fe870
 804c237:	01 00 cc 
 804c23a:	b8 00 00 00 00       	mov    $0x0,%eax
 804c23f:	b9 00 00 00 00       	mov    $0x0,%ecx
 804c244:	c7 05 f0 e6 1f 08 01 	movl   $0x1,0x81fe6f0
 804c24b:	00 00 00 
 804c24e:	c7 05 70 e8 5f 08 1e 	movl   $0xcc00011e,0x85fe870
 804c255:	01 00 cc 
 804c258:	66 a1 e0 e6 1f 08    	mov    0x81fe6e0,%ax
 804c25e:	66 8b 0d e4 e6 1f 08 	mov    0x81fe6e4,%cx
 804c265:	66 8b 0c 4d 40 97 16 	mov    0x8169740(,%ecx,2),%cx
 804c26c:	08 
 804c26d:	8b 14 85 20 96 06 08 	mov    0x8069620(,%eax,4),%edx
 804c274:	8b 14 8a             	mov    (%edx,%ecx,4),%edx
 804c277:	8b 14 95 20 96 06 08 	mov    0x8069620(,%edx,4),%edx
 804c27e:	8b 0d f0 e6 1f 08    	mov    0x81fe6f0,%ecx
 804c284:	8b 14 8a             	mov    (%edx,%ecx,4),%edx
 804c287:	66 89 15 e8 e6 1f 08 	mov    %dx,0x81fe6e8
 804c28e:	89 15 ee e6 1f 08    	mov    %edx,0x81fe6ee
 804c294:	c7 05 70 e8 5f 08 1f 	movl   $0xcc00011f,0x85fe870
 804c29b:	01 00 cc 
 804c29e:	66 a1 e2 e6 1f 08    	mov    0x81fe6e2,%ax
 804c2a4:	66 8b 0d e6 e6 1f 08 	mov    0x81fe6e6,%cx
 804c2ab:	66 8b 0c 4d 40 97 16 	mov    0x8169740(,%ecx,2),%cx
 804c2b2:	08 
 804c2b3:	8b 14 85 20 96 06 08 	mov    0x8069620(,%eax,4),%edx
 804c2ba:	8b 14 8a             	mov    (%edx,%ecx,4),%edx
 804c2bd:	8b 14 95 20 96 06 08 	mov    0x8069620(,%edx,4),%edx
 804c2c4:	8b 0d f0 e6 1f 08    	mov    0x81fe6f0,%ecx
 804c2ca:	8b 14 8a             	mov    (%edx,%ecx,4),%edx
 804c2cd:	66 89 15 ea e6 1f 08 	mov    %dx,0x81fe6ea
 804c2d4:	89 15 ee e6 1f 08    	mov    %edx,0x81fe6ee
 804c2da:	a1 e8 e6 1f 08       	mov    0x81fe6e8,%eax
 804c2df:	a3 44 57 05 08       	mov    %eax,0x8055744
 804c2e4:	c7 05 40 57 05 08 66 	movl   $0x66,0x8055740
 804c2eb:	00 00 00 
 804c2ee:	c7 05 70 e8 5f 08 20 	movl   $0xcc000120,0x85fe870
 804c2f5:	01 00 cc 
 804c2f8:	a1 44 57 05 08       	mov    0x8055744,%eax
 804c2fd:	8b 15 40 57 05 08    	mov    0x8055740,%edx
 804c303:	c7 05 70 e8 5f 08 21 	movl   $0xcc000121,0x85fe870
 804c30a:	01 00 cc 
 804c30d:	a3 e0 e6 1f 08       	mov    %eax,0x81fe6e0
 804c312:	89 15 e4 e6 1f 08    	mov    %edx,0x81fe6e4
 804c318:	c7 05 70 e8 5f 08 22 	movl   $0xcc000122,0x85fe870
 804c31f:	01 00 cc 
 804c322:	c7 05 70 e8 5f 08 23 	movl   $0xcc000123,0x85fe870
 804c329:	01 00 cc 
 804c32c:	b8 00 00 00 00       	mov    $0x0,%eax
 804c331:	ba 00 00 00 00       	mov    $0x0,%edx
 804c336:	a0 e0 e6 1f 08       	mov    0x81fe6e0,%al
 804c33b:	8a 15 e4 e6 1f 08    	mov    0x81fe6e4,%dl
 804c341:	8b 04 85 70 a1 1a 08 	mov    0x81aa170(,%eax,4),%eax
 804c348:	8a 04 10             	mov    (%eax,%edx,1),%al
 804c34b:	a2 e8 e6 1f 08       	mov    %al,0x81fe6e8
 804c350:	c7 05 70 e8 5f 08 24 	movl   $0xcc000124,0x85fe870
 804c357:	01 00 cc 
 804c35a:	b8 00 00 00 00       	mov    $0x0,%eax
 804c35f:	ba 00 00 00 00       	mov    $0x0,%edx
 804c364:	a0 e1 e6 1f 08       	mov    0x81fe6e1,%al
 804c369:	8a 15 e5 e6 1f 08    	mov    0x81fe6e5,%dl
 804c36f:	8b 04 85 70 a1 1a 08 	mov    0x81aa170(,%eax,4),%eax
 804c376:	8a 04 10             	mov    (%eax,%edx,1),%al
 804c379:	a2 e9 e6 1f 08       	mov    %al,0x81fe6e9
 804c37e:	c7 05 70 e8 5f 08 25 	movl   $0xcc000125,0x85fe870
 804c385:	01 00 cc 
 804c388:	b8 00 00 00 00       	mov    $0x0,%eax
 804c38d:	ba 00 00 00 00       	mov    $0x0,%edx
 804c392:	a0 e2 e6 1f 08       	mov    0x81fe6e2,%al
 804c397:	8a 15 e6 e6 1f 08    	mov    0x81fe6e6,%dl
 804c39d:	8b 04 85 70 a1 1a 08 	mov    0x81aa170(,%eax,4),%eax
 804c3a4:	8a 04 10             	mov    (%eax,%edx,1),%al
 804c3a7:	a2 ea e6 1f 08       	mov    %al,0x81fe6ea
 804c3ac:	c7 05 70 e8 5f 08 26 	movl   $0xcc000126,0x85fe870
 804c3b3:	01 00 cc 
 804c3b6:	b8 00 00 00 00       	mov    $0x0,%eax
 804c3bb:	ba 00 00 00 00       	mov    $0x0,%edx
 804c3c0:	a0 e3 e6 1f 08       	mov    0x81fe6e3,%al
 804c3c5:	8a 15 e7 e6 1f 08    	mov    0x81fe6e7,%dl
 804c3cb:	8b 04 85 70 a1 1a 08 	mov    0x81aa170(,%eax,4),%eax
 804c3d2:	8a 04 10             	mov    (%eax,%edx,1),%al
 804c3d5:	a2 eb e6 1f 08       	mov    %al,0x81fe6eb
 804c3da:	a1 e8 e6 1f 08       	mov    0x81fe6e8,%eax
 804c3df:	a3 44 57 05 08       	mov    %eax,0x8055744
 804c3e4:	c7 05 70 e8 5f 08 27 	movl   $0xcc000127,0x85fe870
 804c3eb:	01 00 cc 
 804c3ee:	a1 48 57 05 08       	mov    0x8055748,%eax
 804c3f3:	8b 15 44 57 05 08    	mov    0x8055744,%edx
 804c3f9:	c7 05 70 e8 5f 08 28 	movl   $0xcc000128,0x85fe870
 804c400:	01 00 cc 
 804c403:	a3 e0 e6 1f 08       	mov    %eax,0x81fe6e0
 804c408:	89 15 e4 e6 1f 08    	mov    %edx,0x81fe6e4
 804c40e:	c7 05 70 e8 5f 08 29 	movl   $0xcc000129,0x85fe870
 804c415:	01 00 cc 
 804c418:	c7 05 70 e8 5f 08 2a 	movl   $0xcc00012a,0x85fe870
 804c41f:	01 00 cc 
 804c422:	b8 00 00 00 00       	mov    $0x0,%eax
 804c427:	ba 00 00 00 00       	mov    $0x0,%edx
 804c42c:	a0 e0 e6 1f 08       	mov    0x81fe6e0,%al
 804c431:	8a 15 e4 e6 1f 08    	mov    0x81fe6e4,%dl
 804c437:	8b 04 85 60 9c 19 08 	mov    0x8199c60(,%eax,4),%eax
 804c43e:	8a 04 10             	mov    (%eax,%edx,1),%al
 804c441:	a2 e8 e6 1f 08       	mov    %al,0x81fe6e8
 804c446:	c7 05 70 e8 5f 08 2b 	movl   $0xcc00012b,0x85fe870
 804c44d:	01 00 cc 
 804c450:	b8 00 00 00 00       	mov    $0x0,%eax
 804c455:	ba 00 00 00 00       	mov    $0x0,%edx
 804c45a:	a0 e1 e6 1f 08       	mov    0x81fe6e1,%al
 804c45f:	8a 15 e5 e6 1f 08    	mov    0x81fe6e5,%dl
 804c465:	8b 04 85 60 9c 19 08 	mov    0x8199c60(,%eax,4),%eax
 804c46c:	8a 04 10             	mov    (%eax,%edx,1),%al
 804c46f:	a2 e9 e6 1f 08       	mov    %al,0x81fe6e9
 804c474:	c7 05 70 e8 5f 08 2c 	movl   $0xcc00012c,0x85fe870
 804c47b:	01 00 cc 
 804c47e:	b8 00 00 00 00       	mov    $0x0,%eax
 804c483:	ba 00 00 00 00       	mov    $0x0,%edx
 804c488:	a0 e2 e6 1f 08       	mov    0x81fe6e2,%al
 804c48d:	8a 15 e6 e6 1f 08    	mov    0x81fe6e6,%dl
 804c493:	8b 04 85 60 9c 19 08 	mov    0x8199c60(,%eax,4),%eax
 804c49a:	8a 04 10             	mov    (%eax,%edx,1),%al
 804c49d:	a2 ea e6 1f 08       	mov    %al,0x81fe6ea
 804c4a2:	c7 05 70 e8 5f 08 2d 	movl   $0xcc00012d,0x85fe870
 804c4a9:	01 00 cc 
 804c4ac:	b8 00 00 00 00       	mov    $0x0,%eax
 804c4b1:	ba 00 00 00 00       	mov    $0x0,%edx
 804c4b6:	a0 e3 e6 1f 08       	mov    0x81fe6e3,%al
 804c4bb:	8a 15 e7 e6 1f 08    	mov    0x81fe6e7,%dl
 804c4c1:	8b 04 85 60 9c 19 08 	mov    0x8199c60(,%eax,4),%eax
 804c4c8:	8a 04 10             	mov    (%eax,%edx,1),%al
 804c4cb:	a2 eb e6 1f 08       	mov    %al,0x81fe6eb
 804c4d0:	a1 e8 e6 1f 08       	mov    0x81fe6e8,%eax
 804c4d5:	a3 48 57 05 08       	mov    %eax,0x8055748
 804c4da:	c7 05 70 e8 5f 08 2e 	movl   $0xcc00012e,0x85fe870
 804c4e1:	01 00 cc 
 804c4e4:	a1 24 e8 3f 08       	mov    0x83fe824,%eax
 804c4e9:	ba 86 ff ff ff       	mov    $0xffffff86,%edx
 804c4ee:	c7 05 70 e8 5f 08 2f 	movl   $0xcc00012f,0x85fe870
 804c4f5:	01 00 cc 
 804c4f8:	a3 e0 e6 1f 08       	mov    %eax,0x81fe6e0
 804c4fd:	89 15 e4 e6 1f 08    	mov    %edx,0x81fe6e4
 804c503:	c7 05 70 e8 5f 08 30 	movl   $0xcc000130,0x85fe870
 804c50a:	01 00 cc 
 804c50d:	b8 00 00 00 00       	mov    $0x0,%eax
 804c512:	b9 00 00 00 00       	mov    $0x0,%ecx
 804c517:	c7 05 f0 e6 1f 08 00 	movl   $0x0,0x81fe6f0
 804c51e:	00 00 00 
 804c521:	c7 05 70 e8 5f 08 31 	movl   $0xcc000131,0x85fe870
 804c528:	01 00 cc 
 804c52b:	66 a1 e0 e6 1f 08    	mov    0x81fe6e0,%ax
 804c531:	66 8b 0d e4 e6 1f 08 	mov    0x81fe6e4,%cx
 804c538:	8b 14 85 20 96 06 08 	mov    0x8069620(,%eax,4),%edx
 804c53f:	8b 14 8a             	mov    (%edx,%ecx,4),%edx
 804c542:	66 8b 0d f2 e6 1f 08 	mov    0x81fe6f2,%cx
 804c549:	8b 14 95 20 96 06 08 	mov    0x8069620(,%edx,4),%edx
 804c550:	8b 14 8a             	mov    (%edx,%ecx,4),%edx
 804c553:	66 89 15 e8 e6 1f 08 	mov    %dx,0x81fe6e8
 804c55a:	89 15 f0 e6 1f 08    	mov    %edx,0x81fe6f0
 804c560:	c7 05 70 e8 5f 08 32 	movl   $0xcc000132,0x85fe870
 804c567:	01 00 cc 
 804c56a:	66 a1 e2 e6 1f 08    	mov    0x81fe6e2,%ax
 804c570:	66 8b 0d e6 e6 1f 08 	mov    0x81fe6e6,%cx
 804c577:	8b 14 85 20 96 06 08 	mov    0x8069620(,%eax,4),%edx
 804c57e:	8b 14 8a             	mov    (%edx,%ecx,4),%edx
 804c581:	66 8b 0d f2 e6 1f 08 	mov    0x81fe6f2,%cx
 804c588:	8b 14 95 20 96 06 08 	mov    0x8069620(,%edx,4),%edx
 804c58f:	8b 14 8a             	mov    (%edx,%ecx,4),%edx
 804c592:	66 89 15 ea e6 1f 08 	mov    %dx,0x81fe6ea
 804c599:	89 15 f0 e6 1f 08    	mov    %edx,0x81fe6f0
 804c59f:	a1 e8 e6 1f 08       	mov    0x81fe6e8,%eax
 804c5a4:	a3 44 57 05 08       	mov    %eax,0x8055744
 804c5a9:	c7 05 70 e8 5f 08 33 	movl   $0xcc000133,0x85fe870
 804c5b0:	01 00 cc 
 804c5b3:	a1 44 57 05 08       	mov    0x8055744,%eax
 804c5b8:	8b 15 48 e8 3f 08    	mov    0x83fe848,%edx
 804c5be:	c7 05 70 e8 5f 08 34 	movl   $0xcc000134,0x85fe870
 804c5c5:	01 00 cc 
 804c5c8:	a3 64 e8 3f 08       	mov    %eax,0x83fe864
 804c5cd:	8b 04 95 60 e8 3f 08 	mov    0x83fe860(,%edx,4),%eax
 804c5d4:	ba 00 00 00 00       	mov    $0x0,%edx
 804c5d9:	8a 10                	mov    (%eax),%dl
 804c5db:	89 15 40 57 05 08    	mov    %edx,0x8055740
 804c5e1:	c7 05 70 e8 5f 08 35 	movl   $0xcc000135,0x85fe870
 804c5e8:	01 00 cc 
 804c5eb:	ba 00 00 00 00       	mov    $0x0,%edx
 804c5f0:	8a 15 40 57 05 08    	mov    0x8055740,%dl
 804c5f6:	8b 14 95 60 e2 1f 08 	mov    0x81fe260(,%edx,4),%edx
 804c5fd:	89 15 44 57 05 08    	mov    %edx,0x8055744
 804c603:	c7 05 70 e8 5f 08 36 	movl   $0xcc000136,0x85fe870
 804c60a:	01 00 cc 
 804c60d:	a1 44 57 05 08       	mov    0x8055744,%eax
 804c612:	8b 15 4c 57 05 08    	mov    0x805574c,%edx
 804c618:	c7 05 70 e8 5f 08 37 	movl   $0xcc000137,0x85fe870
 804c61f:	01 00 cc 
 804c622:	a3 e0 e6 1f 08       	mov    %eax,0x81fe6e0
 804c627:	89 15 e4 e6 1f 08    	mov    %edx,0x81fe6e4
 804c62d:	c7 05 70 e8 5f 08 38 	movl   $0xcc000138,0x85fe870
 804c634:	01 00 cc 
 804c637:	b8 00 00 00 00       	mov    $0x0,%eax
 804c63c:	b9 00 00 00 00       	mov    $0x0,%ecx
 804c641:	c7 05 f0 e6 1f 08 00 	movl   $0x0,0x81fe6f0
 804c648:	00 00 00 
 804c64b:	c7 05 70 e8 5f 08 39 	movl   $0xcc000139,0x85fe870
 804c652:	01 00 cc 
 804c655:	66 a1 e0 e6 1f 08    	mov    0x81fe6e0,%ax
 804c65b:	66 8b 0d e4 e6 1f 08 	mov    0x81fe6e4,%cx
 804c662:	8b 14 85 20 96 06 08 	mov    0x8069620(,%eax,4),%edx
 804c669:	8b 14 8a             	mov    (%edx,%ecx,4),%edx
 804c66c:	66 8b 0d f2 e6 1f 08 	mov    0x81fe6f2,%cx
 804c673:	8b 14 95 20 96 06 08 	mov    0x8069620(,%edx,4),%edx
 804c67a:	8b 14 8a             	mov    (%edx,%ecx,4),%edx
 804c67d:	66 89 15 e8 e6 1f 08 	mov    %dx,0x81fe6e8
 804c684:	89 15 f0 e6 1f 08    	mov    %edx,0x81fe6f0
 804c68a:	c7 05 70 e8 5f 08 3a 	movl   $0xcc00013a,0x85fe870
 804c691:	01 00 cc 
 804c694:	66 a1 e2 e6 1f 08    	mov    0x81fe6e2,%ax
 804c69a:	66 8b 0d e6 e6 1f 08 	mov    0x81fe6e6,%cx
 804c6a1:	8b 14 85 20 96 06 08 	mov    0x8069620(,%eax,4),%edx
 804c6a8:	8b 14 8a             	mov    (%edx,%ecx,4),%edx
 804c6ab:	66 8b 0d f2 e6 1f 08 	mov    0x81fe6f2,%cx
 804c6b2:	8b 14 95 20 96 06 08 	mov    0x8069620(,%edx,4),%edx
 804c6b9:	8b 14 8a             	mov    (%edx,%ecx,4),%edx
 804c6bc:	66 89 15 ea e6 1f 08 	mov    %dx,0x81fe6ea
 804c6c3:	89 15 f0 e6 1f 08    	mov    %edx,0x81fe6f0
 804c6c9:	a1 e8 e6 1f 08       	mov    0x81fe6e8,%eax
 804c6ce:	a3 44 57 05 08       	mov    %eax,0x8055744
 804c6d3:	c7 05 70 e8 5f 08 3b 	movl   $0xcc00013b,0x85fe870
 804c6da:	01 00 cc 
 804c6dd:	a1 24 e8 3f 08       	mov    0x83fe824,%eax
 804c6e2:	8b 80 98 ff df ff    	mov    -0x200068(%eax),%eax
 804c6e8:	8b 80 98 ff df ff    	mov    -0x200068(%eax),%eax
 804c6ee:	8b 80 98 ff df ff    	mov    -0x200068(%eax),%eax
 804c6f4:	8b 80 98 ff df ff    	mov    -0x200068(%eax),%eax
 804c6fa:	8b 80 98 ff df ff    	mov    -0x200068(%eax),%eax
 804c700:	8b 80 98 ff df ff    	mov    -0x200068(%eax),%eax
 804c706:	8b 80 98 ff df ff    	mov    -0x200068(%eax),%eax
 804c70c:	8b 80 98 ff df ff    	mov    -0x200068(%eax),%eax
 804c712:	8b 80 98 ff df ff    	mov    -0x200068(%eax),%eax
 804c718:	8b 80 98 ff df ff    	mov    -0x200068(%eax),%eax
 804c71e:	8b 80 98 ff df ff    	mov    -0x200068(%eax),%eax
 804c724:	8b 80 98 ff df ff    	mov    -0x200068(%eax),%eax
 804c72a:	8b 80 98 ff df ff    	mov    -0x200068(%eax),%eax
 804c730:	8b 80 98 ff df ff    	mov    -0x200068(%eax),%eax
 804c736:	8b 80 98 ff df ff    	mov    -0x200068(%eax),%eax
 804c73c:	8b 80 98 ff df ff    	mov    -0x200068(%eax),%eax
 804c742:	8b 80 98 ff df ff    	mov    -0x200068(%eax),%eax
 804c748:	8b 80 98 ff df ff    	mov    -0x200068(%eax),%eax
 804c74e:	8b 80 98 ff df ff    	mov    -0x200068(%eax),%eax
 804c754:	8b 80 98 ff df ff    	mov    -0x200068(%eax),%eax
 804c75a:	8b 80 98 ff df ff    	mov    -0x200068(%eax),%eax
 804c760:	8b 80 98 ff df ff    	mov    -0x200068(%eax),%eax
 804c766:	8b 80 98 ff df ff    	mov    -0x200068(%eax),%eax
 804c76c:	8b 80 98 ff df ff    	mov    -0x200068(%eax),%eax
 804c772:	8b 80 98 ff df ff    	mov    -0x200068(%eax),%eax
 804c778:	8b 80 98 ff df ff    	mov    -0x200068(%eax),%eax
 804c77e:	8b 80 98 ff df ff    	mov    -0x200068(%eax),%eax
 804c784:	8b 80 98 ff df ff    	mov    -0x200068(%eax),%eax
 804c78a:	8b 80 98 ff df ff    	mov    -0x200068(%eax),%eax
 804c790:	8b 80 98 ff df ff    	mov    -0x200068(%eax),%eax
 804c796:	8b 80 98 ff df ff    	mov    -0x200068(%eax),%eax
 804c79c:	8b 80 98 ff df ff    	mov    -0x200068(%eax),%eax
 804c7a2:	8b 80 98 ff df ff    	mov    -0x200068(%eax),%eax
 804c7a8:	8b 80 98 ff df ff    	mov    -0x200068(%eax),%eax
 804c7ae:	8b 80 98 ff df ff    	mov    -0x200068(%eax),%eax
 804c7b4:	8b 80 98 ff df ff    	mov    -0x200068(%eax),%eax
 804c7ba:	8b 80 98 ff df ff    	mov    -0x200068(%eax),%eax
 804c7c0:	8b 80 98 ff df ff    	mov    -0x200068(%eax),%eax
 804c7c6:	8b 80 98 ff df ff    	mov    -0x200068(%eax),%eax
 804c7cc:	8b 80 98 ff df ff    	mov    -0x200068(%eax),%eax
 804c7d2:	a3 40 57 05 08       	mov    %eax,0x8055740
 804c7d7:	c7 05 70 e8 5f 08 3c 	movl   $0xcc00013c,0x85fe870
 804c7de:	01 00 cc 
 804c7e1:	a1 40 57 05 08       	mov    0x8055740,%eax
 804c7e6:	8b 15 48 e8 3f 08    	mov    0x83fe848,%edx
 804c7ec:	c7 05 70 e8 5f 08 3d 	movl   $0xcc00013d,0x85fe870
 804c7f3:	01 00 cc 
 804c7f6:	a3 64 e8 3f 08       	mov    %eax,0x83fe864
 804c7fb:	8b 04 95 60 e8 3f 08 	mov    0x83fe860(,%edx,4),%eax
 804c802:	8b 00                	mov    (%eax),%eax
 804c804:	a3 40 57 05 08       	mov    %eax,0x8055740
 804c809:	c7 05 70 e8 5f 08 3e 	movl   $0xcc00013e,0x85fe870
 804c810:	01 00 cc 
 804c813:	a1 44 57 05 08       	mov    0x8055744,%eax
 804c818:	8b 15 40 57 05 08    	mov    0x8055740,%edx
 804c81e:	c7 05 70 e8 5f 08 3f 	movl   $0xcc00013f,0x85fe870
 804c825:	01 00 cc 
 804c828:	a3 e0 e6 1f 08       	mov    %eax,0x81fe6e0
 804c82d:	89 15 e4 e6 1f 08    	mov    %edx,0x81fe6e4
 804c833:	c7 05 70 e8 5f 08 40 	movl   $0xcc000140,0x85fe870
 804c83a:	01 00 cc 
 804c83d:	b8 00 00 00 00       	mov    $0x0,%eax
 804c842:	b9 00 00 00 00       	mov    $0x0,%ecx
 804c847:	c7 05 f0 e6 1f 08 01 	movl   $0x1,0x81fe6f0
 804c84e:	00 00 00 
 804c851:	c7 05 70 e8 5f 08 41 	movl   $0xcc000141,0x85fe870
 804c858:	01 00 cc 
 804c85b:	66 a1 e0 e6 1f 08    	mov    0x81fe6e0,%ax
 804c861:	66 8b 0d e4 e6 1f 08 	mov    0x81fe6e4,%cx
 804c868:	66 8b 0c 4d 40 97 16 	mov    0x8169740(,%ecx,2),%cx
 804c86f:	08 
 804c870:	8b 14 85 20 96 06 08 	mov    0x8069620(,%eax,4),%edx
 804c877:	8b 14 8a             	mov    (%edx,%ecx,4),%edx
 804c87a:	8b 14 95 20 96 06 08 	mov    0x8069620(,%edx,4),%edx
 804c881:	8b 0d f0 e6 1f 08    	mov    0x81fe6f0,%ecx
 804c887:	8b 14 8a             	mov    (%edx,%ecx,4),%edx
 804c88a:	66 89 15 e8 e6 1f 08 	mov    %dx,0x81fe6e8
 804c891:	89 15 ee e6 1f 08    	mov    %edx,0x81fe6ee
 804c897:	c7 05 70 e8 5f 08 42 	movl   $0xcc000142,0x85fe870
 804c89e:	01 00 cc 
 804c8a1:	66 a1 e2 e6 1f 08    	mov    0x81fe6e2,%ax
 804c8a7:	66 8b 0d e6 e6 1f 08 	mov    0x81fe6e6,%cx
 804c8ae:	66 8b 0c 4d 40 97 16 	mov    0x8169740(,%ecx,2),%cx
 804c8b5:	08 
 804c8b6:	8b 14 85 20 96 06 08 	mov    0x8069620(,%eax,4),%edx
 804c8bd:	8b 14 8a             	mov    (%edx,%ecx,4),%edx
 804c8c0:	8b 14 95 20 96 06 08 	mov    0x8069620(,%edx,4),%edx
 804c8c7:	8b 0d f0 e6 1f 08    	mov    0x81fe6f0,%ecx
 804c8cd:	8b 14 8a             	mov    (%edx,%ecx,4),%edx
 804c8d0:	66 89 15 ea e6 1f 08 	mov    %dx,0x81fe6ea
 804c8d7:	89 15 ee e6 1f 08    	mov    %edx,0x81fe6ee
 804c8dd:	a1 e8 e6 1f 08       	mov    0x81fe6e8,%eax
 804c8e2:	a3 44 57 05 08       	mov    %eax,0x8055744
 804c8e7:	c7 05 70 e8 5f 08 43 	movl   $0xcc000143,0x85fe870
 804c8ee:	01 00 cc 
 804c8f1:	a1 48 57 05 08       	mov    0x8055748,%eax
 804c8f6:	8b 15 44 57 05 08    	mov    0x8055744,%edx
 804c8fc:	c7 05 70 e8 5f 08 44 	movl   $0xcc000144,0x85fe870
 804c903:	01 00 cc 
 804c906:	a3 e0 e6 1f 08       	mov    %eax,0x81fe6e0
 804c90b:	89 15 e4 e6 1f 08    	mov    %edx,0x81fe6e4
 804c911:	c7 05 70 e8 5f 08 45 	movl   $0xcc000145,0x85fe870
 804c918:	01 00 cc 
 804c91b:	c7 05 70 e8 5f 08 46 	movl   $0xcc000146,0x85fe870
 804c922:	01 00 cc 
 804c925:	b8 00 00 00 00       	mov    $0x0,%eax
 804c92a:	ba 00 00 00 00       	mov    $0x0,%edx
 804c92f:	a0 e0 e6 1f 08       	mov    0x81fe6e0,%al
 804c934:	8a 15 e4 e6 1f 08    	mov    0x81fe6e4,%dl
 804c93a:	8b 04 85 60 9c 19 08 	mov    0x8199c60(,%eax,4),%eax
 804c941:	8a 04 10             	mov    (%eax,%edx,1),%al
 804c944:	a2 e8 e6 1f 08       	mov    %al,0x81fe6e8
 804c949:	c7 05 70 e8 5f 08 47 	movl   $0xcc000147,0x85fe870
 804c950:	01 00 cc 
 804c953:	b8 00 00 00 00       	mov    $0x0,%eax
 804c958:	ba 00 00 00 00       	mov    $0x0,%edx
 804c95d:	a0 e1 e6 1f 08       	mov    0x81fe6e1,%al
 804c962:	8a 15 e5 e6 1f 08    	mov    0x81fe6e5,%dl
 804c968:	8b 04 85 60 9c 19 08 	mov    0x8199c60(,%eax,4),%eax
 804c96f:	8a 04 10             	mov    (%eax,%edx,1),%al
 804c972:	a2 e9 e6 1f 08       	mov    %al,0x81fe6e9
 804c977:	c7 05 70 e8 5f 08 48 	movl   $0xcc000148,0x85fe870
 804c97e:	01 00 cc 
 804c981:	b8 00 00 00 00       	mov    $0x0,%eax
 804c986:	ba 00 00 00 00       	mov    $0x0,%edx
 804c98b:	a0 e2 e6 1f 08       	mov    0x81fe6e2,%al
 804c990:	8a 15 e6 e6 1f 08    	mov    0x81fe6e6,%dl
 804c996:	8b 04 85 60 9c 19 08 	mov    0x8199c60(,%eax,4),%eax
 804c99d:	8a 04 10             	mov    (%eax,%edx,1),%al
 804c9a0:	a2 ea e6 1f 08       	mov    %al,0x81fe6ea
 804c9a5:	c7 05 70 e8 5f 08 49 	movl   $0xcc000149,0x85fe870
 804c9ac:	01 00 cc 
 804c9af:	b8 00 00 00 00       	mov    $0x0,%eax
 804c9b4:	ba 00 00 00 00       	mov    $0x0,%edx
 804c9b9:	a0 e3 e6 1f 08       	mov    0x81fe6e3,%al
 804c9be:	8a 15 e7 e6 1f 08    	mov    0x81fe6e7,%dl
 804c9c4:	8b 04 85 60 9c 19 08 	mov    0x8199c60(,%eax,4),%eax
 804c9cb:	8a 04 10             	mov    (%eax,%edx,1),%al
 804c9ce:	a2 eb e6 1f 08       	mov    %al,0x81fe6eb
 804c9d3:	a1 e8 e6 1f 08       	mov    0x81fe6e8,%eax
 804c9d8:	a3 48 57 05 08       	mov    %eax,0x8055748
 804c9dd:	c7 05 70 e8 5f 08 4a 	movl   $0xcc00014a,0x85fe870
 804c9e4:	01 00 cc 
 804c9e7:	a1 24 e8 3f 08       	mov    0x83fe824,%eax
 804c9ec:	ba 87 ff ff ff       	mov    $0xffffff87,%edx
 804c9f1:	c7 05 70 e8 5f 08 4b 	movl   $0xcc00014b,0x85fe870
 804c9f8:	01 00 cc 
 804c9fb:	a3 e0 e6 1f 08       	mov    %eax,0x81fe6e0
 804ca00:	89 15 e4 e6 1f 08    	mov    %edx,0x81fe6e4
 804ca06:	c7 05 70 e8 5f 08 4c 	movl   $0xcc00014c,0x85fe870
 804ca0d:	01 00 cc 
 804ca10:	b8 00 00 00 00       	mov    $0x0,%eax
 804ca15:	b9 00 00 00 00       	mov    $0x0,%ecx
 804ca1a:	c7 05 f0 e6 1f 08 00 	movl   $0x0,0x81fe6f0
 804ca21:	00 00 00 
 804ca24:	c7 05 70 e8 5f 08 4d 	movl   $0xcc00014d,0x85fe870
 804ca2b:	01 00 cc 
 804ca2e:	66 a1 e0 e6 1f 08    	mov    0x81fe6e0,%ax
 804ca34:	66 8b 0d e4 e6 1f 08 	mov    0x81fe6e4,%cx
 804ca3b:	8b 14 85 20 96 06 08 	mov    0x8069620(,%eax,4),%edx
 804ca42:	8b 14 8a             	mov    (%edx,%ecx,4),%edx
 804ca45:	66 8b 0d f2 e6 1f 08 	mov    0x81fe6f2,%cx
 804ca4c:	8b 14 95 20 96 06 08 	mov    0x8069620(,%edx,4),%edx
 804ca53:	8b 14 8a             	mov    (%edx,%ecx,4),%edx
 804ca56:	66 89 15 e8 e6 1f 08 	mov    %dx,0x81fe6e8
 804ca5d:	89 15 f0 e6 1f 08    	mov    %edx,0x81fe6f0
 804ca63:	c7 05 70 e8 5f 08 4e 	movl   $0xcc00014e,0x85fe870
 804ca6a:	01 00 cc 
 804ca6d:	66 a1 e2 e6 1f 08    	mov    0x81fe6e2,%ax
 804ca73:	66 8b 0d e6 e6 1f 08 	mov    0x81fe6e6,%cx
 804ca7a:	8b 14 85 20 96 06 08 	mov    0x8069620(,%eax,4),%edx
 804ca81:	8b 14 8a             	mov    (%edx,%ecx,4),%edx
 804ca84:	66 8b 0d f2 e6 1f 08 	mov    0x81fe6f2,%cx
 804ca8b:	8b 14 95 20 96 06 08 	mov    0x8069620(,%edx,4),%edx
 804ca92:	8b 14 8a             	mov    (%edx,%ecx,4),%edx
 804ca95:	66 89 15 ea e6 1f 08 	mov    %dx,0x81fe6ea
 804ca9c:	89 15 f0 e6 1f 08    	mov    %edx,0x81fe6f0
 804caa2:	a1 e8 e6 1f 08       	mov    0x81fe6e8,%eax
 804caa7:	a3 44 57 05 08       	mov    %eax,0x8055744
 804caac:	c7 05 70 e8 5f 08 4f 	movl   $0xcc00014f,0x85fe870
 804cab3:	01 00 cc 
 804cab6:	a1 44 57 05 08       	mov    0x8055744,%eax
 804cabb:	8b 15 48 e8 3f 08    	mov    0x83fe848,%edx
 804cac1:	c7 05 70 e8 5f 08 50 	movl   $0xcc000150,0x85fe870
 804cac8:	01 00 cc 
 804cacb:	a3 64 e8 3f 08       	mov    %eax,0x83fe864
 804cad0:	8b 04 95 60 e8 3f 08 	mov    0x83fe860(,%edx,4),%eax
 804cad7:	ba 00 00 00 00       	mov    $0x0,%edx
 804cadc:	8a 10                	mov    (%eax),%dl
 804cade:	89 15 40 57 05 08    	mov    %edx,0x8055740
 804cae4:	c7 05 70 e8 5f 08 51 	movl   $0xcc000151,0x85fe870
 804caeb:	01 00 cc 
 804caee:	ba 00 00 00 00       	mov    $0x0,%edx
 804caf3:	8a 15 40 57 05 08    	mov    0x8055740,%dl
 804caf9:	8b 14 95 60 e2 1f 08 	mov    0x81fe260(,%edx,4),%edx
 804cb00:	89 15 44 57 05 08    	mov    %edx,0x8055744
 804cb06:	c7 05 40 57 05 08 04 	movl   $0x4,0x8055740
 804cb0d:	00 00 00 
 804cb10:	c7 05 70 e8 5f 08 52 	movl   $0xcc000152,0x85fe870
 804cb17:	01 00 cc 
 804cb1a:	a1 44 57 05 08       	mov    0x8055744,%eax
 804cb1f:	8b 15 40 57 05 08    	mov    0x8055740,%edx
 804cb25:	c7 05 70 e8 5f 08 53 	movl   $0xcc000153,0x85fe870
 804cb2c:	01 00 cc 
 804cb2f:	a3 e0 e6 1f 08       	mov    %eax,0x81fe6e0
 804cb34:	89 15 e4 e6 1f 08    	mov    %edx,0x81fe6e4
 804cb3a:	c7 05 70 e8 5f 08 54 	movl   $0xcc000154,0x85fe870
 804cb41:	01 00 cc 
 804cb44:	b8 00 00 00 00       	mov    $0x0,%eax
 804cb49:	b9 00 00 00 00       	mov    $0x0,%ecx
 804cb4e:	c7 05 f0 e6 1f 08 00 	movl   $0x0,0x81fe6f0
 804cb55:	00 00 00 
 804cb58:	c7 05 70 e8 5f 08 55 	movl   $0xcc000155,0x85fe870
 804cb5f:	01 00 cc 
 804cb62:	66 a1 e0 e6 1f 08    	mov    0x81fe6e0,%ax
 804cb68:	66 8b 0d e4 e6 1f 08 	mov    0x81fe6e4,%cx
 804cb6f:	8b 14 85 20 96 06 08 	mov    0x8069620(,%eax,4),%edx
 804cb76:	8b 14 8a             	mov    (%edx,%ecx,4),%edx
 804cb79:	66 8b 0d f2 e6 1f 08 	mov    0x81fe6f2,%cx
 804cb80:	8b 14 95 20 96 06 08 	mov    0x8069620(,%edx,4),%edx
 804cb87:	8b 14 8a             	mov    (%edx,%ecx,4),%edx
 804cb8a:	66 89 15 e8 e6 1f 08 	mov    %dx,0x81fe6e8
 804cb91:	89 15 f0 e6 1f 08    	mov    %edx,0x81fe6f0
 804cb97:	c7 05 70 e8 5f 08 56 	movl   $0xcc000156,0x85fe870
 804cb9e:	01 00 cc 
 804cba1:	66 a1 e2 e6 1f 08    	mov    0x81fe6e2,%ax
 804cba7:	66 8b 0d e6 e6 1f 08 	mov    0x81fe6e6,%cx
 804cbae:	8b 14 85 20 96 06 08 	mov    0x8069620(,%eax,4),%edx
 804cbb5:	8b 14 8a             	mov    (%edx,%ecx,4),%edx
 804cbb8:	66 8b 0d f2 e6 1f 08 	mov    0x81fe6f2,%cx
 804cbbf:	8b 14 95 20 96 06 08 	mov    0x8069620(,%edx,4),%edx
 804cbc6:	8b 14 8a             	mov    (%edx,%ecx,4),%edx
 804cbc9:	66 89 15 ea e6 1f 08 	mov    %dx,0x81fe6ea
 804cbd0:	89 15 f0 e6 1f 08    	mov    %edx,0x81fe6f0
 804cbd6:	a1 e8 e6 1f 08       	mov    0x81fe6e8,%eax
 804cbdb:	a3 44 57 05 08       	mov    %eax,0x8055744
 804cbe0:	c7 05 70 e8 5f 08 57 	movl   $0xcc000157,0x85fe870
 804cbe7:	01 00 cc 
 804cbea:	a1 24 e8 3f 08       	mov    0x83fe824,%eax
 804cbef:	8b 80 98 ff df ff    	mov    -0x200068(%eax),%eax
 804cbf5:	8b 80 98 ff df ff    	mov    -0x200068(%eax),%eax
 804cbfb:	8b 80 98 ff df ff    	mov    -0x200068(%eax),%eax
 804cc01:	8b 80 98 ff df ff    	mov    -0x200068(%eax),%eax
 804cc07:	8b 80 98 ff df ff    	mov    -0x200068(%eax),%eax
 804cc0d:	8b 80 98 ff df ff    	mov    -0x200068(%eax),%eax
 804cc13:	8b 80 98 ff df ff    	mov    -0x200068(%eax),%eax
 804cc19:	8b 80 98 ff df ff    	mov    -0x200068(%eax),%eax
 804cc1f:	8b 80 98 ff df ff    	mov    -0x200068(%eax),%eax
 804cc25:	8b 80 98 ff df ff    	mov    -0x200068(%eax),%eax
 804cc2b:	8b 80 98 ff df ff    	mov    -0x200068(%eax),%eax
 804cc31:	8b 80 98 ff df ff    	mov    -0x200068(%eax),%eax
 804cc37:	8b 80 98 ff df ff    	mov    -0x200068(%eax),%eax
 804cc3d:	8b 80 98 ff df ff    	mov    -0x200068(%eax),%eax
 804cc43:	8b 80 98 ff df ff    	mov    -0x200068(%eax),%eax
 804cc49:	8b 80 98 ff df ff    	mov    -0x200068(%eax),%eax
 804cc4f:	8b 80 98 ff df ff    	mov    -0x200068(%eax),%eax
 804cc55:	8b 80 98 ff df ff    	mov    -0x200068(%eax),%eax
 804cc5b:	8b 80 98 ff df ff    	mov    -0x200068(%eax),%eax
 804cc61:	8b 80 98 ff df ff    	mov    -0x200068(%eax),%eax
 804cc67:	8b 80 98 ff df ff    	mov    -0x200068(%eax),%eax
 804cc6d:	8b 80 98 ff df ff    	mov    -0x200068(%eax),%eax
 804cc73:	8b 80 98 ff df ff    	mov    -0x200068(%eax),%eax
 804cc79:	8b 80 98 ff df ff    	mov    -0x200068(%eax),%eax
 804cc7f:	8b 80 98 ff df ff    	mov    -0x200068(%eax),%eax
 804cc85:	8b 80 98 ff df ff    	mov    -0x200068(%eax),%eax
 804cc8b:	8b 80 98 ff df ff    	mov    -0x200068(%eax),%eax
 804cc91:	8b 80 98 ff df ff    	mov    -0x200068(%eax),%eax
 804cc97:	8b 80 98 ff df ff    	mov    -0x200068(%eax),%eax
 804cc9d:	8b 80 98 ff df ff    	mov    -0x200068(%eax),%eax
 804cca3:	8b 80 98 ff df ff    	mov    -0x200068(%eax),%eax
 804cca9:	8b 80 98 ff df ff    	mov    -0x200068(%eax),%eax
 804ccaf:	8b 80 98 ff df ff    	mov    -0x200068(%eax),%eax
 804ccb5:	8b 80 98 ff df ff    	mov    -0x200068(%eax),%eax
 804ccbb:	8b 80 98 ff df ff    	mov    -0x200068(%eax),%eax
 804ccc1:	8b 80 98 ff df ff    	mov    -0x200068(%eax),%eax
 804ccc7:	a3 40 57 05 08       	mov    %eax,0x8055740
 804cccc:	c7 05 70 e8 5f 08 58 	movl   $0xcc000158,0x85fe870
 804ccd3:	01 00 cc 
 804ccd6:	a1 40 57 05 08       	mov    0x8055740,%eax
 804ccdb:	8b 15 48 e8 3f 08    	mov    0x83fe848,%edx
 804cce1:	c7 05 70 e8 5f 08 59 	movl   $0xcc000159,0x85fe870
 804cce8:	01 00 cc 
 804cceb:	a3 64 e8 3f 08       	mov    %eax,0x83fe864
 804ccf0:	8b 04 95 60 e8 3f 08 	mov    0x83fe860(,%edx,4),%eax
 804ccf7:	8b 00                	mov    (%eax),%eax
 804ccf9:	a3 40 57 05 08       	mov    %eax,0x8055740
 804ccfe:	c7 05 70 e8 5f 08 5a 	movl   $0xcc00015a,0x85fe870
 804cd05:	01 00 cc 
 804cd08:	a1 44 57 05 08       	mov    0x8055744,%eax
 804cd0d:	8b 15 40 57 05 08    	mov    0x8055740,%edx
 804cd13:	c7 05 70 e8 5f 08 5b 	movl   $0xcc00015b,0x85fe870
 804cd1a:	01 00 cc 
 804cd1d:	a3 e0 e6 1f 08       	mov    %eax,0x81fe6e0
 804cd22:	89 15 e4 e6 1f 08    	mov    %edx,0x81fe6e4
 804cd28:	c7 05 70 e8 5f 08 5c 	movl   $0xcc00015c,0x85fe870
 804cd2f:	01 00 cc 
 804cd32:	b8 00 00 00 00       	mov    $0x0,%eax
 804cd37:	b9 00 00 00 00       	mov    $0x0,%ecx
 804cd3c:	c7 05 f0 e6 1f 08 01 	movl   $0x1,0x81fe6f0
 804cd43:	00 00 00 
 804cd46:	c7 05 70 e8 5f 08 5d 	movl   $0xcc00015d,0x85fe870
 804cd4d:	01 00 cc 
 804cd50:	66 a1 e0 e6 1f 08    	mov    0x81fe6e0,%ax
 804cd56:	66 8b 0d e4 e6 1f 08 	mov    0x81fe6e4,%cx
 804cd5d:	66 8b 0c 4d 40 97 16 	mov    0x8169740(,%ecx,2),%cx
 804cd64:	08 
 804cd65:	8b 14 85 20 96 06 08 	mov    0x8069620(,%eax,4),%edx
 804cd6c:	8b 14 8a             	mov    (%edx,%ecx,4),%edx
 804cd6f:	8b 14 95 20 96 06 08 	mov    0x8069620(,%edx,4),%edx
 804cd76:	8b 0d f0 e6 1f 08    	mov    0x81fe6f0,%ecx
 804cd7c:	8b 14 8a             	mov    (%edx,%ecx,4),%edx
 804cd7f:	66 89 15 e8 e6 1f 08 	mov    %dx,0x81fe6e8
 804cd86:	89 15 ee e6 1f 08    	mov    %edx,0x81fe6ee
 804cd8c:	c7 05 70 e8 5f 08 5e 	movl   $0xcc00015e,0x85fe870
 804cd93:	01 00 cc 
 804cd96:	66 a1 e2 e6 1f 08    	mov    0x81fe6e2,%ax
 804cd9c:	66 8b 0d e6 e6 1f 08 	mov    0x81fe6e6,%cx
 804cda3:	66 8b 0c 4d 40 97 16 	mov    0x8169740(,%ecx,2),%cx
 804cdaa:	08 
 804cdab:	8b 14 85 20 96 06 08 	mov    0x8069620(,%eax,4),%edx
 804cdb2:	8b 14 8a             	mov    (%edx,%ecx,4),%edx
 804cdb5:	8b 14 95 20 96 06 08 	mov    0x8069620(,%edx,4),%edx
 804cdbc:	8b 0d f0 e6 1f 08    	mov    0x81fe6f0,%ecx
 804cdc2:	8b 14 8a             	mov    (%edx,%ecx,4),%edx
 804cdc5:	66 89 15 ea e6 1f 08 	mov    %dx,0x81fe6ea
 804cdcc:	89 15 ee e6 1f 08    	mov    %edx,0x81fe6ee
 804cdd2:	a1 e8 e6 1f 08       	mov    0x81fe6e8,%eax
 804cdd7:	a3 44 57 05 08       	mov    %eax,0x8055744
 804cddc:	c7 05 70 e8 5f 08 5f 	movl   $0xcc00015f,0x85fe870
 804cde3:	01 00 cc 
 804cde6:	a1 48 57 05 08       	mov    0x8055748,%eax
 804cdeb:	8b 15 44 57 05 08    	mov    0x8055744,%edx
 804cdf1:	c7 05 70 e8 5f 08 60 	movl   $0xcc000160,0x85fe870
 804cdf8:	01 00 cc 
 804cdfb:	a3 e0 e6 1f 08       	mov    %eax,0x81fe6e0
 804ce00:	89 15 e4 e6 1f 08    	mov    %edx,0x81fe6e4
 804ce06:	c7 05 70 e8 5f 08 61 	movl   $0xcc000161,0x85fe870
 804ce0d:	01 00 cc 
 804ce10:	c7 05 70 e8 5f 08 62 	movl   $0xcc000162,0x85fe870
 804ce17:	01 00 cc 
 804ce1a:	b8 00 00 00 00       	mov    $0x0,%eax
 804ce1f:	ba 00 00 00 00       	mov    $0x0,%edx
 804ce24:	a0 e0 e6 1f 08       	mov    0x81fe6e0,%al
 804ce29:	8a 15 e4 e6 1f 08    	mov    0x81fe6e4,%dl
 804ce2f:	8b 04 85 60 9c 19 08 	mov    0x8199c60(,%eax,4),%eax
 804ce36:	8a 04 10             	mov    (%eax,%edx,1),%al
 804ce39:	a2 e8 e6 1f 08       	mov    %al,0x81fe6e8
 804ce3e:	c7 05 70 e8 5f 08 63 	movl   $0xcc000163,0x85fe870
 804ce45:	01 00 cc 
 804ce48:	b8 00 00 00 00       	mov    $0x0,%eax
 804ce4d:	ba 00 00 00 00       	mov    $0x0,%edx
 804ce52:	a0 e1 e6 1f 08       	mov    0x81fe6e1,%al
 804ce57:	8a 15 e5 e6 1f 08    	mov    0x81fe6e5,%dl
 804ce5d:	8b 04 85 60 9c 19 08 	mov    0x8199c60(,%eax,4),%eax
 804ce64:	8a 04 10             	mov    (%eax,%edx,1),%al
 804ce67:	a2 e9 e6 1f 08       	mov    %al,0x81fe6e9
 804ce6c:	c7 05 70 e8 5f 08 64 	movl   $0xcc000164,0x85fe870
 804ce73:	01 00 cc 
 804ce76:	b8 00 00 00 00       	mov    $0x0,%eax
 804ce7b:	ba 00 00 00 00       	mov    $0x0,%edx
 804ce80:	a0 e2 e6 1f 08       	mov    0x81fe6e2,%al
 804ce85:	8a 15 e6 e6 1f 08    	mov    0x81fe6e6,%dl
 804ce8b:	8b 04 85 60 9c 19 08 	mov    0x8199c60(,%eax,4),%eax
 804ce92:	8a 04 10             	mov    (%eax,%edx,1),%al
 804ce95:	a2 ea e6 1f 08       	mov    %al,0x81fe6ea
 804ce9a:	c7 05 70 e8 5f 08 65 	movl   $0xcc000165,0x85fe870
 804cea1:	01 00 cc 
 804cea4:	b8 00 00 00 00       	mov    $0x0,%eax
 804cea9:	ba 00 00 00 00       	mov    $0x0,%edx
 804ceae:	a0 e3 e6 1f 08       	mov    0x81fe6e3,%al
 804ceb3:	8a 15 e7 e6 1f 08    	mov    0x81fe6e7,%dl
 804ceb9:	8b 04 85 60 9c 19 08 	mov    0x8199c60(,%eax,4),%eax
 804cec0:	8a 04 10             	mov    (%eax,%edx,1),%al
 804cec3:	a2 eb e6 1f 08       	mov    %al,0x81fe6eb
 804cec8:	a1 e8 e6 1f 08       	mov    0x81fe6e8,%eax
 804cecd:	a3 48 57 05 08       	mov    %eax,0x8055748
 804ced2:	c7 05 70 e8 5f 08 66 	movl   $0xcc000166,0x85fe870
 804ced9:	01 00 cc 
 804cedc:	a1 24 e8 3f 08       	mov    0x83fe824,%eax
 804cee1:	8b 80 98 ff df ff    	mov    -0x200068(%eax),%eax
 804cee7:	8b 80 98 ff df ff    	mov    -0x200068(%eax),%eax
 804ceed:	8b 80 98 ff df ff    	mov    -0x200068(%eax),%eax
 804cef3:	8b 80 98 ff df ff    	mov    -0x200068(%eax),%eax
 804cef9:	8b 80 98 ff df ff    	mov    -0x200068(%eax),%eax
 804ceff:	8b 80 98 ff df ff    	mov    -0x200068(%eax),%eax
 804cf05:	8b 80 98 ff df ff    	mov    -0x200068(%eax),%eax
 804cf0b:	8b 80 98 ff df ff    	mov    -0x200068(%eax),%eax
 804cf11:	8b 80 98 ff df ff    	mov    -0x200068(%eax),%eax
 804cf17:	8b 80 98 ff df ff    	mov    -0x200068(%eax),%eax
 804cf1d:	8b 80 98 ff df ff    	mov    -0x200068(%eax),%eax
 804cf23:	8b 80 98 ff df ff    	mov    -0x200068(%eax),%eax
 804cf29:	8b 80 98 ff df ff    	mov    -0x200068(%eax),%eax
 804cf2f:	8b 80 98 ff df ff    	mov    -0x200068(%eax),%eax
 804cf35:	8b 80 98 ff df ff    	mov    -0x200068(%eax),%eax
 804cf3b:	8b 80 98 ff df ff    	mov    -0x200068(%eax),%eax
 804cf41:	8b 80 98 ff df ff    	mov    -0x200068(%eax),%eax
 804cf47:	8b 80 98 ff df ff    	mov    -0x200068(%eax),%eax
 804cf4d:	8b 80 98 ff df ff    	mov    -0x200068(%eax),%eax
 804cf53:	8b 80 98 ff df ff    	mov    -0x200068(%eax),%eax
 804cf59:	8b 80 98 ff df ff    	mov    -0x200068(%eax),%eax
 804cf5f:	8b 80 98 ff df ff    	mov    -0x200068(%eax),%eax
 804cf65:	8b 80 98 ff df ff    	mov    -0x200068(%eax),%eax
 804cf6b:	8b 80 98 ff df ff    	mov    -0x200068(%eax),%eax
 804cf71:	8b 80 98 ff df ff    	mov    -0x200068(%eax),%eax
 804cf77:	8b 80 98 ff df ff    	mov    -0x200068(%eax),%eax
 804cf7d:	8b 80 98 ff df ff    	mov    -0x200068(%eax),%eax
 804cf83:	8b 80 98 ff df ff    	mov    -0x200068(%eax),%eax
 804cf89:	8b 80 98 ff df ff    	mov    -0x200068(%eax),%eax
 804cf8f:	8b 80 98 ff df ff    	mov    -0x200068(%eax),%eax
 804cf95:	a3 44 57 05 08       	mov    %eax,0x8055744
 804cf9a:	c7 05 70 e8 5f 08 67 	movl   $0xcc000167,0x85fe870
 804cfa1:	01 00 cc 
 804cfa4:	a1 44 57 05 08       	mov    0x8055744,%eax
 804cfa9:	8b 15 48 e8 3f 08    	mov    0x83fe848,%edx
 804cfaf:	c7 05 70 e8 5f 08 68 	movl   $0xcc000168,0x85fe870
 804cfb6:	01 00 cc 
 804cfb9:	a3 64 e8 3f 08       	mov    %eax,0x83fe864
 804cfbe:	8b 04 95 60 e8 3f 08 	mov    0x83fe860(,%edx,4),%eax
 804cfc5:	ba 00 00 00 00       	mov    $0x0,%edx
 804cfca:	8a 10                	mov    (%eax),%dl
 804cfcc:	89 15 40 57 05 08    	mov    %edx,0x8055740
 804cfd2:	c7 05 70 e8 5f 08 69 	movl   $0xcc000169,0x85fe870
 804cfd9:	01 00 cc 
 804cfdc:	ba 00 00 00 00       	mov    $0x0,%edx
 804cfe1:	8a 15 40 57 05 08    	mov    0x8055740,%dl
 804cfe7:	8b 14 95 60 e2 1f 08 	mov    0x81fe260(,%edx,4),%edx
 804cfee:	89 15 44 57 05 08    	mov    %edx,0x8055744
 804cff4:	c7 05 40 57 05 08 0e 	movl   $0xe,0x8055740
 804cffb:	00 00 00 
 804cffe:	c7 05 70 e8 5f 08 6a 	movl   $0xcc00016a,0x85fe870
 804d005:	01 00 cc 
 804d008:	a1 44 57 05 08       	mov    0x8055744,%eax
 804d00d:	8b 15 40 57 05 08    	mov    0x8055740,%edx
 804d013:	c7 05 70 e8 5f 08 6b 	movl   $0xcc00016b,0x85fe870
 804d01a:	01 00 cc 
 804d01d:	a3 e0 e6 1f 08       	mov    %eax,0x81fe6e0
 804d022:	89 15 e4 e6 1f 08    	mov    %edx,0x81fe6e4
 804d028:	c7 05 70 e8 5f 08 6c 	movl   $0xcc00016c,0x85fe870
 804d02f:	01 00 cc 
 804d032:	b8 00 00 00 00       	mov    $0x0,%eax
 804d037:	b9 00 00 00 00       	mov    $0x0,%ecx
 804d03c:	c7 05 f0 e6 1f 08 00 	movl   $0x0,0x81fe6f0
 804d043:	00 00 00 
 804d046:	c7 05 70 e8 5f 08 6d 	movl   $0xcc00016d,0x85fe870
 804d04d:	01 00 cc 
 804d050:	66 a1 e0 e6 1f 08    	mov    0x81fe6e0,%ax
 804d056:	66 8b 0d e4 e6 1f 08 	mov    0x81fe6e4,%cx
 804d05d:	8b 14 85 20 96 06 08 	mov    0x8069620(,%eax,4),%edx
 804d064:	8b 14 8a             	mov    (%edx,%ecx,4),%edx
 804d067:	66 8b 0d f2 e6 1f 08 	mov    0x81fe6f2,%cx
 804d06e:	8b 14 95 20 96 06 08 	mov    0x8069620(,%edx,4),%edx
 804d075:	8b 14 8a             	mov    (%edx,%ecx,4),%edx
 804d078:	66 89 15 e8 e6 1f 08 	mov    %dx,0x81fe6e8
 804d07f:	89 15 f0 e6 1f 08    	mov    %edx,0x81fe6f0
 804d085:	c7 05 70 e8 5f 08 6e 	movl   $0xcc00016e,0x85fe870
 804d08c:	01 00 cc 
 804d08f:	66 a1 e2 e6 1f 08    	mov    0x81fe6e2,%ax
 804d095:	66 8b 0d e6 e6 1f 08 	mov    0x81fe6e6,%cx
 804d09c:	8b 14 85 20 96 06 08 	mov    0x8069620(,%eax,4),%edx
 804d0a3:	8b 14 8a             	mov    (%edx,%ecx,4),%edx
 804d0a6:	66 8b 0d f2 e6 1f 08 	mov    0x81fe6f2,%cx
 804d0ad:	8b 14 95 20 96 06 08 	mov    0x8069620(,%edx,4),%edx
 804d0b4:	8b 14 8a             	mov    (%edx,%ecx,4),%edx
 804d0b7:	66 89 15 ea e6 1f 08 	mov    %dx,0x81fe6ea
 804d0be:	89 15 f0 e6 1f 08    	mov    %edx,0x81fe6f0
 804d0c4:	a1 e8 e6 1f 08       	mov    0x81fe6e8,%eax
 804d0c9:	a3 44 57 05 08       	mov    %eax,0x8055744
 804d0ce:	c7 05 70 e8 5f 08 6f 	movl   $0xcc00016f,0x85fe870
 804d0d5:	01 00 cc 
 804d0d8:	a1 24 e8 3f 08       	mov    0x83fe824,%eax
 804d0dd:	8b 80 98 ff df ff    	mov    -0x200068(%eax),%eax
 804d0e3:	8b 80 98 ff df ff    	mov    -0x200068(%eax),%eax
 804d0e9:	8b 80 98 ff df ff    	mov    -0x200068(%eax),%eax
 804d0ef:	8b 80 98 ff df ff    	mov    -0x200068(%eax),%eax
 804d0f5:	8b 80 98 ff df ff    	mov    -0x200068(%eax),%eax
 804d0fb:	8b 80 98 ff df ff    	mov    -0x200068(%eax),%eax
 804d101:	8b 80 98 ff df ff    	mov    -0x200068(%eax),%eax
 804d107:	8b 80 98 ff df ff    	mov    -0x200068(%eax),%eax
 804d10d:	8b 80 98 ff df ff    	mov    -0x200068(%eax),%eax
 804d113:	8b 80 98 ff df ff    	mov    -0x200068(%eax),%eax
 804d119:	8b 80 98 ff df ff    	mov    -0x200068(%eax),%eax
 804d11f:	8b 80 98 ff df ff    	mov    -0x200068(%eax),%eax
 804d125:	8b 80 98 ff df ff    	mov    -0x200068(%eax),%eax
 804d12b:	8b 80 98 ff df ff    	mov    -0x200068(%eax),%eax
 804d131:	8b 80 98 ff df ff    	mov    -0x200068(%eax),%eax
 804d137:	8b 80 98 ff df ff    	mov    -0x200068(%eax),%eax
 804d13d:	8b 80 98 ff df ff    	mov    -0x200068(%eax),%eax
 804d143:	8b 80 98 ff df ff    	mov    -0x200068(%eax),%eax
 804d149:	8b 80 98 ff df ff    	mov    -0x200068(%eax),%eax
 804d14f:	8b 80 98 ff df ff    	mov    -0x200068(%eax),%eax
 804d155:	8b 80 98 ff df ff    	mov    -0x200068(%eax),%eax
 804d15b:	8b 80 98 ff df ff    	mov    -0x200068(%eax),%eax
 804d161:	8b 80 98 ff df ff    	mov    -0x200068(%eax),%eax
 804d167:	8b 80 98 ff df ff    	mov    -0x200068(%eax),%eax
 804d16d:	8b 80 98 ff df ff    	mov    -0x200068(%eax),%eax
 804d173:	8b 80 98 ff df ff    	mov    -0x200068(%eax),%eax
 804d179:	8b 80 98 ff df ff    	mov    -0x200068(%eax),%eax
 804d17f:	8b 80 98 ff df ff    	mov    -0x200068(%eax),%eax
 804d185:	8b 80 98 ff df ff    	mov    -0x200068(%eax),%eax
 804d18b:	8b 80 98 ff df ff    	mov    -0x200068(%eax),%eax
 804d191:	8b 80 98 ff df ff    	mov    -0x200068(%eax),%eax
 804d197:	8b 80 98 ff df ff    	mov    -0x200068(%eax),%eax
 804d19d:	8b 80 98 ff df ff    	mov    -0x200068(%eax),%eax
 804d1a3:	8b 80 98 ff df ff    	mov    -0x200068(%eax),%eax
 804d1a9:	a3 40 57 05 08       	mov    %eax,0x8055740
 804d1ae:	c7 05 70 e8 5f 08 70 	movl   $0xcc000170,0x85fe870
 804d1b5:	01 00 cc 
 804d1b8:	a1 40 57 05 08       	mov    0x8055740,%eax
 804d1bd:	8b 15 48 e8 3f 08    	mov    0x83fe848,%edx
 804d1c3:	c7 05 70 e8 5f 08 71 	movl   $0xcc000171,0x85fe870
 804d1ca:	01 00 cc 
 804d1cd:	a3 64 e8 3f 08       	mov    %eax,0x83fe864
 804d1d2:	8b 04 95 60 e8 3f 08 	mov    0x83fe860(,%edx,4),%eax
 804d1d9:	8b 00                	mov    (%eax),%eax
 804d1db:	a3 40 57 05 08       	mov    %eax,0x8055740
 804d1e0:	c7 05 70 e8 5f 08 72 	movl   $0xcc000172,0x85fe870
 804d1e7:	01 00 cc 
 804d1ea:	a1 44 57 05 08       	mov    0x8055744,%eax
 804d1ef:	8b 15 40 57 05 08    	mov    0x8055740,%edx
 804d1f5:	c7 05 70 e8 5f 08 73 	movl   $0xcc000173,0x85fe870
 804d1fc:	01 00 cc 
 804d1ff:	a3 e0 e6 1f 08       	mov    %eax,0x81fe6e0
 804d204:	89 15 e4 e6 1f 08    	mov    %edx,0x81fe6e4
 804d20a:	c7 05 70 e8 5f 08 74 	movl   $0xcc000174,0x85fe870
 804d211:	01 00 cc 
 804d214:	c7 05 70 e8 5f 08 75 	movl   $0xcc000175,0x85fe870
 804d21b:	01 00 cc 
 804d21e:	b8 00 00 00 00       	mov    $0x0,%eax
 804d223:	ba 00 00 00 00       	mov    $0x0,%edx
 804d228:	a0 e0 e6 1f 08       	mov    0x81fe6e0,%al
 804d22d:	8a 15 e4 e6 1f 08    	mov    0x81fe6e4,%dl
 804d233:	8b 04 85 70 a1 1a 08 	mov    0x81aa170(,%eax,4),%eax
 804d23a:	8a 04 10             	mov    (%eax,%edx,1),%al
 804d23d:	a2 e8 e6 1f 08       	mov    %al,0x81fe6e8
 804d242:	c7 05 70 e8 5f 08 76 	movl   $0xcc000176,0x85fe870
 804d249:	01 00 cc 
 804d24c:	b8 00 00 00 00       	mov    $0x0,%eax
 804d251:	ba 00 00 00 00       	mov    $0x0,%edx
 804d256:	a0 e1 e6 1f 08       	mov    0x81fe6e1,%al
 804d25b:	8a 15 e5 e6 1f 08    	mov    0x81fe6e5,%dl
 804d261:	8b 04 85 70 a1 1a 08 	mov    0x81aa170(,%eax,4),%eax
 804d268:	8a 04 10             	mov    (%eax,%edx,1),%al
 804d26b:	a2 e9 e6 1f 08       	mov    %al,0x81fe6e9
 804d270:	c7 05 70 e8 5f 08 77 	movl   $0xcc000177,0x85fe870
 804d277:	01 00 cc 
 804d27a:	b8 00 00 00 00       	mov    $0x0,%eax
 804d27f:	ba 00 00 00 00       	mov    $0x0,%edx
 804d284:	a0 e2 e6 1f 08       	mov    0x81fe6e2,%al
 804d289:	8a 15 e6 e6 1f 08    	mov    0x81fe6e6,%dl
 804d28f:	8b 04 85 70 a1 1a 08 	mov    0x81aa170(,%eax,4),%eax
 804d296:	8a 04 10             	mov    (%eax,%edx,1),%al
 804d299:	a2 ea e6 1f 08       	mov    %al,0x81fe6ea
 804d29e:	c7 05 70 e8 5f 08 78 	movl   $0xcc000178,0x85fe870
 804d2a5:	01 00 cc 
 804d2a8:	b8 00 00 00 00       	mov    $0x0,%eax
 804d2ad:	ba 00 00 00 00       	mov    $0x0,%edx
 804d2b2:	a0 e3 e6 1f 08       	mov    0x81fe6e3,%al
 804d2b7:	8a 15 e7 e6 1f 08    	mov    0x81fe6e7,%dl
 804d2bd:	8b 04 85 70 a1 1a 08 	mov    0x81aa170(,%eax,4),%eax
 804d2c4:	8a 04 10             	mov    (%eax,%edx,1),%al
 804d2c7:	a2 eb e6 1f 08       	mov    %al,0x81fe6eb
 804d2cc:	a1 e8 e6 1f 08       	mov    0x81fe6e8,%eax
 804d2d1:	a3 44 57 05 08       	mov    %eax,0x8055744
 804d2d6:	c7 05 70 e8 5f 08 79 	movl   $0xcc000179,0x85fe870
 804d2dd:	01 00 cc 
 804d2e0:	a1 48 57 05 08       	mov    0x8055748,%eax
 804d2e5:	8b 15 44 57 05 08    	mov    0x8055744,%edx
 804d2eb:	c7 05 70 e8 5f 08 7a 	movl   $0xcc00017a,0x85fe870
 804d2f2:	01 00 cc 
 804d2f5:	a3 e0 e6 1f 08       	mov    %eax,0x81fe6e0
 804d2fa:	89 15 e4 e6 1f 08    	mov    %edx,0x81fe6e4
 804d300:	c7 05 70 e8 5f 08 7b 	movl   $0xcc00017b,0x85fe870
 804d307:	01 00 cc 
 804d30a:	c7 05 70 e8 5f 08 7c 	movl   $0xcc00017c,0x85fe870
 804d311:	01 00 cc 
 804d314:	b8 00 00 00 00       	mov    $0x0,%eax
 804d319:	ba 00 00 00 00       	mov    $0x0,%edx
 804d31e:	a0 e0 e6 1f 08       	mov    0x81fe6e0,%al
 804d323:	8a 15 e4 e6 1f 08    	mov    0x81fe6e4,%dl
 804d329:	8b 04 85 60 9c 19 08 	mov    0x8199c60(,%eax,4),%eax
 804d330:	8a 04 10             	mov    (%eax,%edx,1),%al
 804d333:	a2 e8 e6 1f 08       	mov    %al,0x81fe6e8
 804d338:	c7 05 70 e8 5f 08 7d 	movl   $0xcc00017d,0x85fe870
 804d33f:	01 00 cc 
 804d342:	b8 00 00 00 00       	mov    $0x0,%eax
 804d347:	ba 00 00 00 00       	mov    $0x0,%edx
 804d34c:	a0 e1 e6 1f 08       	mov    0x81fe6e1,%al
 804d351:	8a 15 e5 e6 1f 08    	mov    0x81fe6e5,%dl
 804d357:	8b 04 85 60 9c 19 08 	mov    0x8199c60(,%eax,4),%eax
 804d35e:	8a 04 10             	mov    (%eax,%edx,1),%al
 804d361:	a2 e9 e6 1f 08       	mov    %al,0x81fe6e9
 804d366:	c7 05 70 e8 5f 08 7e 	movl   $0xcc00017e,0x85fe870
 804d36d:	01 00 cc 
 804d370:	b8 00 00 00 00       	mov    $0x0,%eax
 804d375:	ba 00 00 00 00       	mov    $0x0,%edx
 804d37a:	a0 e2 e6 1f 08       	mov    0x81fe6e2,%al
 804d37f:	8a 15 e6 e6 1f 08    	mov    0x81fe6e6,%dl
 804d385:	8b 04 85 60 9c 19 08 	mov    0x8199c60(,%eax,4),%eax
 804d38c:	8a 04 10             	mov    (%eax,%edx,1),%al
 804d38f:	a2 ea e6 1f 08       	mov    %al,0x81fe6ea
 804d394:	c7 05 70 e8 5f 08 7f 	movl   $0xcc00017f,0x85fe870
 804d39b:	01 00 cc 
 804d39e:	b8 00 00 00 00       	mov    $0x0,%eax
 804d3a3:	ba 00 00 00 00       	mov    $0x0,%edx
 804d3a8:	a0 e3 e6 1f 08       	mov    0x81fe6e3,%al
 804d3ad:	8a 15 e7 e6 1f 08    	mov    0x81fe6e7,%dl
 804d3b3:	8b 04 85 60 9c 19 08 	mov    0x8199c60(,%eax,4),%eax
 804d3ba:	8a 04 10             	mov    (%eax,%edx,1),%al
 804d3bd:	a2 eb e6 1f 08       	mov    %al,0x81fe6eb
 804d3c2:	a1 e8 e6 1f 08       	mov    0x81fe6e8,%eax
 804d3c7:	a3 48 57 05 08       	mov    %eax,0x8055748
 804d3cc:	c7 05 70 e8 5f 08 80 	movl   $0xcc000180,0x85fe870
 804d3d3:	01 00 cc 
 804d3d6:	a1 24 e8 3f 08       	mov    0x83fe824,%eax
 804d3db:	ba 89 ff ff ff       	mov    $0xffffff89,%edx
 804d3e0:	c7 05 70 e8 5f 08 81 	movl   $0xcc000181,0x85fe870
 804d3e7:	01 00 cc 
 804d3ea:	a3 e0 e6 1f 08       	mov    %eax,0x81fe6e0
 804d3ef:	89 15 e4 e6 1f 08    	mov    %edx,0x81fe6e4
 804d3f5:	c7 05 70 e8 5f 08 82 	movl   $0xcc000182,0x85fe870
 804d3fc:	01 00 cc 
 804d3ff:	b8 00 00 00 00       	mov    $0x0,%eax
 804d404:	b9 00 00 00 00       	mov    $0x0,%ecx
 804d409:	c7 05 f0 e6 1f 08 00 	movl   $0x0,0x81fe6f0
 804d410:	00 00 00 
 804d413:	c7 05 70 e8 5f 08 83 	movl   $0xcc000183,0x85fe870
 804d41a:	01 00 cc 
 804d41d:	66 a1 e0 e6 1f 08    	mov    0x81fe6e0,%ax
 804d423:	66 8b 0d e4 e6 1f 08 	mov    0x81fe6e4,%cx
 804d42a:	8b 14 85 20 96 06 08 	mov    0x8069620(,%eax,4),%edx
 804d431:	8b 14 8a             	mov    (%edx,%ecx,4),%edx
 804d434:	66 8b 0d f2 e6 1f 08 	mov    0x81fe6f2,%cx
 804d43b:	8b 14 95 20 96 06 08 	mov    0x8069620(,%edx,4),%edx
 804d442:	8b 14 8a             	mov    (%edx,%ecx,4),%edx
 804d445:	66 89 15 e8 e6 1f 08 	mov    %dx,0x81fe6e8
 804d44c:	89 15 f0 e6 1f 08    	mov    %edx,0x81fe6f0
 804d452:	c7 05 70 e8 5f 08 84 	movl   $0xcc000184,0x85fe870
 804d459:	01 00 cc 
 804d45c:	66 a1 e2 e6 1f 08    	mov    0x81fe6e2,%ax
 804d462:	66 8b 0d e6 e6 1f 08 	mov    0x81fe6e6,%cx
 804d469:	8b 14 85 20 96 06 08 	mov    0x8069620(,%eax,4),%edx
 804d470:	8b 14 8a             	mov    (%edx,%ecx,4),%edx
 804d473:	66 8b 0d f2 e6 1f 08 	mov    0x81fe6f2,%cx
 804d47a:	8b 14 95 20 96 06 08 	mov    0x8069620(,%edx,4),%edx
 804d481:	8b 14 8a             	mov    (%edx,%ecx,4),%edx
 804d484:	66 89 15 ea e6 1f 08 	mov    %dx,0x81fe6ea
 804d48b:	89 15 f0 e6 1f 08    	mov    %edx,0x81fe6f0
 804d491:	a1 e8 e6 1f 08       	mov    0x81fe6e8,%eax
 804d496:	a3 44 57 05 08       	mov    %eax,0x8055744
 804d49b:	c7 05 70 e8 5f 08 85 	movl   $0xcc000185,0x85fe870
 804d4a2:	01 00 cc 
 804d4a5:	a1 44 57 05 08       	mov    0x8055744,%eax
 804d4aa:	8b 15 48 e8 3f 08    	mov    0x83fe848,%edx
 804d4b0:	c7 05 70 e8 5f 08 86 	movl   $0xcc000186,0x85fe870
 804d4b7:	01 00 cc 
 804d4ba:	a3 64 e8 3f 08       	mov    %eax,0x83fe864
 804d4bf:	8b 04 95 60 e8 3f 08 	mov    0x83fe860(,%edx,4),%eax
 804d4c6:	ba 00 00 00 00       	mov    $0x0,%edx
 804d4cb:	8a 10                	mov    (%eax),%dl
 804d4cd:	89 15 40 57 05 08    	mov    %edx,0x8055740
 804d4d3:	c7 05 70 e8 5f 08 87 	movl   $0xcc000187,0x85fe870
 804d4da:	01 00 cc 
 804d4dd:	ba 00 00 00 00       	mov    $0x0,%edx
 804d4e2:	8a 15 40 57 05 08    	mov    0x8055740,%dl
 804d4e8:	8b 14 95 60 e2 1f 08 	mov    0x81fe260(,%edx,4),%edx
 804d4ef:	89 15 44 57 05 08    	mov    %edx,0x8055744
 804d4f5:	c7 05 40 57 05 08 08 	movl   $0x8,0x8055740
 804d4fc:	00 00 00 
 804d4ff:	c7 05 70 e8 5f 08 88 	movl   $0xcc000188,0x85fe870
 804d506:	01 00 cc 
 804d509:	a1 44 57 05 08       	mov    0x8055744,%eax
 804d50e:	8b 15 40 57 05 08    	mov    0x8055740,%edx
 804d514:	c7 05 70 e8 5f 08 89 	movl   $0xcc000189,0x85fe870
 804d51b:	01 00 cc 
 804d51e:	a3 e0 e6 1f 08       	mov    %eax,0x81fe6e0
 804d523:	89 15 e4 e6 1f 08    	mov    %edx,0x81fe6e4
 804d529:	c7 05 70 e8 5f 08 8a 	movl   $0xcc00018a,0x85fe870
 804d530:	01 00 cc 
 804d533:	b8 00 00 00 00       	mov    $0x0,%eax
 804d538:	b9 00 00 00 00       	mov    $0x0,%ecx
 804d53d:	c7 05 f0 e6 1f 08 01 	movl   $0x1,0x81fe6f0
 804d544:	00 00 00 
 804d547:	c7 05 70 e8 5f 08 8b 	movl   $0xcc00018b,0x85fe870
 804d54e:	01 00 cc 
 804d551:	66 a1 e0 e6 1f 08    	mov    0x81fe6e0,%ax
 804d557:	66 8b 0d e4 e6 1f 08 	mov    0x81fe6e4,%cx
 804d55e:	66 8b 0c 4d 40 97 16 	mov    0x8169740(,%ecx,2),%cx
 804d565:	08 
 804d566:	8b 14 85 20 96 06 08 	mov    0x8069620(,%eax,4),%edx
 804d56d:	8b 14 8a             	mov    (%edx,%ecx,4),%edx
 804d570:	8b 14 95 20 96 06 08 	mov    0x8069620(,%edx,4),%edx
 804d577:	8b 0d f0 e6 1f 08    	mov    0x81fe6f0,%ecx
 804d57d:	8b 14 8a             	mov    (%edx,%ecx,4),%edx
 804d580:	66 89 15 e8 e6 1f 08 	mov    %dx,0x81fe6e8
 804d587:	89 15 ee e6 1f 08    	mov    %edx,0x81fe6ee
 804d58d:	c7 05 70 e8 5f 08 8c 	movl   $0xcc00018c,0x85fe870
 804d594:	01 00 cc 
 804d597:	66 a1 e2 e6 1f 08    	mov    0x81fe6e2,%ax
 804d59d:	66 8b 0d e6 e6 1f 08 	mov    0x81fe6e6,%cx
 804d5a4:	66 8b 0c 4d 40 97 16 	mov    0x8169740(,%ecx,2),%cx
 804d5ab:	08 
 804d5ac:	8b 14 85 20 96 06 08 	mov    0x8069620(,%eax,4),%edx
 804d5b3:	8b 14 8a             	mov    (%edx,%ecx,4),%edx
 804d5b6:	8b 14 95 20 96 06 08 	mov    0x8069620(,%edx,4),%edx
 804d5bd:	8b 0d f0 e6 1f 08    	mov    0x81fe6f0,%ecx
 804d5c3:	8b 14 8a             	mov    (%edx,%ecx,4),%edx
 804d5c6:	66 89 15 ea e6 1f 08 	mov    %dx,0x81fe6ea
 804d5cd:	89 15 ee e6 1f 08    	mov    %edx,0x81fe6ee
 804d5d3:	a1 e8 e6 1f 08       	mov    0x81fe6e8,%eax
 804d5d8:	a3 44 57 05 08       	mov    %eax,0x8055744
 804d5dd:	c7 05 40 57 05 08 41 	movl   $0x41,0x8055740
 804d5e4:	00 00 00 
 804d5e7:	c7 05 70 e8 5f 08 8d 	movl   $0xcc00018d,0x85fe870
 804d5ee:	01 00 cc 
 804d5f1:	a1 44 57 05 08       	mov    0x8055744,%eax
 804d5f6:	8b 15 40 57 05 08    	mov    0x8055740,%edx
 804d5fc:	c7 05 70 e8 5f 08 8e 	movl   $0xcc00018e,0x85fe870
 804d603:	01 00 cc 
 804d606:	a3 e0 e6 1f 08       	mov    %eax,0x81fe6e0
 804d60b:	89 15 e4 e6 1f 08    	mov    %edx,0x81fe6e4
 804d611:	c7 05 70 e8 5f 08 8f 	movl   $0xcc00018f,0x85fe870
 804d618:	01 00 cc 
 804d61b:	b8 00 00 00 00       	mov    $0x0,%eax
 804d620:	b9 00 00 00 00       	mov    $0x0,%ecx
 804d625:	c7 05 f0 e6 1f 08 01 	movl   $0x1,0x81fe6f0
 804d62c:	00 00 00 
 804d62f:	c7 05 70 e8 5f 08 90 	movl   $0xcc000190,0x85fe870
 804d636:	01 00 cc 
 804d639:	66 a1 e0 e6 1f 08    	mov    0x81fe6e0,%ax
 804d63f:	66 8b 0d e4 e6 1f 08 	mov    0x81fe6e4,%cx
 804d646:	66 8b 0c 4d 40 97 16 	mov    0x8169740(,%ecx,2),%cx
 804d64d:	08 
 804d64e:	8b 14 85 20 96 06 08 	mov    0x8069620(,%eax,4),%edx
 804d655:	8b 14 8a             	mov    (%edx,%ecx,4),%edx
 804d658:	8b 14 95 20 96 06 08 	mov    0x8069620(,%edx,4),%edx
 804d65f:	8b 0d f0 e6 1f 08    	mov    0x81fe6f0,%ecx
 804d665:	8b 14 8a             	mov    (%edx,%ecx,4),%edx
 804d668:	66 89 15 e8 e6 1f 08 	mov    %dx,0x81fe6e8
 804d66f:	89 15 ee e6 1f 08    	mov    %edx,0x81fe6ee
 804d675:	c7 05 70 e8 5f 08 91 	movl   $0xcc000191,0x85fe870
 804d67c:	01 00 cc 
 804d67f:	66 a1 e2 e6 1f 08    	mov    0x81fe6e2,%ax
 804d685:	66 8b 0d e6 e6 1f 08 	mov    0x81fe6e6,%cx
 804d68c:	66 8b 0c 4d 40 97 16 	mov    0x8169740(,%ecx,2),%cx
 804d693:	08 
 804d694:	8b 14 85 20 96 06 08 	mov    0x8069620(,%eax,4),%edx
 804d69b:	8b 14 8a             	mov    (%edx,%ecx,4),%edx
 804d69e:	8b 14 95 20 96 06 08 	mov    0x8069620(,%edx,4),%edx
 804d6a5:	8b 0d f0 e6 1f 08    	mov    0x81fe6f0,%ecx
 804d6ab:	8b 14 8a             	mov    (%edx,%ecx,4),%edx
 804d6ae:	66 89 15 ea e6 1f 08 	mov    %dx,0x81fe6ea
 804d6b5:	89 15 ee e6 1f 08    	mov    %edx,0x81fe6ee
 804d6bb:	a1 e8 e6 1f 08       	mov    0x81fe6e8,%eax
 804d6c0:	a3 44 57 05 08       	mov    %eax,0x8055744
 804d6c5:	c7 05 70 e8 5f 08 92 	movl   $0xcc000192,0x85fe870
 804d6cc:	01 00 cc 
 804d6cf:	a1 48 57 05 08       	mov    0x8055748,%eax
 804d6d4:	8b 15 44 57 05 08    	mov    0x8055744,%edx
 804d6da:	c7 05 70 e8 5f 08 93 	movl   $0xcc000193,0x85fe870
 804d6e1:	01 00 cc 
 804d6e4:	a3 e0 e6 1f 08       	mov    %eax,0x81fe6e0
 804d6e9:	89 15 e4 e6 1f 08    	mov    %edx,0x81fe6e4
 804d6ef:	c7 05 70 e8 5f 08 94 	movl   $0xcc000194,0x85fe870
 804d6f6:	01 00 cc 
 804d6f9:	c7 05 70 e8 5f 08 95 	movl   $0xcc000195,0x85fe870
 804d700:	01 00 cc 
 804d703:	b8 00 00 00 00       	mov    $0x0,%eax
 804d708:	ba 00 00 00 00       	mov    $0x0,%edx
 804d70d:	a0 e0 e6 1f 08       	mov    0x81fe6e0,%al
 804d712:	8a 15 e4 e6 1f 08    	mov    0x81fe6e4,%dl
 804d718:	8b 04 85 60 9c 19 08 	mov    0x8199c60(,%eax,4),%eax
 804d71f:	8a 04 10             	mov    (%eax,%edx,1),%al
 804d722:	a2 e8 e6 1f 08       	mov    %al,0x81fe6e8
 804d727:	c7 05 70 e8 5f 08 96 	movl   $0xcc000196,0x85fe870
 804d72e:	01 00 cc 
 804d731:	b8 00 00 00 00       	mov    $0x0,%eax
 804d736:	ba 00 00 00 00       	mov    $0x0,%edx
 804d73b:	a0 e1 e6 1f 08       	mov    0x81fe6e1,%al
 804d740:	8a 15 e5 e6 1f 08    	mov    0x81fe6e5,%dl
 804d746:	8b 04 85 60 9c 19 08 	mov    0x8199c60(,%eax,4),%eax
 804d74d:	8a 04 10             	mov    (%eax,%edx,1),%al
 804d750:	a2 e9 e6 1f 08       	mov    %al,0x81fe6e9
 804d755:	c7 05 70 e8 5f 08 97 	movl   $0xcc000197,0x85fe870
 804d75c:	01 00 cc 
 804d75f:	b8 00 00 00 00       	mov    $0x0,%eax
 804d764:	ba 00 00 00 00       	mov    $0x0,%edx
 804d769:	a0 e2 e6 1f 08       	mov    0x81fe6e2,%al
 804d76e:	8a 15 e6 e6 1f 08    	mov    0x81fe6e6,%dl
 804d774:	8b 04 85 60 9c 19 08 	mov    0x8199c60(,%eax,4),%eax
 804d77b:	8a 04 10             	mov    (%eax,%edx,1),%al
 804d77e:	a2 ea e6 1f 08       	mov    %al,0x81fe6ea
 804d783:	c7 05 70 e8 5f 08 98 	movl   $0xcc000198,0x85fe870
 804d78a:	01 00 cc 
 804d78d:	b8 00 00 00 00       	mov    $0x0,%eax
 804d792:	ba 00 00 00 00       	mov    $0x0,%edx
 804d797:	a0 e3 e6 1f 08       	mov    0x81fe6e3,%al
 804d79c:	8a 15 e7 e6 1f 08    	mov    0x81fe6e7,%dl
 804d7a2:	8b 04 85 60 9c 19 08 	mov    0x8199c60(,%eax,4),%eax
 804d7a9:	8a 04 10             	mov    (%eax,%edx,1),%al
 804d7ac:	a2 eb e6 1f 08       	mov    %al,0x81fe6eb
 804d7b1:	a1 e8 e6 1f 08       	mov    0x81fe6e8,%eax
 804d7b6:	a3 48 57 05 08       	mov    %eax,0x8055748
 804d7bb:	c7 05 70 e8 5f 08 99 	movl   $0xcc000199,0x85fe870
 804d7c2:	01 00 cc 
 804d7c5:	a1 24 e8 3f 08       	mov    0x83fe824,%eax
 804d7ca:	ba 8a ff ff ff       	mov    $0xffffff8a,%edx
 804d7cf:	c7 05 70 e8 5f 08 9a 	movl   $0xcc00019a,0x85fe870
 804d7d6:	01 00 cc 
 804d7d9:	a3 e0 e6 1f 08       	mov    %eax,0x81fe6e0
 804d7de:	89 15 e4 e6 1f 08    	mov    %edx,0x81fe6e4
 804d7e4:	c7 05 70 e8 5f 08 9b 	movl   $0xcc00019b,0x85fe870
 804d7eb:	01 00 cc 
 804d7ee:	b8 00 00 00 00       	mov    $0x0,%eax
 804d7f3:	b9 00 00 00 00       	mov    $0x0,%ecx
 804d7f8:	c7 05 f0 e6 1f 08 00 	movl   $0x0,0x81fe6f0
 804d7ff:	00 00 00 
 804d802:	c7 05 70 e8 5f 08 9c 	movl   $0xcc00019c,0x85fe870
 804d809:	01 00 cc 
 804d80c:	66 a1 e0 e6 1f 08    	mov    0x81fe6e0,%ax
 804d812:	66 8b 0d e4 e6 1f 08 	mov    0x81fe6e4,%cx
 804d819:	8b 14 85 20 96 06 08 	mov    0x8069620(,%eax,4),%edx
 804d820:	8b 14 8a             	mov    (%edx,%ecx,4),%edx
 804d823:	66 8b 0d f2 e6 1f 08 	mov    0x81fe6f2,%cx
 804d82a:	8b 14 95 20 96 06 08 	mov    0x8069620(,%edx,4),%edx
 804d831:	8b 14 8a             	mov    (%edx,%ecx,4),%edx
 804d834:	66 89 15 e8 e6 1f 08 	mov    %dx,0x81fe6e8
 804d83b:	89 15 f0 e6 1f 08    	mov    %edx,0x81fe6f0
 804d841:	c7 05 70 e8 5f 08 9d 	movl   $0xcc00019d,0x85fe870
 804d848:	01 00 cc 
 804d84b:	66 a1 e2 e6 1f 08    	mov    0x81fe6e2,%ax
 804d851:	66 8b 0d e6 e6 1f 08 	mov    0x81fe6e6,%cx
 804d858:	8b 14 85 20 96 06 08 	mov    0x8069620(,%eax,4),%edx
 804d85f:	8b 14 8a             	mov    (%edx,%ecx,4),%edx
 804d862:	66 8b 0d f2 e6 1f 08 	mov    0x81fe6f2,%cx
 804d869:	8b 14 95 20 96 06 08 	mov    0x8069620(,%edx,4),%edx
 804d870:	8b 14 8a             	mov    (%edx,%ecx,4),%edx
 804d873:	66 89 15 ea e6 1f 08 	mov    %dx,0x81fe6ea
 804d87a:	89 15 f0 e6 1f 08    	mov    %edx,0x81fe6f0
 804d880:	a1 e8 e6 1f 08       	mov    0x81fe6e8,%eax
 804d885:	a3 44 57 05 08       	mov    %eax,0x8055744
 804d88a:	c7 05 70 e8 5f 08 9e 	movl   $0xcc00019e,0x85fe870
 804d891:	01 00 cc 
 804d894:	a1 44 57 05 08       	mov    0x8055744,%eax
 804d899:	8b 15 48 e8 3f 08    	mov    0x83fe848,%edx
 804d89f:	c7 05 70 e8 5f 08 9f 	movl   $0xcc00019f,0x85fe870
 804d8a6:	01 00 cc 
 804d8a9:	a3 64 e8 3f 08       	mov    %eax,0x83fe864
 804d8ae:	8b 04 95 60 e8 3f 08 	mov    0x83fe860(,%edx,4),%eax
 804d8b5:	ba 00 00 00 00       	mov    $0x0,%edx
 804d8ba:	8a 10                	mov    (%eax),%dl
 804d8bc:	89 15 40 57 05 08    	mov    %edx,0x8055740
 804d8c2:	c7 05 70 e8 5f 08 a0 	movl   $0xcc0001a0,0x85fe870
 804d8c9:	01 00 cc 
 804d8cc:	ba 00 00 00 00       	mov    $0x0,%edx
 804d8d1:	8a 15 40 57 05 08    	mov    0x8055740,%dl
 804d8d7:	8b 14 95 60 e2 1f 08 	mov    0x81fe260(,%edx,4),%edx
 804d8de:	89 15 44 57 05 08    	mov    %edx,0x8055744
 804d8e4:	c7 05 40 57 05 08 13 	movl   $0x13,0x8055740
 804d8eb:	00 00 00 
 804d8ee:	c7 05 70 e8 5f 08 a1 	movl   $0xcc0001a1,0x85fe870
 804d8f5:	01 00 cc 
 804d8f8:	a1 44 57 05 08       	mov    0x8055744,%eax
 804d8fd:	8b 15 40 57 05 08    	mov    0x8055740,%edx
 804d903:	c7 05 70 e8 5f 08 a2 	movl   $0xcc0001a2,0x85fe870
 804d90a:	01 00 cc 
 804d90d:	a3 e0 e6 1f 08       	mov    %eax,0x81fe6e0
 804d912:	89 15 e4 e6 1f 08    	mov    %edx,0x81fe6e4
 804d918:	c7 05 70 e8 5f 08 a3 	movl   $0xcc0001a3,0x85fe870
 804d91f:	01 00 cc 
 804d922:	b8 00 00 00 00       	mov    $0x0,%eax
 804d927:	b9 00 00 00 00       	mov    $0x0,%ecx
 804d92c:	c7 05 f0 e6 1f 08 00 	movl   $0x0,0x81fe6f0
 804d933:	00 00 00 
 804d936:	c7 05 70 e8 5f 08 a4 	movl   $0xcc0001a4,0x85fe870
 804d93d:	01 00 cc 
 804d940:	66 a1 e0 e6 1f 08    	mov    0x81fe6e0,%ax
 804d946:	66 8b 0d e4 e6 1f 08 	mov    0x81fe6e4,%cx
 804d94d:	8b 14 85 20 96 06 08 	mov    0x8069620(,%eax,4),%edx
 804d954:	8b 14 8a             	mov    (%edx,%ecx,4),%edx
 804d957:	66 8b 0d f2 e6 1f 08 	mov    0x81fe6f2,%cx
 804d95e:	8b 14 95 20 96 06 08 	mov    0x8069620(,%edx,4),%edx
 804d965:	8b 14 8a             	mov    (%edx,%ecx,4),%edx
 804d968:	66 89 15 e8 e6 1f 08 	mov    %dx,0x81fe6e8
 804d96f:	89 15 f0 e6 1f 08    	mov    %edx,0x81fe6f0
 804d975:	c7 05 70 e8 5f 08 a5 	movl   $0xcc0001a5,0x85fe870
 804d97c:	01 00 cc 
 804d97f:	66 a1 e2 e6 1f 08    	mov    0x81fe6e2,%ax
 804d985:	66 8b 0d e6 e6 1f 08 	mov    0x81fe6e6,%cx
 804d98c:	8b 14 85 20 96 06 08 	mov    0x8069620(,%eax,4),%edx
 804d993:	8b 14 8a             	mov    (%edx,%ecx,4),%edx
 804d996:	66 8b 0d f2 e6 1f 08 	mov    0x81fe6f2,%cx
 804d99d:	8b 14 95 20 96 06 08 	mov    0x8069620(,%edx,4),%edx
 804d9a4:	8b 14 8a             	mov    (%edx,%ecx,4),%edx
 804d9a7:	66 89 15 ea e6 1f 08 	mov    %dx,0x81fe6ea
 804d9ae:	89 15 f0 e6 1f 08    	mov    %edx,0x81fe6f0
 804d9b4:	a1 e8 e6 1f 08       	mov    0x81fe6e8,%eax
 804d9b9:	a3 44 57 05 08       	mov    %eax,0x8055744
 804d9be:	c7 05 40 57 05 08 48 	movl   $0x48,0x8055740
 804d9c5:	00 00 00 
 804d9c8:	c7 05 70 e8 5f 08 a6 	movl   $0xcc0001a6,0x85fe870
 804d9cf:	01 00 cc 
 804d9d2:	a1 44 57 05 08       	mov    0x8055744,%eax
 804d9d7:	8b 15 40 57 05 08    	mov    0x8055740,%edx
 804d9dd:	c7 05 70 e8 5f 08 a7 	movl   $0xcc0001a7,0x85fe870
 804d9e4:	01 00 cc 
 804d9e7:	a3 e0 e6 1f 08       	mov    %eax,0x81fe6e0
 804d9ec:	89 15 e4 e6 1f 08    	mov    %edx,0x81fe6e4
 804d9f2:	c7 05 70 e8 5f 08 a8 	movl   $0xcc0001a8,0x85fe870
 804d9f9:	01 00 cc 
 804d9fc:	c7 05 70 e8 5f 08 a9 	movl   $0xcc0001a9,0x85fe870
 804da03:	01 00 cc 
 804da06:	b8 00 00 00 00       	mov    $0x0,%eax
 804da0b:	ba 00 00 00 00       	mov    $0x0,%edx
 804da10:	a0 e0 e6 1f 08       	mov    0x81fe6e0,%al
 804da15:	8a 15 e4 e6 1f 08    	mov    0x81fe6e4,%dl
 804da1b:	8b 04 85 70 a1 1a 08 	mov    0x81aa170(,%eax,4),%eax
 804da22:	8a 04 10             	mov    (%eax,%edx,1),%al
 804da25:	a2 e8 e6 1f 08       	mov    %al,0x81fe6e8
 804da2a:	c7 05 70 e8 5f 08 aa 	movl   $0xcc0001aa,0x85fe870
 804da31:	01 00 cc 
 804da34:	b8 00 00 00 00       	mov    $0x0,%eax
 804da39:	ba 00 00 00 00       	mov    $0x0,%edx
 804da3e:	a0 e1 e6 1f 08       	mov    0x81fe6e1,%al
 804da43:	8a 15 e5 e6 1f 08    	mov    0x81fe6e5,%dl
 804da49:	8b 04 85 70 a1 1a 08 	mov    0x81aa170(,%eax,4),%eax
 804da50:	8a 04 10             	mov    (%eax,%edx,1),%al
 804da53:	a2 e9 e6 1f 08       	mov    %al,0x81fe6e9
 804da58:	c7 05 70 e8 5f 08 ab 	movl   $0xcc0001ab,0x85fe870
 804da5f:	01 00 cc 
 804da62:	b8 00 00 00 00       	mov    $0x0,%eax
 804da67:	ba 00 00 00 00       	mov    $0x0,%edx
 804da6c:	a0 e2 e6 1f 08       	mov    0x81fe6e2,%al
 804da71:	8a 15 e6 e6 1f 08    	mov    0x81fe6e6,%dl
 804da77:	8b 04 85 70 a1 1a 08 	mov    0x81aa170(,%eax,4),%eax
 804da7e:	8a 04 10             	mov    (%eax,%edx,1),%al
 804da81:	a2 ea e6 1f 08       	mov    %al,0x81fe6ea
 804da86:	c7 05 70 e8 5f 08 ac 	movl   $0xcc0001ac,0x85fe870
 804da8d:	01 00 cc 
 804da90:	b8 00 00 00 00       	mov    $0x0,%eax
 804da95:	ba 00 00 00 00       	mov    $0x0,%edx
 804da9a:	a0 e3 e6 1f 08       	mov    0x81fe6e3,%al
 804da9f:	8a 15 e7 e6 1f 08    	mov    0x81fe6e7,%dl
 804daa5:	8b 04 85 70 a1 1a 08 	mov    0x81aa170(,%eax,4),%eax
 804daac:	8a 04 10             	mov    (%eax,%edx,1),%al
 804daaf:	a2 eb e6 1f 08       	mov    %al,0x81fe6eb
 804dab4:	a1 e8 e6 1f 08       	mov    0x81fe6e8,%eax
 804dab9:	a3 44 57 05 08       	mov    %eax,0x8055744
 804dabe:	c7 05 70 e8 5f 08 ad 	movl   $0xcc0001ad,0x85fe870
 804dac5:	01 00 cc 
 804dac8:	a1 48 57 05 08       	mov    0x8055748,%eax
 804dacd:	8b 15 44 57 05 08    	mov    0x8055744,%edx
 804dad3:	c7 05 70 e8 5f 08 ae 	movl   $0xcc0001ae,0x85fe870
 804dada:	01 00 cc 
 804dadd:	a3 e0 e6 1f 08       	mov    %eax,0x81fe6e0
 804dae2:	89 15 e4 e6 1f 08    	mov    %edx,0x81fe6e4
 804dae8:	c7 05 70 e8 5f 08 af 	movl   $0xcc0001af,0x85fe870
 804daef:	01 00 cc 
 804daf2:	c7 05 70 e8 5f 08 b0 	movl   $0xcc0001b0,0x85fe870
 804daf9:	01 00 cc 
 804dafc:	b8 00 00 00 00       	mov    $0x0,%eax
 804db01:	ba 00 00 00 00       	mov    $0x0,%edx
 804db06:	a0 e0 e6 1f 08       	mov    0x81fe6e0,%al
 804db0b:	8a 15 e4 e6 1f 08    	mov    0x81fe6e4,%dl
 804db11:	8b 04 85 60 9c 19 08 	mov    0x8199c60(,%eax,4),%eax
 804db18:	8a 04 10             	mov    (%eax,%edx,1),%al
 804db1b:	a2 e8 e6 1f 08       	mov    %al,0x81fe6e8
 804db20:	c7 05 70 e8 5f 08 b1 	movl   $0xcc0001b1,0x85fe870
 804db27:	01 00 cc 
 804db2a:	b8 00 00 00 00       	mov    $0x0,%eax
 804db2f:	ba 00 00 00 00       	mov    $0x0,%edx
 804db34:	a0 e1 e6 1f 08       	mov    0x81fe6e1,%al
 804db39:	8a 15 e5 e6 1f 08    	mov    0x81fe6e5,%dl
 804db3f:	8b 04 85 60 9c 19 08 	mov    0x8199c60(,%eax,4),%eax
 804db46:	8a 04 10             	mov    (%eax,%edx,1),%al
 804db49:	a2 e9 e6 1f 08       	mov    %al,0x81fe6e9
 804db4e:	c7 05 70 e8 5f 08 b2 	movl   $0xcc0001b2,0x85fe870
 804db55:	01 00 cc 
 804db58:	b8 00 00 00 00       	mov    $0x0,%eax
 804db5d:	ba 00 00 00 00       	mov    $0x0,%edx
 804db62:	a0 e2 e6 1f 08       	mov    0x81fe6e2,%al
 804db67:	8a 15 e6 e6 1f 08    	mov    0x81fe6e6,%dl
 804db6d:	8b 04 85 60 9c 19 08 	mov    0x8199c60(,%eax,4),%eax
 804db74:	8a 04 10             	mov    (%eax,%edx,1),%al
 804db77:	a2 ea e6 1f 08       	mov    %al,0x81fe6ea
 804db7c:	c7 05 70 e8 5f 08 b3 	movl   $0xcc0001b3,0x85fe870
 804db83:	01 00 cc 
 804db86:	b8 00 00 00 00       	mov    $0x0,%eax
 804db8b:	ba 00 00 00 00       	mov    $0x0,%edx
 804db90:	a0 e3 e6 1f 08       	mov    0x81fe6e3,%al
 804db95:	8a 15 e7 e6 1f 08    	mov    0x81fe6e7,%dl
 804db9b:	8b 04 85 60 9c 19 08 	mov    0x8199c60(,%eax,4),%eax
 804dba2:	8a 04 10             	mov    (%eax,%edx,1),%al
 804dba5:	a2 eb e6 1f 08       	mov    %al,0x81fe6eb
 804dbaa:	a1 e8 e6 1f 08       	mov    0x81fe6e8,%eax
 804dbaf:	a3 48 57 05 08       	mov    %eax,0x8055748
 804dbb4:	c7 05 70 e8 5f 08 b4 	movl   $0xcc0001b4,0x85fe870
 804dbbb:	01 00 cc 
 804dbbe:	a1 24 e8 3f 08       	mov    0x83fe824,%eax
 804dbc3:	ba 8b ff ff ff       	mov    $0xffffff8b,%edx
 804dbc8:	c7 05 70 e8 5f 08 b5 	movl   $0xcc0001b5,0x85fe870
 804dbcf:	01 00 cc 
 804dbd2:	a3 e0 e6 1f 08       	mov    %eax,0x81fe6e0
 804dbd7:	89 15 e4 e6 1f 08    	mov    %edx,0x81fe6e4
 804dbdd:	c7 05 70 e8 5f 08 b6 	movl   $0xcc0001b6,0x85fe870
 804dbe4:	01 00 cc 
 804dbe7:	b8 00 00 00 00       	mov    $0x0,%eax
 804dbec:	b9 00 00 00 00       	mov    $0x0,%ecx
 804dbf1:	c7 05 f0 e6 1f 08 00 	movl   $0x0,0x81fe6f0
 804dbf8:	00 00 00 
 804dbfb:	c7 05 70 e8 5f 08 b7 	movl   $0xcc0001b7,0x85fe870
 804dc02:	01 00 cc 
 804dc05:	66 a1 e0 e6 1f 08    	mov    0x81fe6e0,%ax
 804dc0b:	66 8b 0d e4 e6 1f 08 	mov    0x81fe6e4,%cx
 804dc12:	8b 14 85 20 96 06 08 	mov    0x8069620(,%eax,4),%edx
 804dc19:	8b 14 8a             	mov    (%edx,%ecx,4),%edx
 804dc1c:	66 8b 0d f2 e6 1f 08 	mov    0x81fe6f2,%cx
 804dc23:	8b 14 95 20 96 06 08 	mov    0x8069620(,%edx,4),%edx
 804dc2a:	8b 14 8a             	mov    (%edx,%ecx,4),%edx
 804dc2d:	66 89 15 e8 e6 1f 08 	mov    %dx,0x81fe6e8
 804dc34:	89 15 f0 e6 1f 08    	mov    %edx,0x81fe6f0
 804dc3a:	c7 05 70 e8 5f 08 b8 	movl   $0xcc0001b8,0x85fe870
 804dc41:	01 00 cc 
 804dc44:	66 a1 e2 e6 1f 08    	mov    0x81fe6e2,%ax
 804dc4a:	66 8b 0d e6 e6 1f 08 	mov    0x81fe6e6,%cx
 804dc51:	8b 14 85 20 96 06 08 	mov    0x8069620(,%eax,4),%edx
 804dc58:	8b 14 8a             	mov    (%edx,%ecx,4),%edx
 804dc5b:	66 8b 0d f2 e6 1f 08 	mov    0x81fe6f2,%cx
 804dc62:	8b 14 95 20 96 06 08 	mov    0x8069620(,%edx,4),%edx
 804dc69:	8b 14 8a             	mov    (%edx,%ecx,4),%edx
 804dc6c:	66 89 15 ea e6 1f 08 	mov    %dx,0x81fe6ea
 804dc73:	89 15 f0 e6 1f 08    	mov    %edx,0x81fe6f0
 804dc79:	a1 e8 e6 1f 08       	mov    0x81fe6e8,%eax
 804dc7e:	a3 44 57 05 08       	mov    %eax,0x8055744
 804dc83:	c7 05 70 e8 5f 08 b9 	movl   $0xcc0001b9,0x85fe870
 804dc8a:	01 00 cc 
 804dc8d:	a1 44 57 05 08       	mov    0x8055744,%eax
 804dc92:	8b 15 48 e8 3f 08    	mov    0x83fe848,%edx
 804dc98:	c7 05 70 e8 5f 08 ba 	movl   $0xcc0001ba,0x85fe870
 804dc9f:	01 00 cc 
 804dca2:	a3 64 e8 3f 08       	mov    %eax,0x83fe864
 804dca7:	8b 04 95 60 e8 3f 08 	mov    0x83fe860(,%edx,4),%eax
 804dcae:	ba 00 00 00 00       	mov    $0x0,%edx
 804dcb3:	8a 10                	mov    (%eax),%dl
 804dcb5:	89 15 40 57 05 08    	mov    %edx,0x8055740
 804dcbb:	c7 05 70 e8 5f 08 bb 	movl   $0xcc0001bb,0x85fe870
 804dcc2:	01 00 cc 
 804dcc5:	ba 00 00 00 00       	mov    $0x0,%edx
 804dcca:	8a 15 40 57 05 08    	mov    0x8055740,%dl
 804dcd0:	8b 14 95 60 e2 1f 08 	mov    0x81fe260(,%edx,4),%edx
 804dcd7:	89 15 44 57 05 08    	mov    %edx,0x8055744
 804dcdd:	c7 05 70 e8 5f 08 bc 	movl   $0xcc0001bc,0x85fe870
 804dce4:	01 00 cc 
 804dce7:	a1 24 e8 3f 08       	mov    0x83fe824,%eax
 804dcec:	8b 80 98 ff df ff    	mov    -0x200068(%eax),%eax
 804dcf2:	8b 80 98 ff df ff    	mov    -0x200068(%eax),%eax
 804dcf8:	8b 80 98 ff df ff    	mov    -0x200068(%eax),%eax
 804dcfe:	8b 80 98 ff df ff    	mov    -0x200068(%eax),%eax
 804dd04:	8b 80 98 ff df ff    	mov    -0x200068(%eax),%eax
 804dd0a:	8b 80 98 ff df ff    	mov    -0x200068(%eax),%eax
 804dd10:	8b 80 98 ff df ff    	mov    -0x200068(%eax),%eax
 804dd16:	8b 80 98 ff df ff    	mov    -0x200068(%eax),%eax
 804dd1c:	8b 80 98 ff df ff    	mov    -0x200068(%eax),%eax
 804dd22:	8b 80 98 ff df ff    	mov    -0x200068(%eax),%eax
 804dd28:	8b 80 98 ff df ff    	mov    -0x200068(%eax),%eax
 804dd2e:	8b 80 98 ff df ff    	mov    -0x200068(%eax),%eax
 804dd34:	8b 80 98 ff df ff    	mov    -0x200068(%eax),%eax
 804dd3a:	8b 80 98 ff df ff    	mov    -0x200068(%eax),%eax
 804dd40:	8b 80 98 ff df ff    	mov    -0x200068(%eax),%eax
 804dd46:	8b 80 98 ff df ff    	mov    -0x200068(%eax),%eax
 804dd4c:	8b 80 98 ff df ff    	mov    -0x200068(%eax),%eax
 804dd52:	8b 80 98 ff df ff    	mov    -0x200068(%eax),%eax
 804dd58:	8b 80 98 ff df ff    	mov    -0x200068(%eax),%eax
 804dd5e:	8b 80 98 ff df ff    	mov    -0x200068(%eax),%eax
 804dd64:	8b 80 98 ff df ff    	mov    -0x200068(%eax),%eax
 804dd6a:	8b 80 98 ff df ff    	mov    -0x200068(%eax),%eax
 804dd70:	8b 80 98 ff df ff    	mov    -0x200068(%eax),%eax
 804dd76:	8b 80 98 ff df ff    	mov    -0x200068(%eax),%eax
 804dd7c:	8b 80 98 ff df ff    	mov    -0x200068(%eax),%eax
 804dd82:	8b 80 98 ff df ff    	mov    -0x200068(%eax),%eax
 804dd88:	8b 80 98 ff df ff    	mov    -0x200068(%eax),%eax
 804dd8e:	8b 80 98 ff df ff    	mov    -0x200068(%eax),%eax
 804dd94:	8b 80 98 ff df ff    	mov    -0x200068(%eax),%eax
 804dd9a:	8b 80 98 ff df ff    	mov    -0x200068(%eax),%eax
 804dda0:	8b 80 98 ff df ff    	mov    -0x200068(%eax),%eax
 804dda6:	8b 80 98 ff df ff    	mov    -0x200068(%eax),%eax
 804ddac:	8b 80 98 ff df ff    	mov    -0x200068(%eax),%eax
 804ddb2:	8b 80 98 ff df ff    	mov    -0x200068(%eax),%eax
 804ddb8:	8b 80 98 ff df ff    	mov    -0x200068(%eax),%eax
 804ddbe:	8b 80 98 ff df ff    	mov    -0x200068(%eax),%eax
 804ddc4:	8b 80 98 ff df ff    	mov    -0x200068(%eax),%eax
 804ddca:	a3 40 57 05 08       	mov    %eax,0x8055740
 804ddcf:	c7 05 70 e8 5f 08 bd 	movl   $0xcc0001bd,0x85fe870
 804ddd6:	01 00 cc 
 804ddd9:	a1 40 57 05 08       	mov    0x8055740,%eax
 804ddde:	8b 15 48 e8 3f 08    	mov    0x83fe848,%edx
 804dde4:	c7 05 70 e8 5f 08 be 	movl   $0xcc0001be,0x85fe870
 804ddeb:	01 00 cc 
 804ddee:	a3 64 e8 3f 08       	mov    %eax,0x83fe864
 804ddf3:	8b 04 95 60 e8 3f 08 	mov    0x83fe860(,%edx,4),%eax
 804ddfa:	8b 00                	mov    (%eax),%eax
 804ddfc:	a3 40 57 05 08       	mov    %eax,0x8055740
 804de01:	c7 05 70 e8 5f 08 bf 	movl   $0xcc0001bf,0x85fe870
 804de08:	01 00 cc 
 804de0b:	a1 44 57 05 08       	mov    0x8055744,%eax
 804de10:	8b 15 40 57 05 08    	mov    0x8055740,%edx
 804de16:	c7 05 70 e8 5f 08 c0 	movl   $0xcc0001c0,0x85fe870
 804de1d:	01 00 cc 
 804de20:	a3 e0 e6 1f 08       	mov    %eax,0x81fe6e0
 804de25:	89 15 e4 e6 1f 08    	mov    %edx,0x81fe6e4
 804de2b:	c7 05 70 e8 5f 08 c1 	movl   $0xcc0001c1,0x85fe870
 804de32:	01 00 cc 
 804de35:	b8 00 00 00 00       	mov    $0x0,%eax
 804de3a:	b9 00 00 00 00       	mov    $0x0,%ecx
 804de3f:	c7 05 f0 e6 1f 08 00 	movl   $0x0,0x81fe6f0
 804de46:	00 00 00 
 804de49:	c7 05 70 e8 5f 08 c2 	movl   $0xcc0001c2,0x85fe870
 804de50:	01 00 cc 
 804de53:	66 a1 e0 e6 1f 08    	mov    0x81fe6e0,%ax
 804de59:	66 8b 0d e4 e6 1f 08 	mov    0x81fe6e4,%cx
 804de60:	8b 14 85 20 96 06 08 	mov    0x8069620(,%eax,4),%edx
 804de67:	8b 14 8a             	mov    (%edx,%ecx,4),%edx
 804de6a:	66 8b 0d f2 e6 1f 08 	mov    0x81fe6f2,%cx
 804de71:	8b 14 95 20 96 06 08 	mov    0x8069620(,%edx,4),%edx
 804de78:	8b 14 8a             	mov    (%edx,%ecx,4),%edx
 804de7b:	66 89 15 e8 e6 1f 08 	mov    %dx,0x81fe6e8
 804de82:	89 15 f0 e6 1f 08    	mov    %edx,0x81fe6f0
 804de88:	c7 05 70 e8 5f 08 c3 	movl   $0xcc0001c3,0x85fe870
 804de8f:	01 00 cc 
 804de92:	66 a1 e2 e6 1f 08    	mov    0x81fe6e2,%ax
 804de98:	66 8b 0d e6 e6 1f 08 	mov    0x81fe6e6,%cx
 804de9f:	8b 14 85 20 96 06 08 	mov    0x8069620(,%eax,4),%edx
 804dea6:	8b 14 8a             	mov    (%edx,%ecx,4),%edx
 804dea9:	66 8b 0d f2 e6 1f 08 	mov    0x81fe6f2,%cx
 804deb0:	8b 14 95 20 96 06 08 	mov    0x8069620(,%edx,4),%edx
 804deb7:	8b 14 8a             	mov    (%edx,%ecx,4),%edx
 804deba:	66 89 15 ea e6 1f 08 	mov    %dx,0x81fe6ea
 804dec1:	89 15 f0 e6 1f 08    	mov    %edx,0x81fe6f0
 804dec7:	a1 e8 e6 1f 08       	mov    0x81fe6e8,%eax
 804decc:	a3 44 57 05 08       	mov    %eax,0x8055744
 804ded1:	c7 05 40 57 05 08 65 	movl   $0x65,0x8055740
 804ded8:	00 00 00 
 804dedb:	c7 05 70 e8 5f 08 c4 	movl   $0xcc0001c4,0x85fe870
 804dee2:	01 00 cc 
 804dee5:	a1 44 57 05 08       	mov    0x8055744,%eax
 804deea:	8b 15 40 57 05 08    	mov    0x8055740,%edx
 804def0:	c7 05 70 e8 5f 08 c5 	movl   $0xcc0001c5,0x85fe870
 804def7:	01 00 cc 
 804defa:	a3 e0 e6 1f 08       	mov    %eax,0x81fe6e0
 804deff:	89 15 e4 e6 1f 08    	mov    %edx,0x81fe6e4
 804df05:	c7 05 70 e8 5f 08 c6 	movl   $0xcc0001c6,0x85fe870
 804df0c:	01 00 cc 
 804df0f:	c7 05 70 e8 5f 08 c7 	movl   $0xcc0001c7,0x85fe870
 804df16:	01 00 cc 
 804df19:	b8 00 00 00 00       	mov    $0x0,%eax
 804df1e:	ba 00 00 00 00       	mov    $0x0,%edx
 804df23:	a0 e0 e6 1f 08       	mov    0x81fe6e0,%al
 804df28:	8a 15 e4 e6 1f 08    	mov    0x81fe6e4,%dl
 804df2e:	8b 04 85 70 a1 1a 08 	mov    0x81aa170(,%eax,4),%eax
 804df35:	8a 04 10             	mov    (%eax,%edx,1),%al
 804df38:	a2 e8 e6 1f 08       	mov    %al,0x81fe6e8
 804df3d:	c7 05 70 e8 5f 08 c8 	movl   $0xcc0001c8,0x85fe870
 804df44:	01 00 cc 
 804df47:	b8 00 00 00 00       	mov    $0x0,%eax
 804df4c:	ba 00 00 00 00       	mov    $0x0,%edx
 804df51:	a0 e1 e6 1f 08       	mov    0x81fe6e1,%al
 804df56:	8a 15 e5 e6 1f 08    	mov    0x81fe6e5,%dl
 804df5c:	8b 04 85 70 a1 1a 08 	mov    0x81aa170(,%eax,4),%eax
 804df63:	8a 04 10             	mov    (%eax,%edx,1),%al
 804df66:	a2 e9 e6 1f 08       	mov    %al,0x81fe6e9
 804df6b:	c7 05 70 e8 5f 08 c9 	movl   $0xcc0001c9,0x85fe870
 804df72:	01 00 cc 
 804df75:	b8 00 00 00 00       	mov    $0x0,%eax
 804df7a:	ba 00 00 00 00       	mov    $0x0,%edx
 804df7f:	a0 e2 e6 1f 08       	mov    0x81fe6e2,%al
 804df84:	8a 15 e6 e6 1f 08    	mov    0x81fe6e6,%dl
 804df8a:	8b 04 85 70 a1 1a 08 	mov    0x81aa170(,%eax,4),%eax
 804df91:	8a 04 10             	mov    (%eax,%edx,1),%al
 804df94:	a2 ea e6 1f 08       	mov    %al,0x81fe6ea
 804df99:	c7 05 70 e8 5f 08 ca 	movl   $0xcc0001ca,0x85fe870
 804dfa0:	01 00 cc 
 804dfa3:	b8 00 00 00 00       	mov    $0x0,%eax
 804dfa8:	ba 00 00 00 00       	mov    $0x0,%edx
 804dfad:	a0 e3 e6 1f 08       	mov    0x81fe6e3,%al
 804dfb2:	8a 15 e7 e6 1f 08    	mov    0x81fe6e7,%dl
 804dfb8:	8b 04 85 70 a1 1a 08 	mov    0x81aa170(,%eax,4),%eax
 804dfbf:	8a 04 10             	mov    (%eax,%edx,1),%al
 804dfc2:	a2 eb e6 1f 08       	mov    %al,0x81fe6eb
 804dfc7:	a1 e8 e6 1f 08       	mov    0x81fe6e8,%eax
 804dfcc:	a3 44 57 05 08       	mov    %eax,0x8055744
 804dfd1:	c7 05 70 e8 5f 08 cb 	movl   $0xcc0001cb,0x85fe870
 804dfd8:	01 00 cc 
 804dfdb:	a1 48 57 05 08       	mov    0x8055748,%eax
 804dfe0:	8b 15 44 57 05 08    	mov    0x8055744,%edx
 804dfe6:	c7 05 70 e8 5f 08 cc 	movl   $0xcc0001cc,0x85fe870
 804dfed:	01 00 cc 
 804dff0:	a3 e0 e6 1f 08       	mov    %eax,0x81fe6e0
 804dff5:	89 15 e4 e6 1f 08    	mov    %edx,0x81fe6e4
 804dffb:	c7 05 70 e8 5f 08 cd 	movl   $0xcc0001cd,0x85fe870
 804e002:	01 00 cc 
 804e005:	c7 05 70 e8 5f 08 ce 	movl   $0xcc0001ce,0x85fe870
 804e00c:	01 00 cc 
 804e00f:	b8 00 00 00 00       	mov    $0x0,%eax
 804e014:	ba 00 00 00 00       	mov    $0x0,%edx
 804e019:	a0 e0 e6 1f 08       	mov    0x81fe6e0,%al
 804e01e:	8a 15 e4 e6 1f 08    	mov    0x81fe6e4,%dl
 804e024:	8b 04 85 60 9c 19 08 	mov    0x8199c60(,%eax,4),%eax
 804e02b:	8a 04 10             	mov    (%eax,%edx,1),%al
 804e02e:	a2 e8 e6 1f 08       	mov    %al,0x81fe6e8
 804e033:	c7 05 70 e8 5f 08 cf 	movl   $0xcc0001cf,0x85fe870
 804e03a:	01 00 cc 
 804e03d:	b8 00 00 00 00       	mov    $0x0,%eax
 804e042:	ba 00 00 00 00       	mov    $0x0,%edx
 804e047:	a0 e1 e6 1f 08       	mov    0x81fe6e1,%al
 804e04c:	8a 15 e5 e6 1f 08    	mov    0x81fe6e5,%dl
 804e052:	8b 04 85 60 9c 19 08 	mov    0x8199c60(,%eax,4),%eax
 804e059:	8a 04 10             	mov    (%eax,%edx,1),%al
 804e05c:	a2 e9 e6 1f 08       	mov    %al,0x81fe6e9
 804e061:	c7 05 70 e8 5f 08 d0 	movl   $0xcc0001d0,0x85fe870
 804e068:	01 00 cc 
 804e06b:	b8 00 00 00 00       	mov    $0x0,%eax
 804e070:	ba 00 00 00 00       	mov    $0x0,%edx
 804e075:	a0 e2 e6 1f 08       	mov    0x81fe6e2,%al
 804e07a:	8a 15 e6 e6 1f 08    	mov    0x81fe6e6,%dl
 804e080:	8b 04 85 60 9c 19 08 	mov    0x8199c60(,%eax,4),%eax
 804e087:	8a 04 10             	mov    (%eax,%edx,1),%al
 804e08a:	a2 ea e6 1f 08       	mov    %al,0x81fe6ea
 804e08f:	c7 05 70 e8 5f 08 d1 	movl   $0xcc0001d1,0x85fe870
 804e096:	01 00 cc 
 804e099:	b8 00 00 00 00       	mov    $0x0,%eax
 804e09e:	ba 00 00 00 00       	mov    $0x0,%edx
 804e0a3:	a0 e3 e6 1f 08       	mov    0x81fe6e3,%al
 804e0a8:	8a 15 e7 e6 1f 08    	mov    0x81fe6e7,%dl
 804e0ae:	8b 04 85 60 9c 19 08 	mov    0x8199c60(,%eax,4),%eax
 804e0b5:	8a 04 10             	mov    (%eax,%edx,1),%al
 804e0b8:	a2 eb e6 1f 08       	mov    %al,0x81fe6eb
 804e0bd:	a1 e8 e6 1f 08       	mov    0x81fe6e8,%eax
 804e0c2:	a3 48 57 05 08       	mov    %eax,0x8055748
 804e0c7:	c7 05 70 e8 5f 08 d2 	movl   $0xcc0001d2,0x85fe870
 804e0ce:	01 00 cc 
 804e0d1:	a1 24 e8 3f 08       	mov    0x83fe824,%eax
 804e0d6:	8b 80 98 ff df ff    	mov    -0x200068(%eax),%eax
 804e0dc:	8b 80 98 ff df ff    	mov    -0x200068(%eax),%eax
 804e0e2:	8b 80 98 ff df ff    	mov    -0x200068(%eax),%eax
 804e0e8:	8b 80 98 ff df ff    	mov    -0x200068(%eax),%eax
 804e0ee:	8b 80 98 ff df ff    	mov    -0x200068(%eax),%eax
 804e0f4:	8b 80 98 ff df ff    	mov    -0x200068(%eax),%eax
 804e0fa:	8b 80 98 ff df ff    	mov    -0x200068(%eax),%eax
 804e100:	8b 80 98 ff df ff    	mov    -0x200068(%eax),%eax
 804e106:	8b 80 98 ff df ff    	mov    -0x200068(%eax),%eax
 804e10c:	8b 80 98 ff df ff    	mov    -0x200068(%eax),%eax
 804e112:	8b 80 98 ff df ff    	mov    -0x200068(%eax),%eax
 804e118:	8b 80 98 ff df ff    	mov    -0x200068(%eax),%eax
 804e11e:	8b 80 98 ff df ff    	mov    -0x200068(%eax),%eax
 804e124:	8b 80 98 ff df ff    	mov    -0x200068(%eax),%eax
 804e12a:	8b 80 98 ff df ff    	mov    -0x200068(%eax),%eax
 804e130:	8b 80 98 ff df ff    	mov    -0x200068(%eax),%eax
 804e136:	8b 80 98 ff df ff    	mov    -0x200068(%eax),%eax
 804e13c:	8b 80 98 ff df ff    	mov    -0x200068(%eax),%eax
 804e142:	8b 80 98 ff df ff    	mov    -0x200068(%eax),%eax
 804e148:	8b 80 98 ff df ff    	mov    -0x200068(%eax),%eax
 804e14e:	8b 80 98 ff df ff    	mov    -0x200068(%eax),%eax
 804e154:	8b 80 98 ff df ff    	mov    -0x200068(%eax),%eax
 804e15a:	8b 80 98 ff df ff    	mov    -0x200068(%eax),%eax
 804e160:	8b 80 98 ff df ff    	mov    -0x200068(%eax),%eax
 804e166:	8b 80 98 ff df ff    	mov    -0x200068(%eax),%eax
 804e16c:	8b 80 98 ff df ff    	mov    -0x200068(%eax),%eax
 804e172:	8b 80 98 ff df ff    	mov    -0x200068(%eax),%eax
 804e178:	8b 80 98 ff df ff    	mov    -0x200068(%eax),%eax
 804e17e:	8b 80 98 ff df ff    	mov    -0x200068(%eax),%eax
 804e184:	a3 44 57 05 08       	mov    %eax,0x8055744
 804e189:	c7 05 70 e8 5f 08 d3 	movl   $0xcc0001d3,0x85fe870
 804e190:	01 00 cc 
 804e193:	a1 44 57 05 08       	mov    0x8055744,%eax
 804e198:	8b 15 48 e8 3f 08    	mov    0x83fe848,%edx
 804e19e:	c7 05 70 e8 5f 08 d4 	movl   $0xcc0001d4,0x85fe870
 804e1a5:	01 00 cc 
 804e1a8:	a3 64 e8 3f 08       	mov    %eax,0x83fe864
 804e1ad:	8b 04 95 60 e8 3f 08 	mov    0x83fe860(,%edx,4),%eax
 804e1b4:	ba 00 00 00 00       	mov    $0x0,%edx
 804e1b9:	8a 10                	mov    (%eax),%dl
 804e1bb:	89 15 40 57 05 08    	mov    %edx,0x8055740
 804e1c1:	c7 05 70 e8 5f 08 d5 	movl   $0xcc0001d5,0x85fe870
 804e1c8:	01 00 cc 
 804e1cb:	ba 00 00 00 00       	mov    $0x0,%edx
 804e1d0:	8a 15 40 57 05 08    	mov    0x8055740,%dl
 804e1d6:	8b 14 95 60 e2 1f 08 	mov    0x81fe260(,%edx,4),%edx
 804e1dd:	89 15 44 57 05 08    	mov    %edx,0x8055744
 804e1e3:	c7 05 70 e8 5f 08 d6 	movl   $0xcc0001d6,0x85fe870
 804e1ea:	01 00 cc 
 804e1ed:	a1 24 e8 3f 08       	mov    0x83fe824,%eax
 804e1f2:	8b 80 98 ff df ff    	mov    -0x200068(%eax),%eax
 804e1f8:	8b 80 98 ff df ff    	mov    -0x200068(%eax),%eax
 804e1fe:	8b 80 98 ff df ff    	mov    -0x200068(%eax),%eax
 804e204:	8b 80 98 ff df ff    	mov    -0x200068(%eax),%eax
 804e20a:	8b 80 98 ff df ff    	mov    -0x200068(%eax),%eax
 804e210:	8b 80 98 ff df ff    	mov    -0x200068(%eax),%eax
 804e216:	8b 80 98 ff df ff    	mov    -0x200068(%eax),%eax
 804e21c:	8b 80 98 ff df ff    	mov    -0x200068(%eax),%eax
 804e222:	8b 80 98 ff df ff    	mov    -0x200068(%eax),%eax
 804e228:	8b 80 98 ff df ff    	mov    -0x200068(%eax),%eax
 804e22e:	8b 80 98 ff df ff    	mov    -0x200068(%eax),%eax
 804e234:	8b 80 98 ff df ff    	mov    -0x200068(%eax),%eax
 804e23a:	8b 80 98 ff df ff    	mov    -0x200068(%eax),%eax
 804e240:	8b 80 98 ff df ff    	mov    -0x200068(%eax),%eax
 804e246:	8b 80 98 ff df ff    	mov    -0x200068(%eax),%eax
 804e24c:	8b 80 98 ff df ff    	mov    -0x200068(%eax),%eax
 804e252:	8b 80 98 ff df ff    	mov    -0x200068(%eax),%eax
 804e258:	8b 80 98 ff df ff    	mov    -0x200068(%eax),%eax
 804e25e:	8b 80 98 ff df ff    	mov    -0x200068(%eax),%eax
 804e264:	8b 80 98 ff df ff    	mov    -0x200068(%eax),%eax
 804e26a:	8b 80 98 ff df ff    	mov    -0x200068(%eax),%eax
 804e270:	8b 80 98 ff df ff    	mov    -0x200068(%eax),%eax
 804e276:	8b 80 98 ff df ff    	mov    -0x200068(%eax),%eax
 804e27c:	8b 80 98 ff df ff    	mov    -0x200068(%eax),%eax
 804e282:	8b 80 98 ff df ff    	mov    -0x200068(%eax),%eax
 804e288:	8b 80 98 ff df ff    	mov    -0x200068(%eax),%eax
 804e28e:	8b 80 98 ff df ff    	mov    -0x200068(%eax),%eax
 804e294:	8b 80 98 ff df ff    	mov    -0x200068(%eax),%eax
 804e29a:	8b 80 98 ff df ff    	mov    -0x200068(%eax),%eax
 804e2a0:	8b 80 98 ff df ff    	mov    -0x200068(%eax),%eax
 804e2a6:	8b 80 98 ff df ff    	mov    -0x200068(%eax),%eax
 804e2ac:	8b 80 98 ff df ff    	mov    -0x200068(%eax),%eax
 804e2b2:	8b 80 98 ff df ff    	mov    -0x200068(%eax),%eax
 804e2b8:	8b 80 98 ff df ff    	mov    -0x200068(%eax),%eax
 804e2be:	8b 80 98 ff df ff    	mov    -0x200068(%eax),%eax
 804e2c4:	8b 80 98 ff df ff    	mov    -0x200068(%eax),%eax
 804e2ca:	8b 80 98 ff df ff    	mov    -0x200068(%eax),%eax
 804e2d0:	8b 80 98 ff df ff    	mov    -0x200068(%eax),%eax
 804e2d6:	a3 40 57 05 08       	mov    %eax,0x8055740
 804e2db:	c7 05 70 e8 5f 08 d7 	movl   $0xcc0001d7,0x85fe870
 804e2e2:	01 00 cc 
 804e2e5:	a1 40 57 05 08       	mov    0x8055740,%eax
 804e2ea:	8b 15 48 e8 3f 08    	mov    0x83fe848,%edx
 804e2f0:	c7 05 70 e8 5f 08 d8 	movl   $0xcc0001d8,0x85fe870
 804e2f7:	01 00 cc 
 804e2fa:	a3 64 e8 3f 08       	mov    %eax,0x83fe864
 804e2ff:	8b 04 95 60 e8 3f 08 	mov    0x83fe860(,%edx,4),%eax
 804e306:	8b 00                	mov    (%eax),%eax
 804e308:	a3 40 57 05 08       	mov    %eax,0x8055740
 804e30d:	c7 05 70 e8 5f 08 d9 	movl   $0xcc0001d9,0x85fe870
 804e314:	01 00 cc 
 804e317:	a1 44 57 05 08       	mov    0x8055744,%eax
 804e31c:	8b 15 40 57 05 08    	mov    0x8055740,%edx
 804e322:	c7 05 70 e8 5f 08 da 	movl   $0xcc0001da,0x85fe870
 804e329:	01 00 cc 
 804e32c:	a3 e0 e6 1f 08       	mov    %eax,0x81fe6e0
 804e331:	89 15 e4 e6 1f 08    	mov    %edx,0x81fe6e4
 804e337:	c7 05 70 e8 5f 08 db 	movl   $0xcc0001db,0x85fe870
 804e33e:	01 00 cc 
 804e341:	b8 00 00 00 00       	mov    $0x0,%eax
 804e346:	b9 00 00 00 00       	mov    $0x0,%ecx
 804e34b:	c7 05 f0 e6 1f 08 00 	movl   $0x0,0x81fe6f0
 804e352:	00 00 00 
 804e355:	c7 05 70 e8 5f 08 dc 	movl   $0xcc0001dc,0x85fe870
 804e35c:	01 00 cc 
 804e35f:	66 a1 e0 e6 1f 08    	mov    0x81fe6e0,%ax
 804e365:	66 8b 0d e4 e6 1f 08 	mov    0x81fe6e4,%cx
 804e36c:	8b 14 85 20 96 06 08 	mov    0x8069620(,%eax,4),%edx
 804e373:	8b 14 8a             	mov    (%edx,%ecx,4),%edx
 804e376:	66 8b 0d f2 e6 1f 08 	mov    0x81fe6f2,%cx
 804e37d:	8b 14 95 20 96 06 08 	mov    0x8069620(,%edx,4),%edx
 804e384:	8b 14 8a             	mov    (%edx,%ecx,4),%edx
 804e387:	66 89 15 e8 e6 1f 08 	mov    %dx,0x81fe6e8
 804e38e:	89 15 f0 e6 1f 08    	mov    %edx,0x81fe6f0
 804e394:	c7 05 70 e8 5f 08 dd 	movl   $0xcc0001dd,0x85fe870
 804e39b:	01 00 cc 
 804e39e:	66 a1 e2 e6 1f 08    	mov    0x81fe6e2,%ax
 804e3a4:	66 8b 0d e6 e6 1f 08 	mov    0x81fe6e6,%cx
 804e3ab:	8b 14 85 20 96 06 08 	mov    0x8069620(,%eax,4),%edx
 804e3b2:	8b 14 8a             	mov    (%edx,%ecx,4),%edx
 804e3b5:	66 8b 0d f2 e6 1f 08 	mov    0x81fe6f2,%cx
 804e3bc:	8b 14 95 20 96 06 08 	mov    0x8069620(,%edx,4),%edx
 804e3c3:	8b 14 8a             	mov    (%edx,%ecx,4),%edx
 804e3c6:	66 89 15 ea e6 1f 08 	mov    %dx,0x81fe6ea
 804e3cd:	89 15 f0 e6 1f 08    	mov    %edx,0x81fe6f0
 804e3d3:	a1 e8 e6 1f 08       	mov    0x81fe6e8,%eax
 804e3d8:	a3 44 57 05 08       	mov    %eax,0x8055744
 804e3dd:	c7 05 70 e8 5f 08 de 	movl   $0xcc0001de,0x85fe870
 804e3e4:	01 00 cc 
 804e3e7:	a1 24 e8 3f 08       	mov    0x83fe824,%eax
 804e3ec:	8b 80 98 ff df ff    	mov    -0x200068(%eax),%eax
 804e3f2:	8b 80 98 ff df ff    	mov    -0x200068(%eax),%eax
 804e3f8:	8b 80 98 ff df ff    	mov    -0x200068(%eax),%eax
 804e3fe:	8b 80 98 ff df ff    	mov    -0x200068(%eax),%eax
 804e404:	8b 80 98 ff df ff    	mov    -0x200068(%eax),%eax
 804e40a:	8b 80 98 ff df ff    	mov    -0x200068(%eax),%eax
 804e410:	8b 80 98 ff df ff    	mov    -0x200068(%eax),%eax
 804e416:	8b 80 98 ff df ff    	mov    -0x200068(%eax),%eax
 804e41c:	8b 80 98 ff df ff    	mov    -0x200068(%eax),%eax
 804e422:	8b 80 98 ff df ff    	mov    -0x200068(%eax),%eax
 804e428:	8b 80 98 ff df ff    	mov    -0x200068(%eax),%eax
 804e42e:	8b 80 98 ff df ff    	mov    -0x200068(%eax),%eax
 804e434:	8b 80 98 ff df ff    	mov    -0x200068(%eax),%eax
 804e43a:	8b 80 98 ff df ff    	mov    -0x200068(%eax),%eax
 804e440:	8b 80 98 ff df ff    	mov    -0x200068(%eax),%eax
 804e446:	8b 80 98 ff df ff    	mov    -0x200068(%eax),%eax
 804e44c:	8b 80 98 ff df ff    	mov    -0x200068(%eax),%eax
 804e452:	8b 80 98 ff df ff    	mov    -0x200068(%eax),%eax
 804e458:	8b 80 98 ff df ff    	mov    -0x200068(%eax),%eax
 804e45e:	8b 80 98 ff df ff    	mov    -0x200068(%eax),%eax
 804e464:	8b 80 98 ff df ff    	mov    -0x200068(%eax),%eax
 804e46a:	8b 80 98 ff df ff    	mov    -0x200068(%eax),%eax
 804e470:	8b 80 98 ff df ff    	mov    -0x200068(%eax),%eax
 804e476:	8b 80 98 ff df ff    	mov    -0x200068(%eax),%eax
 804e47c:	8b 80 98 ff df ff    	mov    -0x200068(%eax),%eax
 804e482:	8b 80 98 ff df ff    	mov    -0x200068(%eax),%eax
 804e488:	8b 80 98 ff df ff    	mov    -0x200068(%eax),%eax
 804e48e:	8b 80 98 ff df ff    	mov    -0x200068(%eax),%eax
 804e494:	8b 80 98 ff df ff    	mov    -0x200068(%eax),%eax
 804e49a:	8b 80 98 ff df ff    	mov    -0x200068(%eax),%eax
 804e4a0:	8b 80 98 ff df ff    	mov    -0x200068(%eax),%eax
 804e4a6:	8b 80 98 ff df ff    	mov    -0x200068(%eax),%eax
 804e4ac:	8b 80 98 ff df ff    	mov    -0x200068(%eax),%eax
 804e4b2:	8b 80 98 ff df ff    	mov    -0x200068(%eax),%eax
 804e4b8:	8b 80 98 ff df ff    	mov    -0x200068(%eax),%eax
 804e4be:	a3 40 57 05 08       	mov    %eax,0x8055740
 804e4c3:	c7 05 70 e8 5f 08 df 	movl   $0xcc0001df,0x85fe870
 804e4ca:	01 00 cc 
 804e4cd:	a1 40 57 05 08       	mov    0x8055740,%eax
 804e4d2:	8b 15 48 e8 3f 08    	mov    0x83fe848,%edx
 804e4d8:	c7 05 70 e8 5f 08 e0 	movl   $0xcc0001e0,0x85fe870
 804e4df:	01 00 cc 
 804e4e2:	a3 64 e8 3f 08       	mov    %eax,0x83fe864
 804e4e7:	8b 04 95 60 e8 3f 08 	mov    0x83fe860(,%edx,4),%eax
 804e4ee:	8b 00                	mov    (%eax),%eax
 804e4f0:	a3 40 57 05 08       	mov    %eax,0x8055740
 804e4f5:	c7 05 70 e8 5f 08 e1 	movl   $0xcc0001e1,0x85fe870
 804e4fc:	01 00 cc 
 804e4ff:	a1 44 57 05 08       	mov    0x8055744,%eax
 804e504:	8b 15 40 57 05 08    	mov    0x8055740,%edx
 804e50a:	c7 05 70 e8 5f 08 e2 	movl   $0xcc0001e2,0x85fe870
 804e511:	01 00 cc 
 804e514:	a3 e0 e6 1f 08       	mov    %eax,0x81fe6e0
 804e519:	89 15 e4 e6 1f 08    	mov    %edx,0x81fe6e4
 804e51f:	c7 05 70 e8 5f 08 e3 	movl   $0xcc0001e3,0x85fe870
 804e526:	01 00 cc 
 804e529:	b8 00 00 00 00       	mov    $0x0,%eax
 804e52e:	b9 00 00 00 00       	mov    $0x0,%ecx
 804e533:	c7 05 f0 e6 1f 08 01 	movl   $0x1,0x81fe6f0
 804e53a:	00 00 00 
 804e53d:	c7 05 70 e8 5f 08 e4 	movl   $0xcc0001e4,0x85fe870
 804e544:	01 00 cc 
 804e547:	66 a1 e0 e6 1f 08    	mov    0x81fe6e0,%ax
 804e54d:	66 8b 0d e4 e6 1f 08 	mov    0x81fe6e4,%cx
 804e554:	66 8b 0c 4d 40 97 16 	mov    0x8169740(,%ecx,2),%cx
 804e55b:	08 
 804e55c:	8b 14 85 20 96 06 08 	mov    0x8069620(,%eax,4),%edx
 804e563:	8b 14 8a             	mov    (%edx,%ecx,4),%edx
 804e566:	8b 14 95 20 96 06 08 	mov    0x8069620(,%edx,4),%edx
 804e56d:	8b 0d f0 e6 1f 08    	mov    0x81fe6f0,%ecx
 804e573:	8b 14 8a             	mov    (%edx,%ecx,4),%edx
 804e576:	66 89 15 e8 e6 1f 08 	mov    %dx,0x81fe6e8
 804e57d:	89 15 ee e6 1f 08    	mov    %edx,0x81fe6ee
 804e583:	c7 05 70 e8 5f 08 e5 	movl   $0xcc0001e5,0x85fe870
 804e58a:	01 00 cc 
 804e58d:	66 a1 e2 e6 1f 08    	mov    0x81fe6e2,%ax
 804e593:	66 8b 0d e6 e6 1f 08 	mov    0x81fe6e6,%cx
 804e59a:	66 8b 0c 4d 40 97 16 	mov    0x8169740(,%ecx,2),%cx
 804e5a1:	08 
 804e5a2:	8b 14 85 20 96 06 08 	mov    0x8069620(,%eax,4),%edx
 804e5a9:	8b 14 8a             	mov    (%edx,%ecx,4),%edx
 804e5ac:	8b 14 95 20 96 06 08 	mov    0x8069620(,%edx,4),%edx
 804e5b3:	8b 0d f0 e6 1f 08    	mov    0x81fe6f0,%ecx
 804e5b9:	8b 14 8a             	mov    (%edx,%ecx,4),%edx
 804e5bc:	66 89 15 ea e6 1f 08 	mov    %dx,0x81fe6ea
 804e5c3:	89 15 ee e6 1f 08    	mov    %edx,0x81fe6ee
 804e5c9:	a1 e8 e6 1f 08       	mov    0x81fe6e8,%eax
 804e5ce:	a3 44 57 05 08       	mov    %eax,0x8055744
 804e5d3:	c7 05 70 e8 5f 08 e6 	movl   $0xcc0001e6,0x85fe870
 804e5da:	01 00 cc 
 804e5dd:	a1 48 57 05 08       	mov    0x8055748,%eax
 804e5e2:	8b 15 44 57 05 08    	mov    0x8055744,%edx
 804e5e8:	c7 05 70 e8 5f 08 e7 	movl   $0xcc0001e7,0x85fe870
 804e5ef:	01 00 cc 
 804e5f2:	a3 e0 e6 1f 08       	mov    %eax,0x81fe6e0
 804e5f7:	89 15 e4 e6 1f 08    	mov    %edx,0x81fe6e4
 804e5fd:	c7 05 70 e8 5f 08 e8 	movl   $0xcc0001e8,0x85fe870
 804e604:	01 00 cc 
 804e607:	c7 05 70 e8 5f 08 e9 	movl   $0xcc0001e9,0x85fe870
 804e60e:	01 00 cc 
 804e611:	b8 00 00 00 00       	mov    $0x0,%eax
 804e616:	ba 00 00 00 00       	mov    $0x0,%edx
 804e61b:	a0 e0 e6 1f 08       	mov    0x81fe6e0,%al
 804e620:	8a 15 e4 e6 1f 08    	mov    0x81fe6e4,%dl
 804e626:	8b 04 85 60 9c 19 08 	mov    0x8199c60(,%eax,4),%eax
 804e62d:	8a 04 10             	mov    (%eax,%edx,1),%al
 804e630:	a2 e8 e6 1f 08       	mov    %al,0x81fe6e8
 804e635:	c7 05 70 e8 5f 08 ea 	movl   $0xcc0001ea,0x85fe870
 804e63c:	01 00 cc 
 804e63f:	b8 00 00 00 00       	mov    $0x0,%eax
 804e644:	ba 00 00 00 00       	mov    $0x0,%edx
 804e649:	a0 e1 e6 1f 08       	mov    0x81fe6e1,%al
 804e64e:	8a 15 e5 e6 1f 08    	mov    0x81fe6e5,%dl
 804e654:	8b 04 85 60 9c 19 08 	mov    0x8199c60(,%eax,4),%eax
 804e65b:	8a 04 10             	mov    (%eax,%edx,1),%al
 804e65e:	a2 e9 e6 1f 08       	mov    %al,0x81fe6e9
 804e663:	c7 05 70 e8 5f 08 eb 	movl   $0xcc0001eb,0x85fe870
 804e66a:	01 00 cc 
 804e66d:	b8 00 00 00 00       	mov    $0x0,%eax
 804e672:	ba 00 00 00 00       	mov    $0x0,%edx
 804e677:	a0 e2 e6 1f 08       	mov    0x81fe6e2,%al
 804e67c:	8a 15 e6 e6 1f 08    	mov    0x81fe6e6,%dl
 804e682:	8b 04 85 60 9c 19 08 	mov    0x8199c60(,%eax,4),%eax
 804e689:	8a 04 10             	mov    (%eax,%edx,1),%al
 804e68c:	a2 ea e6 1f 08       	mov    %al,0x81fe6ea
 804e691:	c7 05 70 e8 5f 08 ec 	movl   $0xcc0001ec,0x85fe870
 804e698:	01 00 cc 
 804e69b:	b8 00 00 00 00       	mov    $0x0,%eax
 804e6a0:	ba 00 00 00 00       	mov    $0x0,%edx
 804e6a5:	a0 e3 e6 1f 08       	mov    0x81fe6e3,%al
 804e6aa:	8a 15 e7 e6 1f 08    	mov    0x81fe6e7,%dl
 804e6b0:	8b 04 85 60 9c 19 08 	mov    0x8199c60(,%eax,4),%eax
 804e6b7:	8a 04 10             	mov    (%eax,%edx,1),%al
 804e6ba:	a2 eb e6 1f 08       	mov    %al,0x81fe6eb
 804e6bf:	a1 e8 e6 1f 08       	mov    0x81fe6e8,%eax
 804e6c4:	a3 48 57 05 08       	mov    %eax,0x8055748
 804e6c9:	c7 05 70 e8 5f 08 ed 	movl   $0xcc0001ed,0x85fe870
 804e6d0:	01 00 cc 
 804e6d3:	a1 24 e8 3f 08       	mov    0x83fe824,%eax
 804e6d8:	ba 8d ff ff ff       	mov    $0xffffff8d,%edx
 804e6dd:	c7 05 70 e8 5f 08 ee 	movl   $0xcc0001ee,0x85fe870
 804e6e4:	01 00 cc 
 804e6e7:	a3 e0 e6 1f 08       	mov    %eax,0x81fe6e0
 804e6ec:	89 15 e4 e6 1f 08    	mov    %edx,0x81fe6e4
 804e6f2:	c7 05 70 e8 5f 08 ef 	movl   $0xcc0001ef,0x85fe870
 804e6f9:	01 00 cc 
 804e6fc:	b8 00 00 00 00       	mov    $0x0,%eax
 804e701:	b9 00 00 00 00       	mov    $0x0,%ecx
 804e706:	c7 05 f0 e6 1f 08 00 	movl   $0x0,0x81fe6f0
 804e70d:	00 00 00 
 804e710:	c7 05 70 e8 5f 08 f0 	movl   $0xcc0001f0,0x85fe870
 804e717:	01 00 cc 
 804e71a:	66 a1 e0 e6 1f 08    	mov    0x81fe6e0,%ax
 804e720:	66 8b 0d e4 e6 1f 08 	mov    0x81fe6e4,%cx
 804e727:	8b 14 85 20 96 06 08 	mov    0x8069620(,%eax,4),%edx
 804e72e:	8b 14 8a             	mov    (%edx,%ecx,4),%edx
 804e731:	66 8b 0d f2 e6 1f 08 	mov    0x81fe6f2,%cx
 804e738:	8b 14 95 20 96 06 08 	mov    0x8069620(,%edx,4),%edx
 804e73f:	8b 14 8a             	mov    (%edx,%ecx,4),%edx
 804e742:	66 89 15 e8 e6 1f 08 	mov    %dx,0x81fe6e8
 804e749:	89 15 f0 e6 1f 08    	mov    %edx,0x81fe6f0
 804e74f:	c7 05 70 e8 5f 08 f1 	movl   $0xcc0001f1,0x85fe870
 804e756:	01 00 cc 
 804e759:	66 a1 e2 e6 1f 08    	mov    0x81fe6e2,%ax
 804e75f:	66 8b 0d e6 e6 1f 08 	mov    0x81fe6e6,%cx
 804e766:	8b 14 85 20 96 06 08 	mov    0x8069620(,%eax,4),%edx
 804e76d:	8b 14 8a             	mov    (%edx,%ecx,4),%edx
 804e770:	66 8b 0d f2 e6 1f 08 	mov    0x81fe6f2,%cx
 804e777:	8b 14 95 20 96 06 08 	mov    0x8069620(,%edx,4),%edx
 804e77e:	8b 14 8a             	mov    (%edx,%ecx,4),%edx
 804e781:	66 89 15 ea e6 1f 08 	mov    %dx,0x81fe6ea
 804e788:	89 15 f0 e6 1f 08    	mov    %edx,0x81fe6f0
 804e78e:	a1 e8 e6 1f 08       	mov    0x81fe6e8,%eax
 804e793:	a3 44 57 05 08       	mov    %eax,0x8055744
 804e798:	c7 05 70 e8 5f 08 f2 	movl   $0xcc0001f2,0x85fe870
 804e79f:	01 00 cc 
 804e7a2:	a1 44 57 05 08       	mov    0x8055744,%eax
 804e7a7:	8b 15 48 e8 3f 08    	mov    0x83fe848,%edx
 804e7ad:	c7 05 70 e8 5f 08 f3 	movl   $0xcc0001f3,0x85fe870
 804e7b4:	01 00 cc 
 804e7b7:	a3 64 e8 3f 08       	mov    %eax,0x83fe864
 804e7bc:	8b 04 95 60 e8 3f 08 	mov    0x83fe860(,%edx,4),%eax
 804e7c3:	ba 00 00 00 00       	mov    $0x0,%edx
 804e7c8:	8a 10                	mov    (%eax),%dl
 804e7ca:	89 15 40 57 05 08    	mov    %edx,0x8055740
 804e7d0:	c7 05 70 e8 5f 08 f4 	movl   $0xcc0001f4,0x85fe870
 804e7d7:	01 00 cc 
 804e7da:	ba 00 00 00 00       	mov    $0x0,%edx
 804e7df:	8a 15 40 57 05 08    	mov    0x8055740,%dl
 804e7e5:	8b 14 95 60 e2 1f 08 	mov    0x81fe260(,%edx,4),%edx
 804e7ec:	89 15 44 57 05 08    	mov    %edx,0x8055744
 804e7f2:	c7 05 70 e8 5f 08 f5 	movl   $0xcc0001f5,0x85fe870
 804e7f9:	01 00 cc 
 804e7fc:	a1 24 e8 3f 08       	mov    0x83fe824,%eax
 804e801:	8b 80 98 ff df ff    	mov    -0x200068(%eax),%eax
 804e807:	8b 80 98 ff df ff    	mov    -0x200068(%eax),%eax
 804e80d:	8b 80 98 ff df ff    	mov    -0x200068(%eax),%eax
 804e813:	8b 80 98 ff df ff    	mov    -0x200068(%eax),%eax
 804e819:	8b 80 98 ff df ff    	mov    -0x200068(%eax),%eax
 804e81f:	8b 80 98 ff df ff    	mov    -0x200068(%eax),%eax
 804e825:	8b 80 98 ff df ff    	mov    -0x200068(%eax),%eax
 804e82b:	8b 80 98 ff df ff    	mov    -0x200068(%eax),%eax
 804e831:	8b 80 98 ff df ff    	mov    -0x200068(%eax),%eax
 804e837:	8b 80 98 ff df ff    	mov    -0x200068(%eax),%eax
 804e83d:	8b 80 98 ff df ff    	mov    -0x200068(%eax),%eax
 804e843:	8b 80 98 ff df ff    	mov    -0x200068(%eax),%eax
 804e849:	8b 80 98 ff df ff    	mov    -0x200068(%eax),%eax
 804e84f:	8b 80 98 ff df ff    	mov    -0x200068(%eax),%eax
 804e855:	8b 80 98 ff df ff    	mov    -0x200068(%eax),%eax
 804e85b:	8b 80 98 ff df ff    	mov    -0x200068(%eax),%eax
 804e861:	8b 80 98 ff df ff    	mov    -0x200068(%eax),%eax
 804e867:	8b 80 98 ff df ff    	mov    -0x200068(%eax),%eax
 804e86d:	8b 80 98 ff df ff    	mov    -0x200068(%eax),%eax
 804e873:	8b 80 98 ff df ff    	mov    -0x200068(%eax),%eax
 804e879:	8b 80 98 ff df ff    	mov    -0x200068(%eax),%eax
 804e87f:	8b 80 98 ff df ff    	mov    -0x200068(%eax),%eax
 804e885:	8b 80 98 ff df ff    	mov    -0x200068(%eax),%eax
 804e88b:	8b 80 98 ff df ff    	mov    -0x200068(%eax),%eax
 804e891:	8b 80 98 ff df ff    	mov    -0x200068(%eax),%eax
 804e897:	8b 80 98 ff df ff    	mov    -0x200068(%eax),%eax
 804e89d:	8b 80 98 ff df ff    	mov    -0x200068(%eax),%eax
 804e8a3:	8b 80 98 ff df ff    	mov    -0x200068(%eax),%eax
 804e8a9:	8b 80 98 ff df ff    	mov    -0x200068(%eax),%eax
 804e8af:	8b 80 98 ff df ff    	mov    -0x200068(%eax),%eax
 804e8b5:	8b 80 98 ff df ff    	mov    -0x200068(%eax),%eax
 804e8bb:	8b 80 98 ff df ff    	mov    -0x200068(%eax),%eax
 804e8c1:	8b 80 98 ff df ff    	mov    -0x200068(%eax),%eax
 804e8c7:	8b 80 98 ff df ff    	mov    -0x200068(%eax),%eax
 804e8cd:	8b 80 98 ff df ff    	mov    -0x200068(%eax),%eax
 804e8d3:	8b 80 98 ff df ff    	mov    -0x200068(%eax),%eax
 804e8d9:	8b 80 98 ff df ff    	mov    -0x200068(%eax),%eax
 804e8df:	8b 80 98 ff df ff    	mov    -0x200068(%eax),%eax
 804e8e5:	a3 40 57 05 08       	mov    %eax,0x8055740
 804e8ea:	c7 05 70 e8 5f 08 f6 	movl   $0xcc0001f6,0x85fe870
 804e8f1:	01 00 cc 
 804e8f4:	a1 40 57 05 08       	mov    0x8055740,%eax
 804e8f9:	8b 15 48 e8 3f 08    	mov    0x83fe848,%edx
 804e8ff:	c7 05 70 e8 5f 08 f7 	movl   $0xcc0001f7,0x85fe870
 804e906:	01 00 cc 
 804e909:	a3 64 e8 3f 08       	mov    %eax,0x83fe864
 804e90e:	8b 04 95 60 e8 3f 08 	mov    0x83fe860(,%edx,4),%eax
 804e915:	8b 00                	mov    (%eax),%eax
 804e917:	a3 40 57 05 08       	mov    %eax,0x8055740
 804e91c:	c7 05 70 e8 5f 08 f8 	movl   $0xcc0001f8,0x85fe870
 804e923:	01 00 cc 
 804e926:	a1 44 57 05 08       	mov    0x8055744,%eax
 804e92b:	8b 15 40 57 05 08    	mov    0x8055740,%edx
 804e931:	c7 05 70 e8 5f 08 f9 	movl   $0xcc0001f9,0x85fe870
 804e938:	01 00 cc 
 804e93b:	a3 e0 e6 1f 08       	mov    %eax,0x81fe6e0
 804e940:	89 15 e4 e6 1f 08    	mov    %edx,0x81fe6e4
 804e946:	c7 05 70 e8 5f 08 fa 	movl   $0xcc0001fa,0x85fe870
 804e94d:	01 00 cc 
 804e950:	b8 00 00 00 00       	mov    $0x0,%eax
 804e955:	b9 00 00 00 00       	mov    $0x0,%ecx
 804e95a:	c7 05 f0 e6 1f 08 00 	movl   $0x0,0x81fe6f0
 804e961:	00 00 00 
 804e964:	c7 05 70 e8 5f 08 fb 	movl   $0xcc0001fb,0x85fe870
 804e96b:	01 00 cc 
 804e96e:	66 a1 e0 e6 1f 08    	mov    0x81fe6e0,%ax
 804e974:	66 8b 0d e4 e6 1f 08 	mov    0x81fe6e4,%cx
 804e97b:	8b 14 85 20 96 06 08 	mov    0x8069620(,%eax,4),%edx
 804e982:	8b 14 8a             	mov    (%edx,%ecx,4),%edx
 804e985:	66 8b 0d f2 e6 1f 08 	mov    0x81fe6f2,%cx
 804e98c:	8b 14 95 20 96 06 08 	mov    0x8069620(,%edx,4),%edx
 804e993:	8b 14 8a             	mov    (%edx,%ecx,4),%edx
 804e996:	66 89 15 e8 e6 1f 08 	mov    %dx,0x81fe6e8
 804e99d:	89 15 f0 e6 1f 08    	mov    %edx,0x81fe6f0
 804e9a3:	c7 05 70 e8 5f 08 fc 	movl   $0xcc0001fc,0x85fe870
 804e9aa:	01 00 cc 
 804e9ad:	66 a1 e2 e6 1f 08    	mov    0x81fe6e2,%ax
 804e9b3:	66 8b 0d e6 e6 1f 08 	mov    0x81fe6e6,%cx
 804e9ba:	8b 14 85 20 96 06 08 	mov    0x8069620(,%eax,4),%edx
 804e9c1:	8b 14 8a             	mov    (%edx,%ecx,4),%edx
 804e9c4:	66 8b 0d f2 e6 1f 08 	mov    0x81fe6f2,%cx
 804e9cb:	8b 14 95 20 96 06 08 	mov    0x8069620(,%edx,4),%edx
 804e9d2:	8b 14 8a             	mov    (%edx,%ecx,4),%edx
 804e9d5:	66 89 15 ea e6 1f 08 	mov    %dx,0x81fe6ea
 804e9dc:	89 15 f0 e6 1f 08    	mov    %edx,0x81fe6f0
 804e9e2:	a1 e8 e6 1f 08       	mov    0x81fe6e8,%eax
 804e9e7:	a3 44 57 05 08       	mov    %eax,0x8055744
 804e9ec:	c7 05 40 57 05 08 56 	movl   $0x56,0x8055740
 804e9f3:	00 00 00 
 804e9f6:	c7 05 70 e8 5f 08 fd 	movl   $0xcc0001fd,0x85fe870
 804e9fd:	01 00 cc 
 804ea00:	a1 44 57 05 08       	mov    0x8055744,%eax
 804ea05:	8b 15 40 57 05 08    	mov    0x8055740,%edx
 804ea0b:	c7 05 70 e8 5f 08 fe 	movl   $0xcc0001fe,0x85fe870
 804ea12:	01 00 cc 
 804ea15:	a3 e0 e6 1f 08       	mov    %eax,0x81fe6e0
 804ea1a:	89 15 e4 e6 1f 08    	mov    %edx,0x81fe6e4
 804ea20:	c7 05 70 e8 5f 08 ff 	movl   $0xcc0001ff,0x85fe870
 804ea27:	01 00 cc 
 804ea2a:	c7 05 70 e8 5f 08 00 	movl   $0xcc000200,0x85fe870
 804ea31:	02 00 cc 
 804ea34:	b8 00 00 00 00       	mov    $0x0,%eax
 804ea39:	ba 00 00 00 00       	mov    $0x0,%edx
 804ea3e:	a0 e0 e6 1f 08       	mov    0x81fe6e0,%al
 804ea43:	8a 15 e4 e6 1f 08    	mov    0x81fe6e4,%dl
 804ea49:	8b 04 85 70 a1 1a 08 	mov    0x81aa170(,%eax,4),%eax
 804ea50:	8a 04 10             	mov    (%eax,%edx,1),%al
 804ea53:	a2 e8 e6 1f 08       	mov    %al,0x81fe6e8
 804ea58:	c7 05 70 e8 5f 08 01 	movl   $0xcc000201,0x85fe870
 804ea5f:	02 00 cc 
 804ea62:	b8 00 00 00 00       	mov    $0x0,%eax
 804ea67:	ba 00 00 00 00       	mov    $0x0,%edx
 804ea6c:	a0 e1 e6 1f 08       	mov    0x81fe6e1,%al
 804ea71:	8a 15 e5 e6 1f 08    	mov    0x81fe6e5,%dl
 804ea77:	8b 04 85 70 a1 1a 08 	mov    0x81aa170(,%eax,4),%eax
 804ea7e:	8a 04 10             	mov    (%eax,%edx,1),%al
 804ea81:	a2 e9 e6 1f 08       	mov    %al,0x81fe6e9
 804ea86:	c7 05 70 e8 5f 08 02 	movl   $0xcc000202,0x85fe870
 804ea8d:	02 00 cc 
 804ea90:	b8 00 00 00 00       	mov    $0x0,%eax
 804ea95:	ba 00 00 00 00       	mov    $0x0,%edx
 804ea9a:	a0 e2 e6 1f 08       	mov    0x81fe6e2,%al
 804ea9f:	8a 15 e6 e6 1f 08    	mov    0x81fe6e6,%dl
 804eaa5:	8b 04 85 70 a1 1a 08 	mov    0x81aa170(,%eax,4),%eax
 804eaac:	8a 04 10             	mov    (%eax,%edx,1),%al
 804eaaf:	a2 ea e6 1f 08       	mov    %al,0x81fe6ea
 804eab4:	c7 05 70 e8 5f 08 03 	movl   $0xcc000203,0x85fe870
 804eabb:	02 00 cc 
 804eabe:	b8 00 00 00 00       	mov    $0x0,%eax
 804eac3:	ba 00 00 00 00       	mov    $0x0,%edx
 804eac8:	a0 e3 e6 1f 08       	mov    0x81fe6e3,%al
 804eacd:	8a 15 e7 e6 1f 08    	mov    0x81fe6e7,%dl
 804ead3:	8b 04 85 70 a1 1a 08 	mov    0x81aa170(,%eax,4),%eax
 804eada:	8a 04 10             	mov    (%eax,%edx,1),%al
 804eadd:	a2 eb e6 1f 08       	mov    %al,0x81fe6eb
 804eae2:	a1 e8 e6 1f 08       	mov    0x81fe6e8,%eax
 804eae7:	a3 44 57 05 08       	mov    %eax,0x8055744
 804eaec:	c7 05 70 e8 5f 08 04 	movl   $0xcc000204,0x85fe870
 804eaf3:	02 00 cc 
 804eaf6:	a1 48 57 05 08       	mov    0x8055748,%eax
 804eafb:	8b 15 44 57 05 08    	mov    0x8055744,%edx
 804eb01:	c7 05 70 e8 5f 08 05 	movl   $0xcc000205,0x85fe870
 804eb08:	02 00 cc 
 804eb0b:	a3 e0 e6 1f 08       	mov    %eax,0x81fe6e0
 804eb10:	89 15 e4 e6 1f 08    	mov    %edx,0x81fe6e4
 804eb16:	c7 05 70 e8 5f 08 06 	movl   $0xcc000206,0x85fe870
 804eb1d:	02 00 cc 
 804eb20:	c7 05 70 e8 5f 08 07 	movl   $0xcc000207,0x85fe870
 804eb27:	02 00 cc 
 804eb2a:	b8 00 00 00 00       	mov    $0x0,%eax
 804eb2f:	ba 00 00 00 00       	mov    $0x0,%edx
 804eb34:	a0 e0 e6 1f 08       	mov    0x81fe6e0,%al
 804eb39:	8a 15 e4 e6 1f 08    	mov    0x81fe6e4,%dl
 804eb3f:	8b 04 85 60 9c 19 08 	mov    0x8199c60(,%eax,4),%eax
 804eb46:	8a 04 10             	mov    (%eax,%edx,1),%al
 804eb49:	a2 e8 e6 1f 08       	mov    %al,0x81fe6e8
 804eb4e:	c7 05 70 e8 5f 08 08 	movl   $0xcc000208,0x85fe870
 804eb55:	02 00 cc 
 804eb58:	b8 00 00 00 00       	mov    $0x0,%eax
 804eb5d:	ba 00 00 00 00       	mov    $0x0,%edx
 804eb62:	a0 e1 e6 1f 08       	mov    0x81fe6e1,%al
 804eb67:	8a 15 e5 e6 1f 08    	mov    0x81fe6e5,%dl
 804eb6d:	8b 04 85 60 9c 19 08 	mov    0x8199c60(,%eax,4),%eax
 804eb74:	8a 04 10             	mov    (%eax,%edx,1),%al
 804eb77:	a2 e9 e6 1f 08       	mov    %al,0x81fe6e9
 804eb7c:	c7 05 70 e8 5f 08 09 	movl   $0xcc000209,0x85fe870
 804eb83:	02 00 cc 
 804eb86:	b8 00 00 00 00       	mov    $0x0,%eax
 804eb8b:	ba 00 00 00 00       	mov    $0x0,%edx
 804eb90:	a0 e2 e6 1f 08       	mov    0x81fe6e2,%al
 804eb95:	8a 15 e6 e6 1f 08    	mov    0x81fe6e6,%dl
 804eb9b:	8b 04 85 60 9c 19 08 	mov    0x8199c60(,%eax,4),%eax
 804eba2:	8a 04 10             	mov    (%eax,%edx,1),%al
 804eba5:	a2 ea e6 1f 08       	mov    %al,0x81fe6ea
 804ebaa:	c7 05 70 e8 5f 08 0a 	movl   $0xcc00020a,0x85fe870
 804ebb1:	02 00 cc 
 804ebb4:	b8 00 00 00 00       	mov    $0x0,%eax
 804ebb9:	ba 00 00 00 00       	mov    $0x0,%edx
 804ebbe:	a0 e3 e6 1f 08       	mov    0x81fe6e3,%al
 804ebc3:	8a 15 e7 e6 1f 08    	mov    0x81fe6e7,%dl
 804ebc9:	8b 04 85 60 9c 19 08 	mov    0x8199c60(,%eax,4),%eax
 804ebd0:	8a 04 10             	mov    (%eax,%edx,1),%al
 804ebd3:	a2 eb e6 1f 08       	mov    %al,0x81fe6eb
 804ebd8:	a1 e8 e6 1f 08       	mov    0x81fe6e8,%eax
 804ebdd:	a3 48 57 05 08       	mov    %eax,0x8055748
 804ebe2:	c7 05 70 e8 5f 08 0b 	movl   $0xcc00020b,0x85fe870
 804ebe9:	02 00 cc 
 804ebec:	a1 24 e8 3f 08       	mov    0x83fe824,%eax
 804ebf1:	ba 8e ff ff ff       	mov    $0xffffff8e,%edx
 804ebf6:	c7 05 70 e8 5f 08 0c 	movl   $0xcc00020c,0x85fe870
 804ebfd:	02 00 cc 
 804ec00:	a3 e0 e6 1f 08       	mov    %eax,0x81fe6e0
 804ec05:	89 15 e4 e6 1f 08    	mov    %edx,0x81fe6e4
 804ec0b:	c7 05 70 e8 5f 08 0d 	movl   $0xcc00020d,0x85fe870
 804ec12:	02 00 cc 
 804ec15:	b8 00 00 00 00       	mov    $0x0,%eax
 804ec1a:	b9 00 00 00 00       	mov    $0x0,%ecx
 804ec1f:	c7 05 f0 e6 1f 08 00 	movl   $0x0,0x81fe6f0
 804ec26:	00 00 00 
 804ec29:	c7 05 70 e8 5f 08 0e 	movl   $0xcc00020e,0x85fe870
 804ec30:	02 00 cc 
 804ec33:	66 a1 e0 e6 1f 08    	mov    0x81fe6e0,%ax
 804ec39:	66 8b 0d e4 e6 1f 08 	mov    0x81fe6e4,%cx
 804ec40:	8b 14 85 20 96 06 08 	mov    0x8069620(,%eax,4),%edx
 804ec47:	8b 14 8a             	mov    (%edx,%ecx,4),%edx
 804ec4a:	66 8b 0d f2 e6 1f 08 	mov    0x81fe6f2,%cx
 804ec51:	8b 14 95 20 96 06 08 	mov    0x8069620(,%edx,4),%edx
 804ec58:	8b 14 8a             	mov    (%edx,%ecx,4),%edx
 804ec5b:	66 89 15 e8 e6 1f 08 	mov    %dx,0x81fe6e8
 804ec62:	89 15 f0 e6 1f 08    	mov    %edx,0x81fe6f0
 804ec68:	c7 05 70 e8 5f 08 0f 	movl   $0xcc00020f,0x85fe870
 804ec6f:	02 00 cc 
 804ec72:	66 a1 e2 e6 1f 08    	mov    0x81fe6e2,%ax
 804ec78:	66 8b 0d e6 e6 1f 08 	mov    0x81fe6e6,%cx
 804ec7f:	8b 14 85 20 96 06 08 	mov    0x8069620(,%eax,4),%edx
 804ec86:	8b 14 8a             	mov    (%edx,%ecx,4),%edx
 804ec89:	66 8b 0d f2 e6 1f 08 	mov    0x81fe6f2,%cx
 804ec90:	8b 14 95 20 96 06 08 	mov    0x8069620(,%edx,4),%edx
 804ec97:	8b 14 8a             	mov    (%edx,%ecx,4),%edx
 804ec9a:	66 89 15 ea e6 1f 08 	mov    %dx,0x81fe6ea
 804eca1:	89 15 f0 e6 1f 08    	mov    %edx,0x81fe6f0
 804eca7:	a1 e8 e6 1f 08       	mov    0x81fe6e8,%eax
 804ecac:	a3 44 57 05 08       	mov    %eax,0x8055744
 804ecb1:	c7 05 70 e8 5f 08 10 	movl   $0xcc000210,0x85fe870
 804ecb8:	02 00 cc 
 804ecbb:	a1 44 57 05 08       	mov    0x8055744,%eax
 804ecc0:	8b 15 48 e8 3f 08    	mov    0x83fe848,%edx
 804ecc6:	c7 05 70 e8 5f 08 11 	movl   $0xcc000211,0x85fe870
 804eccd:	02 00 cc 
 804ecd0:	a3 64 e8 3f 08       	mov    %eax,0x83fe864
 804ecd5:	8b 04 95 60 e8 3f 08 	mov    0x83fe860(,%edx,4),%eax
 804ecdc:	ba 00 00 00 00       	mov    $0x0,%edx
 804ece1:	8a 10                	mov    (%eax),%dl
 804ece3:	89 15 40 57 05 08    	mov    %edx,0x8055740
 804ece9:	c7 05 70 e8 5f 08 12 	movl   $0xcc000212,0x85fe870
 804ecf0:	02 00 cc 
 804ecf3:	ba 00 00 00 00       	mov    $0x0,%edx
 804ecf8:	8a 15 40 57 05 08    	mov    0x8055740,%dl
 804ecfe:	8b 14 95 60 e2 1f 08 	mov    0x81fe260(,%edx,4),%edx
 804ed05:	89 15 44 57 05 08    	mov    %edx,0x8055744
 804ed0b:	c7 05 40 57 05 08 03 	movl   $0x3,0x8055740
 804ed12:	00 00 00 
 804ed15:	c7 05 70 e8 5f 08 13 	movl   $0xcc000213,0x85fe870
 804ed1c:	02 00 cc 
 804ed1f:	a1 44 57 05 08       	mov    0x8055744,%eax
 804ed24:	8b 15 40 57 05 08    	mov    0x8055740,%edx
 804ed2a:	c7 05 70 e8 5f 08 14 	movl   $0xcc000214,0x85fe870
 804ed31:	02 00 cc 
 804ed34:	a3 e0 e6 1f 08       	mov    %eax,0x81fe6e0
 804ed39:	89 15 e4 e6 1f 08    	mov    %edx,0x81fe6e4
 804ed3f:	c7 05 70 e8 5f 08 15 	movl   $0xcc000215,0x85fe870
 804ed46:	02 00 cc 
 804ed49:	b8 00 00 00 00       	mov    $0x0,%eax
 804ed4e:	b9 00 00 00 00       	mov    $0x0,%ecx
 804ed53:	c7 05 f0 e6 1f 08 00 	movl   $0x0,0x81fe6f0
 804ed5a:	00 00 00 
 804ed5d:	c7 05 70 e8 5f 08 16 	movl   $0xcc000216,0x85fe870
 804ed64:	02 00 cc 
 804ed67:	66 a1 e0 e6 1f 08    	mov    0x81fe6e0,%ax
 804ed6d:	66 8b 0d e4 e6 1f 08 	mov    0x81fe6e4,%cx
 804ed74:	8b 14 85 20 96 06 08 	mov    0x8069620(,%eax,4),%edx
 804ed7b:	8b 14 8a             	mov    (%edx,%ecx,4),%edx
 804ed7e:	66 8b 0d f2 e6 1f 08 	mov    0x81fe6f2,%cx
 804ed85:	8b 14 95 20 96 06 08 	mov    0x8069620(,%edx,4),%edx
 804ed8c:	8b 14 8a             	mov    (%edx,%ecx,4),%edx
 804ed8f:	66 89 15 e8 e6 1f 08 	mov    %dx,0x81fe6e8
 804ed96:	89 15 f0 e6 1f 08    	mov    %edx,0x81fe6f0
 804ed9c:	c7 05 70 e8 5f 08 17 	movl   $0xcc000217,0x85fe870
 804eda3:	02 00 cc 
 804eda6:	66 a1 e2 e6 1f 08    	mov    0x81fe6e2,%ax
 804edac:	66 8b 0d e6 e6 1f 08 	mov    0x81fe6e6,%cx
 804edb3:	8b 14 85 20 96 06 08 	mov    0x8069620(,%eax,4),%edx
 804edba:	8b 14 8a             	mov    (%edx,%ecx,4),%edx
 804edbd:	66 8b 0d f2 e6 1f 08 	mov    0x81fe6f2,%cx
 804edc4:	8b 14 95 20 96 06 08 	mov    0x8069620(,%edx,4),%edx
 804edcb:	8b 14 8a             	mov    (%edx,%ecx,4),%edx
 804edce:	66 89 15 ea e6 1f 08 	mov    %dx,0x81fe6ea
 804edd5:	89 15 f0 e6 1f 08    	mov    %edx,0x81fe6f0
 804eddb:	a1 e8 e6 1f 08       	mov    0x81fe6e8,%eax
 804ede0:	a3 44 57 05 08       	mov    %eax,0x8055744
 804ede5:	c7 05 70 e8 5f 08 18 	movl   $0xcc000218,0x85fe870
 804edec:	02 00 cc 
 804edef:	a1 24 e8 3f 08       	mov    0x83fe824,%eax
 804edf4:	8b 80 98 ff df ff    	mov    -0x200068(%eax),%eax
 804edfa:	8b 80 98 ff df ff    	mov    -0x200068(%eax),%eax
 804ee00:	8b 80 98 ff df ff    	mov    -0x200068(%eax),%eax
 804ee06:	8b 80 98 ff df ff    	mov    -0x200068(%eax),%eax
 804ee0c:	8b 80 98 ff df ff    	mov    -0x200068(%eax),%eax
 804ee12:	8b 80 98 ff df ff    	mov    -0x200068(%eax),%eax
 804ee18:	8b 80 98 ff df ff    	mov    -0x200068(%eax),%eax
 804ee1e:	8b 80 98 ff df ff    	mov    -0x200068(%eax),%eax
 804ee24:	8b 80 98 ff df ff    	mov    -0x200068(%eax),%eax
 804ee2a:	8b 80 98 ff df ff    	mov    -0x200068(%eax),%eax
 804ee30:	8b 80 98 ff df ff    	mov    -0x200068(%eax),%eax
 804ee36:	8b 80 98 ff df ff    	mov    -0x200068(%eax),%eax
 804ee3c:	8b 80 98 ff df ff    	mov    -0x200068(%eax),%eax
 804ee42:	8b 80 98 ff df ff    	mov    -0x200068(%eax),%eax
 804ee48:	8b 80 98 ff df ff    	mov    -0x200068(%eax),%eax
 804ee4e:	8b 80 98 ff df ff    	mov    -0x200068(%eax),%eax
 804ee54:	8b 80 98 ff df ff    	mov    -0x200068(%eax),%eax
 804ee5a:	8b 80 98 ff df ff    	mov    -0x200068(%eax),%eax
 804ee60:	8b 80 98 ff df ff    	mov    -0x200068(%eax),%eax
 804ee66:	8b 80 98 ff df ff    	mov    -0x200068(%eax),%eax
 804ee6c:	8b 80 98 ff df ff    	mov    -0x200068(%eax),%eax
 804ee72:	8b 80 98 ff df ff    	mov    -0x200068(%eax),%eax
 804ee78:	8b 80 98 ff df ff    	mov    -0x200068(%eax),%eax
 804ee7e:	8b 80 98 ff df ff    	mov    -0x200068(%eax),%eax
 804ee84:	8b 80 98 ff df ff    	mov    -0x200068(%eax),%eax
 804ee8a:	8b 80 98 ff df ff    	mov    -0x200068(%eax),%eax
 804ee90:	8b 80 98 ff df ff    	mov    -0x200068(%eax),%eax
 804ee96:	8b 80 98 ff df ff    	mov    -0x200068(%eax),%eax
 804ee9c:	8b 80 98 ff df ff    	mov    -0x200068(%eax),%eax
 804eea2:	8b 80 98 ff df ff    	mov    -0x200068(%eax),%eax
 804eea8:	8b 80 98 ff df ff    	mov    -0x200068(%eax),%eax
 804eeae:	8b 80 98 ff df ff    	mov    -0x200068(%eax),%eax
 804eeb4:	8b 80 98 ff df ff    	mov    -0x200068(%eax),%eax
 804eeba:	8b 80 98 ff df ff    	mov    -0x200068(%eax),%eax
 804eec0:	8b 80 98 ff df ff    	mov    -0x200068(%eax),%eax
 804eec6:	a3 40 57 05 08       	mov    %eax,0x8055740
 804eecb:	c7 05 70 e8 5f 08 19 	movl   $0xcc000219,0x85fe870
 804eed2:	02 00 cc 
 804eed5:	a1 40 57 05 08       	mov    0x8055740,%eax
 804eeda:	8b 15 48 e8 3f 08    	mov    0x83fe848,%edx
 804eee0:	c7 05 70 e8 5f 08 1a 	movl   $0xcc00021a,0x85fe870
 804eee7:	02 00 cc 
 804eeea:	a3 64 e8 3f 08       	mov    %eax,0x83fe864
 804eeef:	8b 04 95 60 e8 3f 08 	mov    0x83fe860(,%edx,4),%eax
 804eef6:	8b 00                	mov    (%eax),%eax
 804eef8:	a3 40 57 05 08       	mov    %eax,0x8055740
 804eefd:	c7 05 70 e8 5f 08 1b 	movl   $0xcc00021b,0x85fe870
 804ef04:	02 00 cc 
 804ef07:	a1 44 57 05 08       	mov    0x8055744,%eax
 804ef0c:	8b 15 40 57 05 08    	mov    0x8055740,%edx
 804ef12:	c7 05 70 e8 5f 08 1c 	movl   $0xcc00021c,0x85fe870
 804ef19:	02 00 cc 
 804ef1c:	a3 e0 e6 1f 08       	mov    %eax,0x81fe6e0
 804ef21:	89 15 e4 e6 1f 08    	mov    %edx,0x81fe6e4
 804ef27:	c7 05 70 e8 5f 08 1d 	movl   $0xcc00021d,0x85fe870
 804ef2e:	02 00 cc 
 804ef31:	b8 00 00 00 00       	mov    $0x0,%eax
 804ef36:	b9 00 00 00 00       	mov    $0x0,%ecx
 804ef3b:	c7 05 f0 e6 1f 08 01 	movl   $0x1,0x81fe6f0
 804ef42:	00 00 00 
 804ef45:	c7 05 70 e8 5f 08 1e 	movl   $0xcc00021e,0x85fe870
 804ef4c:	02 00 cc 
 804ef4f:	66 a1 e0 e6 1f 08    	mov    0x81fe6e0,%ax
 804ef55:	66 8b 0d e4 e6 1f 08 	mov    0x81fe6e4,%cx
 804ef5c:	66 8b 0c 4d 40 97 16 	mov    0x8169740(,%ecx,2),%cx
 804ef63:	08 
 804ef64:	8b 14 85 20 96 06 08 	mov    0x8069620(,%eax,4),%edx
 804ef6b:	8b 14 8a             	mov    (%edx,%ecx,4),%edx
 804ef6e:	8b 14 95 20 96 06 08 	mov    0x8069620(,%edx,4),%edx
 804ef75:	8b 0d f0 e6 1f 08    	mov    0x81fe6f0,%ecx
 804ef7b:	8b 14 8a             	mov    (%edx,%ecx,4),%edx
 804ef7e:	66 89 15 e8 e6 1f 08 	mov    %dx,0x81fe6e8
 804ef85:	89 15 ee e6 1f 08    	mov    %edx,0x81fe6ee
 804ef8b:	c7 05 70 e8 5f 08 1f 	movl   $0xcc00021f,0x85fe870
 804ef92:	02 00 cc 
 804ef95:	66 a1 e2 e6 1f 08    	mov    0x81fe6e2,%ax
 804ef9b:	66 8b 0d e6 e6 1f 08 	mov    0x81fe6e6,%cx
 804efa2:	66 8b 0c 4d 40 97 16 	mov    0x8169740(,%ecx,2),%cx
 804efa9:	08 
 804efaa:	8b 14 85 20 96 06 08 	mov    0x8069620(,%eax,4),%edx
 804efb1:	8b 14 8a             	mov    (%edx,%ecx,4),%edx
 804efb4:	8b 14 95 20 96 06 08 	mov    0x8069620(,%edx,4),%edx
 804efbb:	8b 0d f0 e6 1f 08    	mov    0x81fe6f0,%ecx
 804efc1:	8b 14 8a             	mov    (%edx,%ecx,4),%edx
 804efc4:	66 89 15 ea e6 1f 08 	mov    %dx,0x81fe6ea
 804efcb:	89 15 ee e6 1f 08    	mov    %edx,0x81fe6ee
 804efd1:	a1 e8 e6 1f 08       	mov    0x81fe6e8,%eax
 804efd6:	a3 44 57 05 08       	mov    %eax,0x8055744
 804efdb:	c7 05 70 e8 5f 08 20 	movl   $0xcc000220,0x85fe870
 804efe2:	02 00 cc 
 804efe5:	a1 48 57 05 08       	mov    0x8055748,%eax
 804efea:	8b 15 44 57 05 08    	mov    0x8055744,%edx
 804eff0:	c7 05 70 e8 5f 08 21 	movl   $0xcc000221,0x85fe870
 804eff7:	02 00 cc 
 804effa:	a3 e0 e6 1f 08       	mov    %eax,0x81fe6e0
 804efff:	89 15 e4 e6 1f 08    	mov    %edx,0x81fe6e4
 804f005:	c7 05 70 e8 5f 08 22 	movl   $0xcc000222,0x85fe870
 804f00c:	02 00 cc 
 804f00f:	c7 05 70 e8 5f 08 23 	movl   $0xcc000223,0x85fe870
 804f016:	02 00 cc 
 804f019:	b8 00 00 00 00       	mov    $0x0,%eax
 804f01e:	ba 00 00 00 00       	mov    $0x0,%edx
 804f023:	a0 e0 e6 1f 08       	mov    0x81fe6e0,%al
 804f028:	8a 15 e4 e6 1f 08    	mov    0x81fe6e4,%dl
 804f02e:	8b 04 85 60 9c 19 08 	mov    0x8199c60(,%eax,4),%eax
 804f035:	8a 04 10             	mov    (%eax,%edx,1),%al
 804f038:	a2 e8 e6 1f 08       	mov    %al,0x81fe6e8
 804f03d:	c7 05 70 e8 5f 08 24 	movl   $0xcc000224,0x85fe870
 804f044:	02 00 cc 
 804f047:	b8 00 00 00 00       	mov    $0x0,%eax
 804f04c:	ba 00 00 00 00       	mov    $0x0,%edx
 804f051:	a0 e1 e6 1f 08       	mov    0x81fe6e1,%al
 804f056:	8a 15 e5 e6 1f 08    	mov    0x81fe6e5,%dl
 804f05c:	8b 04 85 60 9c 19 08 	mov    0x8199c60(,%eax,4),%eax
 804f063:	8a 04 10             	mov    (%eax,%edx,1),%al
 804f066:	a2 e9 e6 1f 08       	mov    %al,0x81fe6e9
 804f06b:	c7 05 70 e8 5f 08 25 	movl   $0xcc000225,0x85fe870
 804f072:	02 00 cc 
 804f075:	b8 00 00 00 00       	mov    $0x0,%eax
 804f07a:	ba 00 00 00 00       	mov    $0x0,%edx
 804f07f:	a0 e2 e6 1f 08       	mov    0x81fe6e2,%al
 804f084:	8a 15 e6 e6 1f 08    	mov    0x81fe6e6,%dl
 804f08a:	8b 04 85 60 9c 19 08 	mov    0x8199c60(,%eax,4),%eax
 804f091:	8a 04 10             	mov    (%eax,%edx,1),%al
 804f094:	a2 ea e6 1f 08       	mov    %al,0x81fe6ea
 804f099:	c7 05 70 e8 5f 08 26 	movl   $0xcc000226,0x85fe870
 804f0a0:	02 00 cc 
 804f0a3:	b8 00 00 00 00       	mov    $0x0,%eax
 804f0a8:	ba 00 00 00 00       	mov    $0x0,%edx
 804f0ad:	a0 e3 e6 1f 08       	mov    0x81fe6e3,%al
 804f0b2:	8a 15 e7 e6 1f 08    	mov    0x81fe6e7,%dl
 804f0b8:	8b 04 85 60 9c 19 08 	mov    0x8199c60(,%eax,4),%eax
 804f0bf:	8a 04 10             	mov    (%eax,%edx,1),%al
 804f0c2:	a2 eb e6 1f 08       	mov    %al,0x81fe6eb
 804f0c7:	a1 e8 e6 1f 08       	mov    0x81fe6e8,%eax
 804f0cc:	a3 48 57 05 08       	mov    %eax,0x8055748
 804f0d1:	c7 05 70 e8 5f 08 27 	movl   $0xcc000227,0x85fe870
 804f0d8:	02 00 cc 
 804f0db:	a1 24 e8 3f 08       	mov    0x83fe824,%eax
 804f0e0:	ba 8f ff ff ff       	mov    $0xffffff8f,%edx
 804f0e5:	c7 05 70 e8 5f 08 28 	movl   $0xcc000228,0x85fe870
 804f0ec:	02 00 cc 
 804f0ef:	a3 e0 e6 1f 08       	mov    %eax,0x81fe6e0
 804f0f4:	89 15 e4 e6 1f 08    	mov    %edx,0x81fe6e4
 804f0fa:	c7 05 70 e8 5f 08 29 	movl   $0xcc000229,0x85fe870
 804f101:	02 00 cc 
 804f104:	b8 00 00 00 00       	mov    $0x0,%eax
 804f109:	b9 00 00 00 00       	mov    $0x0,%ecx
 804f10e:	c7 05 f0 e6 1f 08 00 	movl   $0x0,0x81fe6f0
 804f115:	00 00 00 
 804f118:	c7 05 70 e8 5f 08 2a 	movl   $0xcc00022a,0x85fe870
 804f11f:	02 00 cc 
 804f122:	66 a1 e0 e6 1f 08    	mov    0x81fe6e0,%ax
 804f128:	66 8b 0d e4 e6 1f 08 	mov    0x81fe6e4,%cx
 804f12f:	8b 14 85 20 96 06 08 	mov    0x8069620(,%eax,4),%edx
 804f136:	8b 14 8a             	mov    (%edx,%ecx,4),%edx
 804f139:	66 8b 0d f2 e6 1f 08 	mov    0x81fe6f2,%cx
 804f140:	8b 14 95 20 96 06 08 	mov    0x8069620(,%edx,4),%edx
 804f147:	8b 14 8a             	mov    (%edx,%ecx,4),%edx
 804f14a:	66 89 15 e8 e6 1f 08 	mov    %dx,0x81fe6e8
 804f151:	89 15 f0 e6 1f 08    	mov    %edx,0x81fe6f0
 804f157:	c7 05 70 e8 5f 08 2b 	movl   $0xcc00022b,0x85fe870
 804f15e:	02 00 cc 
 804f161:	66 a1 e2 e6 1f 08    	mov    0x81fe6e2,%ax
 804f167:	66 8b 0d e6 e6 1f 08 	mov    0x81fe6e6,%cx
 804f16e:	8b 14 85 20 96 06 08 	mov    0x8069620(,%eax,4),%edx
 804f175:	8b 14 8a             	mov    (%edx,%ecx,4),%edx
 804f178:	66 8b 0d f2 e6 1f 08 	mov    0x81fe6f2,%cx
 804f17f:	8b 14 95 20 96 06 08 	mov    0x8069620(,%edx,4),%edx
 804f186:	8b 14 8a             	mov    (%edx,%ecx,4),%edx
 804f189:	66 89 15 ea e6 1f 08 	mov    %dx,0x81fe6ea
 804f190:	89 15 f0 e6 1f 08    	mov    %edx,0x81fe6f0
 804f196:	a1 e8 e6 1f 08       	mov    0x81fe6e8,%eax
 804f19b:	a3 44 57 05 08       	mov    %eax,0x8055744
 804f1a0:	c7 05 70 e8 5f 08 2c 	movl   $0xcc00022c,0x85fe870
 804f1a7:	02 00 cc 
 804f1aa:	a1 44 57 05 08       	mov    0x8055744,%eax
 804f1af:	8b 15 48 e8 3f 08    	mov    0x83fe848,%edx
 804f1b5:	c7 05 70 e8 5f 08 2d 	movl   $0xcc00022d,0x85fe870
 804f1bc:	02 00 cc 
 804f1bf:	a3 64 e8 3f 08       	mov    %eax,0x83fe864
 804f1c4:	8b 04 95 60 e8 3f 08 	mov    0x83fe860(,%edx,4),%eax
 804f1cb:	ba 00 00 00 00       	mov    $0x0,%edx
 804f1d0:	8a 10                	mov    (%eax),%dl
 804f1d2:	89 15 40 57 05 08    	mov    %edx,0x8055740
 804f1d8:	c7 05 70 e8 5f 08 2e 	movl   $0xcc00022e,0x85fe870
 804f1df:	02 00 cc 
 804f1e2:	ba 00 00 00 00       	mov    $0x0,%edx
 804f1e7:	8a 15 40 57 05 08    	mov    0x8055740,%dl
 804f1ed:	8b 14 95 60 e2 1f 08 	mov    0x81fe260(,%edx,4),%edx
 804f1f4:	89 15 44 57 05 08    	mov    %edx,0x8055744
 804f1fa:	c7 05 70 e8 5f 08 2f 	movl   $0xcc00022f,0x85fe870
 804f201:	02 00 cc 
 804f204:	a1 24 e8 3f 08       	mov    0x83fe824,%eax
 804f209:	8b 80 98 ff df ff    	mov    -0x200068(%eax),%eax
 804f20f:	8b 80 98 ff df ff    	mov    -0x200068(%eax),%eax
 804f215:	8b 80 98 ff df ff    	mov    -0x200068(%eax),%eax
 804f21b:	8b 80 98 ff df ff    	mov    -0x200068(%eax),%eax
 804f221:	8b 80 98 ff df ff    	mov    -0x200068(%eax),%eax
 804f227:	8b 80 98 ff df ff    	mov    -0x200068(%eax),%eax
 804f22d:	8b 80 98 ff df ff    	mov    -0x200068(%eax),%eax
 804f233:	8b 80 98 ff df ff    	mov    -0x200068(%eax),%eax
 804f239:	8b 80 98 ff df ff    	mov    -0x200068(%eax),%eax
 804f23f:	8b 80 98 ff df ff    	mov    -0x200068(%eax),%eax
 804f245:	8b 80 98 ff df ff    	mov    -0x200068(%eax),%eax
 804f24b:	8b 80 98 ff df ff    	mov    -0x200068(%eax),%eax
 804f251:	8b 80 98 ff df ff    	mov    -0x200068(%eax),%eax
 804f257:	8b 80 98 ff df ff    	mov    -0x200068(%eax),%eax
 804f25d:	8b 80 98 ff df ff    	mov    -0x200068(%eax),%eax
 804f263:	8b 80 98 ff df ff    	mov    -0x200068(%eax),%eax
 804f269:	8b 80 98 ff df ff    	mov    -0x200068(%eax),%eax
 804f26f:	8b 80 98 ff df ff    	mov    -0x200068(%eax),%eax
 804f275:	8b 80 98 ff df ff    	mov    -0x200068(%eax),%eax
 804f27b:	8b 80 98 ff df ff    	mov    -0x200068(%eax),%eax
 804f281:	8b 80 98 ff df ff    	mov    -0x200068(%eax),%eax
 804f287:	8b 80 98 ff df ff    	mov    -0x200068(%eax),%eax
 804f28d:	8b 80 98 ff df ff    	mov    -0x200068(%eax),%eax
 804f293:	8b 80 98 ff df ff    	mov    -0x200068(%eax),%eax
 804f299:	8b 80 98 ff df ff    	mov    -0x200068(%eax),%eax
 804f29f:	8b 80 98 ff df ff    	mov    -0x200068(%eax),%eax
 804f2a5:	8b 80 98 ff df ff    	mov    -0x200068(%eax),%eax
 804f2ab:	8b 80 98 ff df ff    	mov    -0x200068(%eax),%eax
 804f2b1:	8b 80 98 ff df ff    	mov    -0x200068(%eax),%eax
 804f2b7:	8b 80 98 ff df ff    	mov    -0x200068(%eax),%eax
 804f2bd:	8b 80 98 ff df ff    	mov    -0x200068(%eax),%eax
 804f2c3:	8b 80 98 ff df ff    	mov    -0x200068(%eax),%eax
 804f2c9:	8b 80 98 ff df ff    	mov    -0x200068(%eax),%eax
 804f2cf:	8b 80 98 ff df ff    	mov    -0x200068(%eax),%eax
 804f2d5:	8b 80 98 ff df ff    	mov    -0x200068(%eax),%eax
 804f2db:	8b 80 98 ff df ff    	mov    -0x200068(%eax),%eax
 804f2e1:	8b 80 98 ff df ff    	mov    -0x200068(%eax),%eax
 804f2e7:	8b 80 98 ff df ff    	mov    -0x200068(%eax),%eax
 804f2ed:	a3 40 57 05 08       	mov    %eax,0x8055740
 804f2f2:	c7 05 70 e8 5f 08 30 	movl   $0xcc000230,0x85fe870
 804f2f9:	02 00 cc 
 804f2fc:	a1 40 57 05 08       	mov    0x8055740,%eax
 804f301:	8b 15 48 e8 3f 08    	mov    0x83fe848,%edx
 804f307:	c7 05 70 e8 5f 08 31 	movl   $0xcc000231,0x85fe870
 804f30e:	02 00 cc 
 804f311:	a3 64 e8 3f 08       	mov    %eax,0x83fe864
 804f316:	8b 04 95 60 e8 3f 08 	mov    0x83fe860(,%edx,4),%eax
 804f31d:	8b 00                	mov    (%eax),%eax
 804f31f:	a3 40 57 05 08       	mov    %eax,0x8055740
 804f324:	c7 05 70 e8 5f 08 32 	movl   $0xcc000232,0x85fe870
 804f32b:	02 00 cc 
 804f32e:	a1 44 57 05 08       	mov    0x8055744,%eax
 804f333:	8b 15 40 57 05 08    	mov    0x8055740,%edx
 804f339:	c7 05 70 e8 5f 08 33 	movl   $0xcc000233,0x85fe870
 804f340:	02 00 cc 
 804f343:	a3 e0 e6 1f 08       	mov    %eax,0x81fe6e0
 804f348:	89 15 e4 e6 1f 08    	mov    %edx,0x81fe6e4
 804f34e:	c7 05 70 e8 5f 08 34 	movl   $0xcc000234,0x85fe870
 804f355:	02 00 cc 
 804f358:	b8 00 00 00 00       	mov    $0x0,%eax
 804f35d:	b9 00 00 00 00       	mov    $0x0,%ecx
 804f362:	c7 05 f0 e6 1f 08 01 	movl   $0x1,0x81fe6f0
 804f369:	00 00 00 
 804f36c:	c7 05 70 e8 5f 08 35 	movl   $0xcc000235,0x85fe870
 804f373:	02 00 cc 
 804f376:	66 a1 e0 e6 1f 08    	mov    0x81fe6e0,%ax
 804f37c:	66 8b 0d e4 e6 1f 08 	mov    0x81fe6e4,%cx
 804f383:	66 8b 0c 4d 40 97 16 	mov    0x8169740(,%ecx,2),%cx
 804f38a:	08 
 804f38b:	8b 14 85 20 96 06 08 	mov    0x8069620(,%eax,4),%edx
 804f392:	8b 14 8a             	mov    (%edx,%ecx,4),%edx
 804f395:	8b 14 95 20 96 06 08 	mov    0x8069620(,%edx,4),%edx
 804f39c:	8b 0d f0 e6 1f 08    	mov    0x81fe6f0,%ecx
 804f3a2:	8b 14 8a             	mov    (%edx,%ecx,4),%edx
 804f3a5:	66 89 15 e8 e6 1f 08 	mov    %dx,0x81fe6e8
 804f3ac:	89 15 ee e6 1f 08    	mov    %edx,0x81fe6ee
 804f3b2:	c7 05 70 e8 5f 08 36 	movl   $0xcc000236,0x85fe870
 804f3b9:	02 00 cc 
 804f3bc:	66 a1 e2 e6 1f 08    	mov    0x81fe6e2,%ax
 804f3c2:	66 8b 0d e6 e6 1f 08 	mov    0x81fe6e6,%cx
 804f3c9:	66 8b 0c 4d 40 97 16 	mov    0x8169740(,%ecx,2),%cx
 804f3d0:	08 
 804f3d1:	8b 14 85 20 96 06 08 	mov    0x8069620(,%eax,4),%edx
 804f3d8:	8b 14 8a             	mov    (%edx,%ecx,4),%edx
 804f3db:	8b 14 95 20 96 06 08 	mov    0x8069620(,%edx,4),%edx
 804f3e2:	8b 0d f0 e6 1f 08    	mov    0x81fe6f0,%ecx
 804f3e8:	8b 14 8a             	mov    (%edx,%ecx,4),%edx
 804f3eb:	66 89 15 ea e6 1f 08 	mov    %dx,0x81fe6ea
 804f3f2:	89 15 ee e6 1f 08    	mov    %edx,0x81fe6ee
 804f3f8:	a1 e8 e6 1f 08       	mov    0x81fe6e8,%eax
 804f3fd:	a3 44 57 05 08       	mov    %eax,0x8055744
 804f402:	c7 05 70 e8 5f 08 37 	movl   $0xcc000237,0x85fe870
 804f409:	02 00 cc 
 804f40c:	a1 24 e8 3f 08       	mov    0x83fe824,%eax
 804f411:	8b 80 98 ff df ff    	mov    -0x200068(%eax),%eax
 804f417:	8b 80 98 ff df ff    	mov    -0x200068(%eax),%eax
 804f41d:	8b 80 98 ff df ff    	mov    -0x200068(%eax),%eax
 804f423:	8b 80 98 ff df ff    	mov    -0x200068(%eax),%eax
 804f429:	8b 80 98 ff df ff    	mov    -0x200068(%eax),%eax
 804f42f:	8b 80 98 ff df ff    	mov    -0x200068(%eax),%eax
 804f435:	8b 80 98 ff df ff    	mov    -0x200068(%eax),%eax
 804f43b:	8b 80 98 ff df ff    	mov    -0x200068(%eax),%eax
 804f441:	8b 80 98 ff df ff    	mov    -0x200068(%eax),%eax
 804f447:	8b 80 98 ff df ff    	mov    -0x200068(%eax),%eax
 804f44d:	8b 80 98 ff df ff    	mov    -0x200068(%eax),%eax
 804f453:	8b 80 98 ff df ff    	mov    -0x200068(%eax),%eax
 804f459:	8b 80 98 ff df ff    	mov    -0x200068(%eax),%eax
 804f45f:	8b 80 98 ff df ff    	mov    -0x200068(%eax),%eax
 804f465:	8b 80 98 ff df ff    	mov    -0x200068(%eax),%eax
 804f46b:	8b 80 98 ff df ff    	mov    -0x200068(%eax),%eax
 804f471:	8b 80 98 ff df ff    	mov    -0x200068(%eax),%eax
 804f477:	8b 80 98 ff df ff    	mov    -0x200068(%eax),%eax
 804f47d:	8b 80 98 ff df ff    	mov    -0x200068(%eax),%eax
 804f483:	8b 80 98 ff df ff    	mov    -0x200068(%eax),%eax
 804f489:	8b 80 98 ff df ff    	mov    -0x200068(%eax),%eax
 804f48f:	8b 80 98 ff df ff    	mov    -0x200068(%eax),%eax
 804f495:	8b 80 98 ff df ff    	mov    -0x200068(%eax),%eax
 804f49b:	8b 80 98 ff df ff    	mov    -0x200068(%eax),%eax
 804f4a1:	8b 80 98 ff df ff    	mov    -0x200068(%eax),%eax
 804f4a7:	8b 80 98 ff df ff    	mov    -0x200068(%eax),%eax
 804f4ad:	8b 80 98 ff df ff    	mov    -0x200068(%eax),%eax
 804f4b3:	8b 80 98 ff df ff    	mov    -0x200068(%eax),%eax
 804f4b9:	8b 80 98 ff df ff    	mov    -0x200068(%eax),%eax
 804f4bf:	8b 80 98 ff df ff    	mov    -0x200068(%eax),%eax
 804f4c5:	8b 80 98 ff df ff    	mov    -0x200068(%eax),%eax
 804f4cb:	8b 80 98 ff df ff    	mov    -0x200068(%eax),%eax
 804f4d1:	8b 80 98 ff df ff    	mov    -0x200068(%eax),%eax
 804f4d7:	8b 80 98 ff df ff    	mov    -0x200068(%eax),%eax
 804f4dd:	8b 80 98 ff df ff    	mov    -0x200068(%eax),%eax
 804f4e3:	8b 80 98 ff df ff    	mov    -0x200068(%eax),%eax
 804f4e9:	8b 80 98 ff df ff    	mov    -0x200068(%eax),%eax
 804f4ef:	8b 80 98 ff df ff    	mov    -0x200068(%eax),%eax
 804f4f5:	8b 80 98 ff df ff    	mov    -0x200068(%eax),%eax
 804f4fb:	a3 40 57 05 08       	mov    %eax,0x8055740
 804f500:	c7 05 70 e8 5f 08 38 	movl   $0xcc000238,0x85fe870
 804f507:	02 00 cc 
 804f50a:	a1 40 57 05 08       	mov    0x8055740,%eax
 804f50f:	8b 15 48 e8 3f 08    	mov    0x83fe848,%edx
 804f515:	c7 05 70 e8 5f 08 39 	movl   $0xcc000239,0x85fe870
 804f51c:	02 00 cc 
 804f51f:	a3 64 e8 3f 08       	mov    %eax,0x83fe864
 804f524:	8b 04 95 60 e8 3f 08 	mov    0x83fe860(,%edx,4),%eax
 804f52b:	8b 00                	mov    (%eax),%eax
 804f52d:	a3 40 57 05 08       	mov    %eax,0x8055740
 804f532:	c7 05 70 e8 5f 08 3a 	movl   $0xcc00023a,0x85fe870
 804f539:	02 00 cc 
 804f53c:	a1 44 57 05 08       	mov    0x8055744,%eax
 804f541:	8b 15 40 57 05 08    	mov    0x8055740,%edx
 804f547:	c7 05 70 e8 5f 08 3b 	movl   $0xcc00023b,0x85fe870
 804f54e:	02 00 cc 
 804f551:	a3 e0 e6 1f 08       	mov    %eax,0x81fe6e0
 804f556:	89 15 e4 e6 1f 08    	mov    %edx,0x81fe6e4
 804f55c:	c7 05 70 e8 5f 08 3c 	movl   $0xcc00023c,0x85fe870
 804f563:	02 00 cc 
 804f566:	b8 00 00 00 00       	mov    $0x0,%eax
 804f56b:	b9 00 00 00 00       	mov    $0x0,%ecx
 804f570:	c7 05 f0 e6 1f 08 01 	movl   $0x1,0x81fe6f0
 804f577:	00 00 00 
 804f57a:	c7 05 70 e8 5f 08 3d 	movl   $0xcc00023d,0x85fe870
 804f581:	02 00 cc 
 804f584:	66 a1 e0 e6 1f 08    	mov    0x81fe6e0,%ax
 804f58a:	66 8b 0d e4 e6 1f 08 	mov    0x81fe6e4,%cx
 804f591:	66 8b 0c 4d 40 97 16 	mov    0x8169740(,%ecx,2),%cx
 804f598:	08 
 804f599:	8b 14 85 20 96 06 08 	mov    0x8069620(,%eax,4),%edx
 804f5a0:	8b 14 8a             	mov    (%edx,%ecx,4),%edx
 804f5a3:	8b 14 95 20 96 06 08 	mov    0x8069620(,%edx,4),%edx
 804f5aa:	8b 0d f0 e6 1f 08    	mov    0x81fe6f0,%ecx
 804f5b0:	8b 14 8a             	mov    (%edx,%ecx,4),%edx
 804f5b3:	66 89 15 e8 e6 1f 08 	mov    %dx,0x81fe6e8
 804f5ba:	89 15 ee e6 1f 08    	mov    %edx,0x81fe6ee
 804f5c0:	c7 05 70 e8 5f 08 3e 	movl   $0xcc00023e,0x85fe870
 804f5c7:	02 00 cc 
 804f5ca:	66 a1 e2 e6 1f 08    	mov    0x81fe6e2,%ax
 804f5d0:	66 8b 0d e6 e6 1f 08 	mov    0x81fe6e6,%cx
 804f5d7:	66 8b 0c 4d 40 97 16 	mov    0x8169740(,%ecx,2),%cx
 804f5de:	08 
 804f5df:	8b 14 85 20 96 06 08 	mov    0x8069620(,%eax,4),%edx
 804f5e6:	8b 14 8a             	mov    (%edx,%ecx,4),%edx
 804f5e9:	8b 14 95 20 96 06 08 	mov    0x8069620(,%edx,4),%edx
 804f5f0:	8b 0d f0 e6 1f 08    	mov    0x81fe6f0,%ecx
 804f5f6:	8b 14 8a             	mov    (%edx,%ecx,4),%edx
 804f5f9:	66 89 15 ea e6 1f 08 	mov    %dx,0x81fe6ea
 804f600:	89 15 ee e6 1f 08    	mov    %edx,0x81fe6ee
 804f606:	a1 e8 e6 1f 08       	mov    0x81fe6e8,%eax
 804f60b:	a3 44 57 05 08       	mov    %eax,0x8055744
 804f610:	c7 05 70 e8 5f 08 3f 	movl   $0xcc00023f,0x85fe870
 804f617:	02 00 cc 
 804f61a:	a1 48 57 05 08       	mov    0x8055748,%eax
 804f61f:	8b 15 44 57 05 08    	mov    0x8055744,%edx
 804f625:	c7 05 70 e8 5f 08 40 	movl   $0xcc000240,0x85fe870
 804f62c:	02 00 cc 
 804f62f:	a3 e0 e6 1f 08       	mov    %eax,0x81fe6e0
 804f634:	89 15 e4 e6 1f 08    	mov    %edx,0x81fe6e4
 804f63a:	c7 05 70 e8 5f 08 41 	movl   $0xcc000241,0x85fe870
 804f641:	02 00 cc 
 804f644:	c7 05 70 e8 5f 08 42 	movl   $0xcc000242,0x85fe870
 804f64b:	02 00 cc 
 804f64e:	b8 00 00 00 00       	mov    $0x0,%eax
 804f653:	ba 00 00 00 00       	mov    $0x0,%edx
 804f658:	a0 e0 e6 1f 08       	mov    0x81fe6e0,%al
 804f65d:	8a 15 e4 e6 1f 08    	mov    0x81fe6e4,%dl
 804f663:	8b 04 85 60 9c 19 08 	mov    0x8199c60(,%eax,4),%eax
 804f66a:	8a 04 10             	mov    (%eax,%edx,1),%al
 804f66d:	a2 e8 e6 1f 08       	mov    %al,0x81fe6e8
 804f672:	c7 05 70 e8 5f 08 43 	movl   $0xcc000243,0x85fe870
 804f679:	02 00 cc 
 804f67c:	b8 00 00 00 00       	mov    $0x0,%eax
 804f681:	ba 00 00 00 00       	mov    $0x0,%edx
 804f686:	a0 e1 e6 1f 08       	mov    0x81fe6e1,%al
 804f68b:	8a 15 e5 e6 1f 08    	mov    0x81fe6e5,%dl
 804f691:	8b 04 85 60 9c 19 08 	mov    0x8199c60(,%eax,4),%eax
 804f698:	8a 04 10             	mov    (%eax,%edx,1),%al
 804f69b:	a2 e9 e6 1f 08       	mov    %al,0x81fe6e9
 804f6a0:	c7 05 70 e8 5f 08 44 	movl   $0xcc000244,0x85fe870
 804f6a7:	02 00 cc 
 804f6aa:	b8 00 00 00 00       	mov    $0x0,%eax
 804f6af:	ba 00 00 00 00       	mov    $0x0,%edx
 804f6b4:	a0 e2 e6 1f 08       	mov    0x81fe6e2,%al
 804f6b9:	8a 15 e6 e6 1f 08    	mov    0x81fe6e6,%dl
 804f6bf:	8b 04 85 60 9c 19 08 	mov    0x8199c60(,%eax,4),%eax
 804f6c6:	8a 04 10             	mov    (%eax,%edx,1),%al
 804f6c9:	a2 ea e6 1f 08       	mov    %al,0x81fe6ea
 804f6ce:	c7 05 70 e8 5f 08 45 	movl   $0xcc000245,0x85fe870
 804f6d5:	02 00 cc 
 804f6d8:	b8 00 00 00 00       	mov    $0x0,%eax
 804f6dd:	ba 00 00 00 00       	mov    $0x0,%edx
 804f6e2:	a0 e3 e6 1f 08       	mov    0x81fe6e3,%al
 804f6e7:	8a 15 e7 e6 1f 08    	mov    0x81fe6e7,%dl
 804f6ed:	8b 04 85 60 9c 19 08 	mov    0x8199c60(,%eax,4),%eax
 804f6f4:	8a 04 10             	mov    (%eax,%edx,1),%al
 804f6f7:	a2 eb e6 1f 08       	mov    %al,0x81fe6eb
 804f6fc:	a1 e8 e6 1f 08       	mov    0x81fe6e8,%eax
 804f701:	a3 48 57 05 08       	mov    %eax,0x8055748
 804f706:	c7 05 70 e8 5f 08 46 	movl   $0xcc000246,0x85fe870
 804f70d:	02 00 cc 
 804f710:	a1 24 e8 3f 08       	mov    0x83fe824,%eax
 804f715:	8b 80 98 ff df ff    	mov    -0x200068(%eax),%eax
 804f71b:	8b 80 98 ff df ff    	mov    -0x200068(%eax),%eax
 804f721:	8b 80 98 ff df ff    	mov    -0x200068(%eax),%eax
 804f727:	8b 80 98 ff df ff    	mov    -0x200068(%eax),%eax
 804f72d:	8b 80 98 ff df ff    	mov    -0x200068(%eax),%eax
 804f733:	8b 80 98 ff df ff    	mov    -0x200068(%eax),%eax
 804f739:	8b 80 98 ff df ff    	mov    -0x200068(%eax),%eax
 804f73f:	8b 80 98 ff df ff    	mov    -0x200068(%eax),%eax
 804f745:	8b 80 98 ff df ff    	mov    -0x200068(%eax),%eax
 804f74b:	8b 80 98 ff df ff    	mov    -0x200068(%eax),%eax
 804f751:	8b 80 98 ff df ff    	mov    -0x200068(%eax),%eax
 804f757:	8b 80 98 ff df ff    	mov    -0x200068(%eax),%eax
 804f75d:	8b 80 98 ff df ff    	mov    -0x200068(%eax),%eax
 804f763:	8b 80 98 ff df ff    	mov    -0x200068(%eax),%eax
 804f769:	8b 80 98 ff df ff    	mov    -0x200068(%eax),%eax
 804f76f:	8b 80 98 ff df ff    	mov    -0x200068(%eax),%eax
 804f775:	8b 80 98 ff df ff    	mov    -0x200068(%eax),%eax
 804f77b:	8b 80 98 ff df ff    	mov    -0x200068(%eax),%eax
 804f781:	8b 80 98 ff df ff    	mov    -0x200068(%eax),%eax
 804f787:	8b 80 98 ff df ff    	mov    -0x200068(%eax),%eax
 804f78d:	8b 80 98 ff df ff    	mov    -0x200068(%eax),%eax
 804f793:	8b 80 98 ff df ff    	mov    -0x200068(%eax),%eax
 804f799:	8b 80 98 ff df ff    	mov    -0x200068(%eax),%eax
 804f79f:	8b 80 98 ff df ff    	mov    -0x200068(%eax),%eax
 804f7a5:	8b 80 98 ff df ff    	mov    -0x200068(%eax),%eax
 804f7ab:	8b 80 98 ff df ff    	mov    -0x200068(%eax),%eax
 804f7b1:	8b 80 98 ff df ff    	mov    -0x200068(%eax),%eax
 804f7b7:	8b 80 98 ff df ff    	mov    -0x200068(%eax),%eax
 804f7bd:	a3 44 57 05 08       	mov    %eax,0x8055744
 804f7c2:	c7 05 70 e8 5f 08 47 	movl   $0xcc000247,0x85fe870
 804f7c9:	02 00 cc 
 804f7cc:	a1 44 57 05 08       	mov    0x8055744,%eax
 804f7d1:	8b 15 48 e8 3f 08    	mov    0x83fe848,%edx
 804f7d7:	c7 05 70 e8 5f 08 48 	movl   $0xcc000248,0x85fe870
 804f7de:	02 00 cc 
 804f7e1:	a3 64 e8 3f 08       	mov    %eax,0x83fe864
 804f7e6:	8b 04 95 60 e8 3f 08 	mov    0x83fe860(,%edx,4),%eax
 804f7ed:	ba 00 00 00 00       	mov    $0x0,%edx
 804f7f2:	8a 10                	mov    (%eax),%dl
 804f7f4:	89 15 40 57 05 08    	mov    %edx,0x8055740
 804f7fa:	c7 05 70 e8 5f 08 49 	movl   $0xcc000249,0x85fe870
 804f801:	02 00 cc 
 804f804:	ba 00 00 00 00       	mov    $0x0,%edx
 804f809:	8a 15 40 57 05 08    	mov    0x8055740,%dl
 804f80f:	8b 14 95 60 e2 1f 08 	mov    0x81fe260(,%edx,4),%edx
 804f816:	89 15 44 57 05 08    	mov    %edx,0x8055744
 804f81c:	c7 05 70 e8 5f 08 4a 	movl   $0xcc00024a,0x85fe870
 804f823:	02 00 cc 
 804f826:	a1 44 57 05 08       	mov    0x8055744,%eax
 804f82b:	8b 15 4c 57 05 08    	mov    0x805574c,%edx
 804f831:	c7 05 70 e8 5f 08 4b 	movl   $0xcc00024b,0x85fe870
 804f838:	02 00 cc 
 804f83b:	a3 e0 e6 1f 08       	mov    %eax,0x81fe6e0
 804f840:	89 15 e4 e6 1f 08    	mov    %edx,0x81fe6e4
 804f846:	c7 05 70 e8 5f 08 4c 	movl   $0xcc00024c,0x85fe870
 804f84d:	02 00 cc 
 804f850:	b8 00 00 00 00       	mov    $0x0,%eax
 804f855:	b9 00 00 00 00       	mov    $0x0,%ecx
 804f85a:	c7 05 f0 e6 1f 08 00 	movl   $0x0,0x81fe6f0
 804f861:	00 00 00 
 804f864:	c7 05 70 e8 5f 08 4d 	movl   $0xcc00024d,0x85fe870
 804f86b:	02 00 cc 
 804f86e:	66 a1 e0 e6 1f 08    	mov    0x81fe6e0,%ax
 804f874:	66 8b 0d e4 e6 1f 08 	mov    0x81fe6e4,%cx
 804f87b:	8b 14 85 20 96 06 08 	mov    0x8069620(,%eax,4),%edx
 804f882:	8b 14 8a             	mov    (%edx,%ecx,4),%edx
 804f885:	66 8b 0d f2 e6 1f 08 	mov    0x81fe6f2,%cx
 804f88c:	8b 14 95 20 96 06 08 	mov    0x8069620(,%edx,4),%edx
 804f893:	8b 14 8a             	mov    (%edx,%ecx,4),%edx
 804f896:	66 89 15 e8 e6 1f 08 	mov    %dx,0x81fe6e8
 804f89d:	89 15 f0 e6 1f 08    	mov    %edx,0x81fe6f0
 804f8a3:	c7 05 70 e8 5f 08 4e 	movl   $0xcc00024e,0x85fe870
 804f8aa:	02 00 cc 
 804f8ad:	66 a1 e2 e6 1f 08    	mov    0x81fe6e2,%ax
 804f8b3:	66 8b 0d e6 e6 1f 08 	mov    0x81fe6e6,%cx
 804f8ba:	8b 14 85 20 96 06 08 	mov    0x8069620(,%eax,4),%edx
 804f8c1:	8b 14 8a             	mov    (%edx,%ecx,4),%edx
 804f8c4:	66 8b 0d f2 e6 1f 08 	mov    0x81fe6f2,%cx
 804f8cb:	8b 14 95 20 96 06 08 	mov    0x8069620(,%edx,4),%edx
 804f8d2:	8b 14 8a             	mov    (%edx,%ecx,4),%edx
 804f8d5:	66 89 15 ea e6 1f 08 	mov    %dx,0x81fe6ea
 804f8dc:	89 15 f0 e6 1f 08    	mov    %edx,0x81fe6f0
 804f8e2:	a1 e8 e6 1f 08       	mov    0x81fe6e8,%eax
 804f8e7:	a3 44 57 05 08       	mov    %eax,0x8055744
 804f8ec:	c7 05 40 57 05 08 57 	movl   $0x57,0x8055740
 804f8f3:	00 00 00 
 804f8f6:	c7 05 70 e8 5f 08 4f 	movl   $0xcc00024f,0x85fe870
 804f8fd:	02 00 cc 
 804f900:	a1 44 57 05 08       	mov    0x8055744,%eax
 804f905:	8b 15 40 57 05 08    	mov    0x8055740,%edx
 804f90b:	c7 05 70 e8 5f 08 50 	movl   $0xcc000250,0x85fe870
 804f912:	02 00 cc 
 804f915:	a3 e0 e6 1f 08       	mov    %eax,0x81fe6e0
 804f91a:	89 15 e4 e6 1f 08    	mov    %edx,0x81fe6e4
 804f920:	c7 05 70 e8 5f 08 51 	movl   $0xcc000251,0x85fe870
 804f927:	02 00 cc 
 804f92a:	c7 05 70 e8 5f 08 52 	movl   $0xcc000252,0x85fe870
 804f931:	02 00 cc 
 804f934:	b8 00 00 00 00       	mov    $0x0,%eax
 804f939:	ba 00 00 00 00       	mov    $0x0,%edx
 804f93e:	a0 e0 e6 1f 08       	mov    0x81fe6e0,%al
 804f943:	8a 15 e4 e6 1f 08    	mov    0x81fe6e4,%dl
 804f949:	8b 04 85 70 a1 1a 08 	mov    0x81aa170(,%eax,4),%eax
 804f950:	8a 04 10             	mov    (%eax,%edx,1),%al
 804f953:	a2 e8 e6 1f 08       	mov    %al,0x81fe6e8
 804f958:	c7 05 70 e8 5f 08 53 	movl   $0xcc000253,0x85fe870
 804f95f:	02 00 cc 
 804f962:	b8 00 00 00 00       	mov    $0x0,%eax
 804f967:	ba 00 00 00 00       	mov    $0x0,%edx
 804f96c:	a0 e1 e6 1f 08       	mov    0x81fe6e1,%al
 804f971:	8a 15 e5 e6 1f 08    	mov    0x81fe6e5,%dl
 804f977:	8b 04 85 70 a1 1a 08 	mov    0x81aa170(,%eax,4),%eax
 804f97e:	8a 04 10             	mov    (%eax,%edx,1),%al
 804f981:	a2 e9 e6 1f 08       	mov    %al,0x81fe6e9
 804f986:	c7 05 70 e8 5f 08 54 	movl   $0xcc000254,0x85fe870
 804f98d:	02 00 cc 
 804f990:	b8 00 00 00 00       	mov    $0x0,%eax
 804f995:	ba 00 00 00 00       	mov    $0x0,%edx
 804f99a:	a0 e2 e6 1f 08       	mov    0x81fe6e2,%al
 804f99f:	8a 15 e6 e6 1f 08    	mov    0x81fe6e6,%dl
 804f9a5:	8b 04 85 70 a1 1a 08 	mov    0x81aa170(,%eax,4),%eax
 804f9ac:	8a 04 10             	mov    (%eax,%edx,1),%al
 804f9af:	a2 ea e6 1f 08       	mov    %al,0x81fe6ea
 804f9b4:	c7 05 70 e8 5f 08 55 	movl   $0xcc000255,0x85fe870
 804f9bb:	02 00 cc 
 804f9be:	b8 00 00 00 00       	mov    $0x0,%eax
 804f9c3:	ba 00 00 00 00       	mov    $0x0,%edx
 804f9c8:	a0 e3 e6 1f 08       	mov    0x81fe6e3,%al
 804f9cd:	8a 15 e7 e6 1f 08    	mov    0x81fe6e7,%dl
 804f9d3:	8b 04 85 70 a1 1a 08 	mov    0x81aa170(,%eax,4),%eax
 804f9da:	8a 04 10             	mov    (%eax,%edx,1),%al
 804f9dd:	a2 eb e6 1f 08       	mov    %al,0x81fe6eb
 804f9e2:	a1 e8 e6 1f 08       	mov    0x81fe6e8,%eax
 804f9e7:	a3 44 57 05 08       	mov    %eax,0x8055744
 804f9ec:	c7 05 70 e8 5f 08 56 	movl   $0xcc000256,0x85fe870
 804f9f3:	02 00 cc 
 804f9f6:	a1 48 57 05 08       	mov    0x8055748,%eax
 804f9fb:	8b 15 44 57 05 08    	mov    0x8055744,%edx
 804fa01:	c7 05 70 e8 5f 08 57 	movl   $0xcc000257,0x85fe870
 804fa08:	02 00 cc 
 804fa0b:	a3 e0 e6 1f 08       	mov    %eax,0x81fe6e0
 804fa10:	89 15 e4 e6 1f 08    	mov    %edx,0x81fe6e4
 804fa16:	c7 05 70 e8 5f 08 58 	movl   $0xcc000258,0x85fe870
 804fa1d:	02 00 cc 
 804fa20:	c7 05 70 e8 5f 08 59 	movl   $0xcc000259,0x85fe870
 804fa27:	02 00 cc 
 804fa2a:	b8 00 00 00 00       	mov    $0x0,%eax
 804fa2f:	ba 00 00 00 00       	mov    $0x0,%edx
 804fa34:	a0 e0 e6 1f 08       	mov    0x81fe6e0,%al
 804fa39:	8a 15 e4 e6 1f 08    	mov    0x81fe6e4,%dl
 804fa3f:	8b 04 85 60 9c 19 08 	mov    0x8199c60(,%eax,4),%eax
 804fa46:	8a 04 10             	mov    (%eax,%edx,1),%al
 804fa49:	a2 e8 e6 1f 08       	mov    %al,0x81fe6e8
 804fa4e:	c7 05 70 e8 5f 08 5a 	movl   $0xcc00025a,0x85fe870
 804fa55:	02 00 cc 
 804fa58:	b8 00 00 00 00       	mov    $0x0,%eax
 804fa5d:	ba 00 00 00 00       	mov    $0x0,%edx
 804fa62:	a0 e1 e6 1f 08       	mov    0x81fe6e1,%al
 804fa67:	8a 15 e5 e6 1f 08    	mov    0x81fe6e5,%dl
 804fa6d:	8b 04 85 60 9c 19 08 	mov    0x8199c60(,%eax,4),%eax
 804fa74:	8a 04 10             	mov    (%eax,%edx,1),%al
 804fa77:	a2 e9 e6 1f 08       	mov    %al,0x81fe6e9
 804fa7c:	c7 05 70 e8 5f 08 5b 	movl   $0xcc00025b,0x85fe870
 804fa83:	02 00 cc 
 804fa86:	b8 00 00 00 00       	mov    $0x0,%eax
 804fa8b:	ba 00 00 00 00       	mov    $0x0,%edx
 804fa90:	a0 e2 e6 1f 08       	mov    0x81fe6e2,%al
 804fa95:	8a 15 e6 e6 1f 08    	mov    0x81fe6e6,%dl
 804fa9b:	8b 04 85 60 9c 19 08 	mov    0x8199c60(,%eax,4),%eax
 804faa2:	8a 04 10             	mov    (%eax,%edx,1),%al
 804faa5:	a2 ea e6 1f 08       	mov    %al,0x81fe6ea
 804faaa:	c7 05 70 e8 5f 08 5c 	movl   $0xcc00025c,0x85fe870
 804fab1:	02 00 cc 
 804fab4:	b8 00 00 00 00       	mov    $0x0,%eax
 804fab9:	ba 00 00 00 00       	mov    $0x0,%edx
 804fabe:	a0 e3 e6 1f 08       	mov    0x81fe6e3,%al
 804fac3:	8a 15 e7 e6 1f 08    	mov    0x81fe6e7,%dl
 804fac9:	8b 04 85 60 9c 19 08 	mov    0x8199c60(,%eax,4),%eax
 804fad0:	8a 04 10             	mov    (%eax,%edx,1),%al
 804fad3:	a2 eb e6 1f 08       	mov    %al,0x81fe6eb
 804fad8:	a1 e8 e6 1f 08       	mov    0x81fe6e8,%eax
 804fadd:	a3 48 57 05 08       	mov    %eax,0x8055748
 804fae2:	c7 05 70 e8 5f 08 5d 	movl   $0xcc00025d,0x85fe870
 804fae9:	02 00 cc 
 804faec:	a1 24 e8 3f 08       	mov    0x83fe824,%eax
 804faf1:	ba 91 ff ff ff       	mov    $0xffffff91,%edx
 804faf6:	c7 05 70 e8 5f 08 5e 	movl   $0xcc00025e,0x85fe870
 804fafd:	02 00 cc 
 804fb00:	a3 e0 e6 1f 08       	mov    %eax,0x81fe6e0
 804fb05:	89 15 e4 e6 1f 08    	mov    %edx,0x81fe6e4
 804fb0b:	c7 05 70 e8 5f 08 5f 	movl   $0xcc00025f,0x85fe870
 804fb12:	02 00 cc 
 804fb15:	b8 00 00 00 00       	mov    $0x0,%eax
 804fb1a:	b9 00 00 00 00       	mov    $0x0,%ecx
 804fb1f:	c7 05 f0 e6 1f 08 00 	movl   $0x0,0x81fe6f0
 804fb26:	00 00 00 
 804fb29:	c7 05 70 e8 5f 08 60 	movl   $0xcc000260,0x85fe870
 804fb30:	02 00 cc 
 804fb33:	66 a1 e0 e6 1f 08    	mov    0x81fe6e0,%ax
 804fb39:	66 8b 0d e4 e6 1f 08 	mov    0x81fe6e4,%cx
 804fb40:	8b 14 85 20 96 06 08 	mov    0x8069620(,%eax,4),%edx
 804fb47:	8b 14 8a             	mov    (%edx,%ecx,4),%edx
 804fb4a:	66 8b 0d f2 e6 1f 08 	mov    0x81fe6f2,%cx
 804fb51:	8b 14 95 20 96 06 08 	mov    0x8069620(,%edx,4),%edx
 804fb58:	8b 14 8a             	mov    (%edx,%ecx,4),%edx
 804fb5b:	66 89 15 e8 e6 1f 08 	mov    %dx,0x81fe6e8
 804fb62:	89 15 f0 e6 1f 08    	mov    %edx,0x81fe6f0
 804fb68:	c7 05 70 e8 5f 08 61 	movl   $0xcc000261,0x85fe870
 804fb6f:	02 00 cc 
 804fb72:	66 a1 e2 e6 1f 08    	mov    0x81fe6e2,%ax
 804fb78:	66 8b 0d e6 e6 1f 08 	mov    0x81fe6e6,%cx
 804fb7f:	8b 14 85 20 96 06 08 	mov    0x8069620(,%eax,4),%edx
 804fb86:	8b 14 8a             	mov    (%edx,%ecx,4),%edx
 804fb89:	66 8b 0d f2 e6 1f 08 	mov    0x81fe6f2,%cx
 804fb90:	8b 14 95 20 96 06 08 	mov    0x8069620(,%edx,4),%edx
 804fb97:	8b 14 8a             	mov    (%edx,%ecx,4),%edx
 804fb9a:	66 89 15 ea e6 1f 08 	mov    %dx,0x81fe6ea
 804fba1:	89 15 f0 e6 1f 08    	mov    %edx,0x81fe6f0
 804fba7:	a1 e8 e6 1f 08       	mov    0x81fe6e8,%eax
 804fbac:	a3 44 57 05 08       	mov    %eax,0x8055744
 804fbb1:	c7 05 70 e8 5f 08 62 	movl   $0xcc000262,0x85fe870
 804fbb8:	02 00 cc 
 804fbbb:	a1 44 57 05 08       	mov    0x8055744,%eax
 804fbc0:	8b 15 48 e8 3f 08    	mov    0x83fe848,%edx
 804fbc6:	c7 05 70 e8 5f 08 63 	movl   $0xcc000263,0x85fe870
 804fbcd:	02 00 cc 
 804fbd0:	a3 64 e8 3f 08       	mov    %eax,0x83fe864
 804fbd5:	8b 04 95 60 e8 3f 08 	mov    0x83fe860(,%edx,4),%eax
 804fbdc:	ba 00 00 00 00       	mov    $0x0,%edx
 804fbe1:	8a 10                	mov    (%eax),%dl
 804fbe3:	89 15 40 57 05 08    	mov    %edx,0x8055740
 804fbe9:	c7 05 70 e8 5f 08 64 	movl   $0xcc000264,0x85fe870
 804fbf0:	02 00 cc 
 804fbf3:	ba 00 00 00 00       	mov    $0x0,%edx
 804fbf8:	8a 15 40 57 05 08    	mov    0x8055740,%dl
 804fbfe:	8b 14 95 60 e2 1f 08 	mov    0x81fe260(,%edx,4),%edx
 804fc05:	89 15 44 57 05 08    	mov    %edx,0x8055744
 804fc0b:	c7 05 70 e8 5f 08 65 	movl   $0xcc000265,0x85fe870
 804fc12:	02 00 cc 
 804fc15:	a1 24 e8 3f 08       	mov    0x83fe824,%eax
 804fc1a:	8b 80 98 ff df ff    	mov    -0x200068(%eax),%eax
 804fc20:	8b 80 98 ff df ff    	mov    -0x200068(%eax),%eax
 804fc26:	8b 80 98 ff df ff    	mov    -0x200068(%eax),%eax
 804fc2c:	8b 80 98 ff df ff    	mov    -0x200068(%eax),%eax
 804fc32:	8b 80 98 ff df ff    	mov    -0x200068(%eax),%eax
 804fc38:	8b 80 98 ff df ff    	mov    -0x200068(%eax),%eax
 804fc3e:	8b 80 98 ff df ff    	mov    -0x200068(%eax),%eax
 804fc44:	8b 80 98 ff df ff    	mov    -0x200068(%eax),%eax
 804fc4a:	8b 80 98 ff df ff    	mov    -0x200068(%eax),%eax
 804fc50:	8b 80 98 ff df ff    	mov    -0x200068(%eax),%eax
 804fc56:	8b 80 98 ff df ff    	mov    -0x200068(%eax),%eax
 804fc5c:	8b 80 98 ff df ff    	mov    -0x200068(%eax),%eax
 804fc62:	8b 80 98 ff df ff    	mov    -0x200068(%eax),%eax
 804fc68:	8b 80 98 ff df ff    	mov    -0x200068(%eax),%eax
 804fc6e:	8b 80 98 ff df ff    	mov    -0x200068(%eax),%eax
 804fc74:	8b 80 98 ff df ff    	mov    -0x200068(%eax),%eax
 804fc7a:	8b 80 98 ff df ff    	mov    -0x200068(%eax),%eax
 804fc80:	8b 80 98 ff df ff    	mov    -0x200068(%eax),%eax
 804fc86:	8b 80 98 ff df ff    	mov    -0x200068(%eax),%eax
 804fc8c:	8b 80 98 ff df ff    	mov    -0x200068(%eax),%eax
 804fc92:	8b 80 98 ff df ff    	mov    -0x200068(%eax),%eax
 804fc98:	8b 80 98 ff df ff    	mov    -0x200068(%eax),%eax
 804fc9e:	8b 80 98 ff df ff    	mov    -0x200068(%eax),%eax
 804fca4:	8b 80 98 ff df ff    	mov    -0x200068(%eax),%eax
 804fcaa:	8b 80 98 ff df ff    	mov    -0x200068(%eax),%eax
 804fcb0:	8b 80 98 ff df ff    	mov    -0x200068(%eax),%eax
 804fcb6:	8b 80 98 ff df ff    	mov    -0x200068(%eax),%eax
 804fcbc:	8b 80 98 ff df ff    	mov    -0x200068(%eax),%eax
 804fcc2:	8b 80 98 ff df ff    	mov    -0x200068(%eax),%eax
 804fcc8:	8b 80 98 ff df ff    	mov    -0x200068(%eax),%eax
 804fcce:	8b 80 98 ff df ff    	mov    -0x200068(%eax),%eax
 804fcd4:	8b 80 98 ff df ff    	mov    -0x200068(%eax),%eax
 804fcda:	8b 80 98 ff df ff    	mov    -0x200068(%eax),%eax
 804fce0:	8b 80 98 ff df ff    	mov    -0x200068(%eax),%eax
 804fce6:	8b 80 98 ff df ff    	mov    -0x200068(%eax),%eax
 804fcec:	8b 80 98 ff df ff    	mov    -0x200068(%eax),%eax
 804fcf2:	8b 80 98 ff df ff    	mov    -0x200068(%eax),%eax
 804fcf8:	8b 80 98 ff df ff    	mov    -0x200068(%eax),%eax
 804fcfe:	8b 80 98 ff df ff    	mov    -0x200068(%eax),%eax
 804fd04:	8b 80 98 ff df ff    	mov    -0x200068(%eax),%eax
 804fd0a:	a3 40 57 05 08       	mov    %eax,0x8055740
 804fd0f:	c7 05 70 e8 5f 08 66 	movl   $0xcc000266,0x85fe870
 804fd16:	02 00 cc 
 804fd19:	a1 40 57 05 08       	mov    0x8055740,%eax
 804fd1e:	8b 15 48 e8 3f 08    	mov    0x83fe848,%edx
 804fd24:	c7 05 70 e8 5f 08 67 	movl   $0xcc000267,0x85fe870
 804fd2b:	02 00 cc 
 804fd2e:	a3 64 e8 3f 08       	mov    %eax,0x83fe864
 804fd33:	8b 04 95 60 e8 3f 08 	mov    0x83fe860(,%edx,4),%eax
 804fd3a:	8b 00                	mov    (%eax),%eax
 804fd3c:	a3 40 57 05 08       	mov    %eax,0x8055740
 804fd41:	c7 05 70 e8 5f 08 68 	movl   $0xcc000268,0x85fe870
 804fd48:	02 00 cc 
 804fd4b:	a1 44 57 05 08       	mov    0x8055744,%eax
 804fd50:	8b 15 40 57 05 08    	mov    0x8055740,%edx
 804fd56:	c7 05 70 e8 5f 08 69 	movl   $0xcc000269,0x85fe870
 804fd5d:	02 00 cc 
 804fd60:	a3 e0 e6 1f 08       	mov    %eax,0x81fe6e0
 804fd65:	89 15 e4 e6 1f 08    	mov    %edx,0x81fe6e4
 804fd6b:	c7 05 70 e8 5f 08 6a 	movl   $0xcc00026a,0x85fe870
 804fd72:	02 00 cc 
 804fd75:	c7 05 70 e8 5f 08 6b 	movl   $0xcc00026b,0x85fe870
 804fd7c:	02 00 cc 
 804fd7f:	b8 00 00 00 00       	mov    $0x0,%eax
 804fd84:	ba 00 00 00 00       	mov    $0x0,%edx
 804fd89:	a0 e0 e6 1f 08       	mov    0x81fe6e0,%al
 804fd8e:	8a 15 e4 e6 1f 08    	mov    0x81fe6e4,%dl
 804fd94:	8b 04 85 70 a1 1a 08 	mov    0x81aa170(,%eax,4),%eax
 804fd9b:	8a 04 10             	mov    (%eax,%edx,1),%al
 804fd9e:	a2 e8 e6 1f 08       	mov    %al,0x81fe6e8
 804fda3:	c7 05 70 e8 5f 08 6c 	movl   $0xcc00026c,0x85fe870
 804fdaa:	02 00 cc 
 804fdad:	b8 00 00 00 00       	mov    $0x0,%eax
 804fdb2:	ba 00 00 00 00       	mov    $0x0,%edx
 804fdb7:	a0 e1 e6 1f 08       	mov    0x81fe6e1,%al
 804fdbc:	8a 15 e5 e6 1f 08    	mov    0x81fe6e5,%dl
 804fdc2:	8b 04 85 70 a1 1a 08 	mov    0x81aa170(,%eax,4),%eax
 804fdc9:	8a 04 10             	mov    (%eax,%edx,1),%al
 804fdcc:	a2 e9 e6 1f 08       	mov    %al,0x81fe6e9
 804fdd1:	c7 05 70 e8 5f 08 6d 	movl   $0xcc00026d,0x85fe870
 804fdd8:	02 00 cc 
 804fddb:	b8 00 00 00 00       	mov    $0x0,%eax
 804fde0:	ba 00 00 00 00       	mov    $0x0,%edx
 804fde5:	a0 e2 e6 1f 08       	mov    0x81fe6e2,%al
 804fdea:	8a 15 e6 e6 1f 08    	mov    0x81fe6e6,%dl
 804fdf0:	8b 04 85 70 a1 1a 08 	mov    0x81aa170(,%eax,4),%eax
 804fdf7:	8a 04 10             	mov    (%eax,%edx,1),%al
 804fdfa:	a2 ea e6 1f 08       	mov    %al,0x81fe6ea
 804fdff:	c7 05 70 e8 5f 08 6e 	movl   $0xcc00026e,0x85fe870
 804fe06:	02 00 cc 
 804fe09:	b8 00 00 00 00       	mov    $0x0,%eax
 804fe0e:	ba 00 00 00 00       	mov    $0x0,%edx
 804fe13:	a0 e3 e6 1f 08       	mov    0x81fe6e3,%al
 804fe18:	8a 15 e7 e6 1f 08    	mov    0x81fe6e7,%dl
 804fe1e:	8b 04 85 70 a1 1a 08 	mov    0x81aa170(,%eax,4),%eax
 804fe25:	8a 04 10             	mov    (%eax,%edx,1),%al
 804fe28:	a2 eb e6 1f 08       	mov    %al,0x81fe6eb
 804fe2d:	a1 e8 e6 1f 08       	mov    0x81fe6e8,%eax
 804fe32:	a3 44 57 05 08       	mov    %eax,0x8055744
 804fe37:	c7 05 70 e8 5f 08 6f 	movl   $0xcc00026f,0x85fe870
 804fe3e:	02 00 cc 
 804fe41:	a1 48 57 05 08       	mov    0x8055748,%eax
 804fe46:	8b 15 44 57 05 08    	mov    0x8055744,%edx
 804fe4c:	c7 05 70 e8 5f 08 70 	movl   $0xcc000270,0x85fe870
 804fe53:	02 00 cc 
 804fe56:	a3 e0 e6 1f 08       	mov    %eax,0x81fe6e0
 804fe5b:	89 15 e4 e6 1f 08    	mov    %edx,0x81fe6e4
 804fe61:	c7 05 70 e8 5f 08 71 	movl   $0xcc000271,0x85fe870
 804fe68:	02 00 cc 
 804fe6b:	c7 05 70 e8 5f 08 72 	movl   $0xcc000272,0x85fe870
 804fe72:	02 00 cc 
 804fe75:	b8 00 00 00 00       	mov    $0x0,%eax
 804fe7a:	ba 00 00 00 00       	mov    $0x0,%edx
 804fe7f:	a0 e0 e6 1f 08       	mov    0x81fe6e0,%al
 804fe84:	8a 15 e4 e6 1f 08    	mov    0x81fe6e4,%dl
 804fe8a:	8b 04 85 60 9c 19 08 	mov    0x8199c60(,%eax,4),%eax
 804fe91:	8a 04 10             	mov    (%eax,%edx,1),%al
 804fe94:	a2 e8 e6 1f 08       	mov    %al,0x81fe6e8
 804fe99:	c7 05 70 e8 5f 08 73 	movl   $0xcc000273,0x85fe870
 804fea0:	02 00 cc 
 804fea3:	b8 00 00 00 00       	mov    $0x0,%eax
 804fea8:	ba 00 00 00 00       	mov    $0x0,%edx
 804fead:	a0 e1 e6 1f 08       	mov    0x81fe6e1,%al
 804feb2:	8a 15 e5 e6 1f 08    	mov    0x81fe6e5,%dl
 804feb8:	8b 04 85 60 9c 19 08 	mov    0x8199c60(,%eax,4),%eax
 804febf:	8a 04 10             	mov    (%eax,%edx,1),%al
 804fec2:	a2 e9 e6 1f 08       	mov    %al,0x81fe6e9
 804fec7:	c7 05 70 e8 5f 08 74 	movl   $0xcc000274,0x85fe870
 804fece:	02 00 cc 
 804fed1:	b8 00 00 00 00       	mov    $0x0,%eax
 804fed6:	ba 00 00 00 00       	mov    $0x0,%edx
 804fedb:	a0 e2 e6 1f 08       	mov    0x81fe6e2,%al
 804fee0:	8a 15 e6 e6 1f 08    	mov    0x81fe6e6,%dl
 804fee6:	8b 04 85 60 9c 19 08 	mov    0x8199c60(,%eax,4),%eax
 804feed:	8a 04 10             	mov    (%eax,%edx,1),%al
 804fef0:	a2 ea e6 1f 08       	mov    %al,0x81fe6ea
 804fef5:	c7 05 70 e8 5f 08 75 	movl   $0xcc000275,0x85fe870
 804fefc:	02 00 cc 
 804feff:	b8 00 00 00 00       	mov    $0x0,%eax
 804ff04:	ba 00 00 00 00       	mov    $0x0,%edx
 804ff09:	a0 e3 e6 1f 08       	mov    0x81fe6e3,%al
 804ff0e:	8a 15 e7 e6 1f 08    	mov    0x81fe6e7,%dl
 804ff14:	8b 04 85 60 9c 19 08 	mov    0x8199c60(,%eax,4),%eax
 804ff1b:	8a 04 10             	mov    (%eax,%edx,1),%al
 804ff1e:	a2 eb e6 1f 08       	mov    %al,0x81fe6eb
 804ff23:	a1 e8 e6 1f 08       	mov    0x81fe6e8,%eax
 804ff28:	a3 48 57 05 08       	mov    %eax,0x8055748
 804ff2d:	c7 05 70 e8 5f 08 76 	movl   $0xcc000276,0x85fe870
 804ff34:	02 00 cc 
 804ff37:	a1 24 e8 3f 08       	mov    0x83fe824,%eax
 804ff3c:	ba 92 ff ff ff       	mov    $0xffffff92,%edx
 804ff41:	c7 05 70 e8 5f 08 77 	movl   $0xcc000277,0x85fe870
 804ff48:	02 00 cc 
 804ff4b:	a3 e0 e6 1f 08       	mov    %eax,0x81fe6e0
 804ff50:	89 15 e4 e6 1f 08    	mov    %edx,0x81fe6e4
 804ff56:	c7 05 70 e8 5f 08 78 	movl   $0xcc000278,0x85fe870
 804ff5d:	02 00 cc 
 804ff60:	b8 00 00 00 00       	mov    $0x0,%eax
 804ff65:	b9 00 00 00 00       	mov    $0x0,%ecx
 804ff6a:	c7 05 f0 e6 1f 08 00 	movl   $0x0,0x81fe6f0
 804ff71:	00 00 00 
 804ff74:	c7 05 70 e8 5f 08 79 	movl   $0xcc000279,0x85fe870
 804ff7b:	02 00 cc 
 804ff7e:	66 a1 e0 e6 1f 08    	mov    0x81fe6e0,%ax
 804ff84:	66 8b 0d e4 e6 1f 08 	mov    0x81fe6e4,%cx
 804ff8b:	8b 14 85 20 96 06 08 	mov    0x8069620(,%eax,4),%edx
 804ff92:	8b 14 8a             	mov    (%edx,%ecx,4),%edx
 804ff95:	66 8b 0d f2 e6 1f 08 	mov    0x81fe6f2,%cx
 804ff9c:	8b 14 95 20 96 06 08 	mov    0x8069620(,%edx,4),%edx
 804ffa3:	8b 14 8a             	mov    (%edx,%ecx,4),%edx
 804ffa6:	66 89 15 e8 e6 1f 08 	mov    %dx,0x81fe6e8
 804ffad:	89 15 f0 e6 1f 08    	mov    %edx,0x81fe6f0
 804ffb3:	c7 05 70 e8 5f 08 7a 	movl   $0xcc00027a,0x85fe870
 804ffba:	02 00 cc 
 804ffbd:	66 a1 e2 e6 1f 08    	mov    0x81fe6e2,%ax
 804ffc3:	66 8b 0d e6 e6 1f 08 	mov    0x81fe6e6,%cx
 804ffca:	8b 14 85 20 96 06 08 	mov    0x8069620(,%eax,4),%edx
 804ffd1:	8b 14 8a             	mov    (%edx,%ecx,4),%edx
 804ffd4:	66 8b 0d f2 e6 1f 08 	mov    0x81fe6f2,%cx
 804ffdb:	8b 14 95 20 96 06 08 	mov    0x8069620(,%edx,4),%edx
 804ffe2:	8b 14 8a             	mov    (%edx,%ecx,4),%edx
 804ffe5:	66 89 15 ea e6 1f 08 	mov    %dx,0x81fe6ea
 804ffec:	89 15 f0 e6 1f 08    	mov    %edx,0x81fe6f0
 804fff2:	a1 e8 e6 1f 08       	mov    0x81fe6e8,%eax
 804fff7:	a3 44 57 05 08       	mov    %eax,0x8055744
 804fffc:	c7 05 70 e8 5f 08 7b 	movl   $0xcc00027b,0x85fe870
 8050003:	02 00 cc 
 8050006:	a1 44 57 05 08       	mov    0x8055744,%eax
 805000b:	8b 15 48 e8 3f 08    	mov    0x83fe848,%edx
 8050011:	c7 05 70 e8 5f 08 7c 	movl   $0xcc00027c,0x85fe870
 8050018:	02 00 cc 
 805001b:	a3 64 e8 3f 08       	mov    %eax,0x83fe864
 8050020:	8b 04 95 60 e8 3f 08 	mov    0x83fe860(,%edx,4),%eax
 8050027:	ba 00 00 00 00       	mov    $0x0,%edx
 805002c:	8a 10                	mov    (%eax),%dl
 805002e:	89 15 40 57 05 08    	mov    %edx,0x8055740
 8050034:	c7 05 70 e8 5f 08 7d 	movl   $0xcc00027d,0x85fe870
 805003b:	02 00 cc 
 805003e:	ba 00 00 00 00       	mov    $0x0,%edx
 8050043:	8a 15 40 57 05 08    	mov    0x8055740,%dl
 8050049:	8b 14 95 60 e2 1f 08 	mov    0x81fe260(,%edx,4),%edx
 8050050:	89 15 44 57 05 08    	mov    %edx,0x8055744
 8050056:	c7 05 70 e8 5f 08 7e 	movl   $0xcc00027e,0x85fe870
 805005d:	02 00 cc 
 8050060:	a1 44 57 05 08       	mov    0x8055744,%eax
 8050065:	8b 15 4c 57 05 08    	mov    0x805574c,%edx
 805006b:	c7 05 70 e8 5f 08 7f 	movl   $0xcc00027f,0x85fe870
 8050072:	02 00 cc 
 8050075:	a3 e0 e6 1f 08       	mov    %eax,0x81fe6e0
 805007a:	89 15 e4 e6 1f 08    	mov    %edx,0x81fe6e4
 8050080:	c7 05 70 e8 5f 08 80 	movl   $0xcc000280,0x85fe870
 8050087:	02 00 cc 
 805008a:	b8 00 00 00 00       	mov    $0x0,%eax
 805008f:	b9 00 00 00 00       	mov    $0x0,%ecx
 8050094:	c7 05 f0 e6 1f 08 00 	movl   $0x0,0x81fe6f0
 805009b:	00 00 00 
 805009e:	c7 05 70 e8 5f 08 81 	movl   $0xcc000281,0x85fe870
 80500a5:	02 00 cc 
 80500a8:	66 a1 e0 e6 1f 08    	mov    0x81fe6e0,%ax
 80500ae:	66 8b 0d e4 e6 1f 08 	mov    0x81fe6e4,%cx
 80500b5:	8b 14 85 20 96 06 08 	mov    0x8069620(,%eax,4),%edx
 80500bc:	8b 14 8a             	mov    (%edx,%ecx,4),%edx
 80500bf:	66 8b 0d f2 e6 1f 08 	mov    0x81fe6f2,%cx
 80500c6:	8b 14 95 20 96 06 08 	mov    0x8069620(,%edx,4),%edx
 80500cd:	8b 14 8a             	mov    (%edx,%ecx,4),%edx
 80500d0:	66 89 15 e8 e6 1f 08 	mov    %dx,0x81fe6e8
 80500d7:	89 15 f0 e6 1f 08    	mov    %edx,0x81fe6f0
 80500dd:	c7 05 70 e8 5f 08 82 	movl   $0xcc000282,0x85fe870
 80500e4:	02 00 cc 
 80500e7:	66 a1 e2 e6 1f 08    	mov    0x81fe6e2,%ax
 80500ed:	66 8b 0d e6 e6 1f 08 	mov    0x81fe6e6,%cx
 80500f4:	8b 14 85 20 96 06 08 	mov    0x8069620(,%eax,4),%edx
 80500fb:	8b 14 8a             	mov    (%edx,%ecx,4),%edx
 80500fe:	66 8b 0d f2 e6 1f 08 	mov    0x81fe6f2,%cx
 8050105:	8b 14 95 20 96 06 08 	mov    0x8069620(,%edx,4),%edx
 805010c:	8b 14 8a             	mov    (%edx,%ecx,4),%edx
 805010f:	66 89 15 ea e6 1f 08 	mov    %dx,0x81fe6ea
 8050116:	89 15 f0 e6 1f 08    	mov    %edx,0x81fe6f0
 805011c:	a1 e8 e6 1f 08       	mov    0x81fe6e8,%eax
 8050121:	a3 44 57 05 08       	mov    %eax,0x8055744
 8050126:	c7 05 40 57 05 08 68 	movl   $0x68,0x8055740
 805012d:	00 00 00 
 8050130:	c7 05 70 e8 5f 08 83 	movl   $0xcc000283,0x85fe870
 8050137:	02 00 cc 
 805013a:	a1 44 57 05 08       	mov    0x8055744,%eax
 805013f:	8b 15 40 57 05 08    	mov    0x8055740,%edx
 8050145:	c7 05 70 e8 5f 08 84 	movl   $0xcc000284,0x85fe870
 805014c:	02 00 cc 
 805014f:	a3 e0 e6 1f 08       	mov    %eax,0x81fe6e0
 8050154:	89 15 e4 e6 1f 08    	mov    %edx,0x81fe6e4
 805015a:	c7 05 70 e8 5f 08 85 	movl   $0xcc000285,0x85fe870
 8050161:	02 00 cc 
 8050164:	b8 00 00 00 00       	mov    $0x0,%eax
 8050169:	b9 00 00 00 00       	mov    $0x0,%ecx
 805016e:	c7 05 f0 e6 1f 08 01 	movl   $0x1,0x81fe6f0
 8050175:	00 00 00 
 8050178:	c7 05 70 e8 5f 08 86 	movl   $0xcc000286,0x85fe870
 805017f:	02 00 cc 
 8050182:	66 a1 e0 e6 1f 08    	mov    0x81fe6e0,%ax
 8050188:	66 8b 0d e4 e6 1f 08 	mov    0x81fe6e4,%cx
 805018f:	66 8b 0c 4d 40 97 16 	mov    0x8169740(,%ecx,2),%cx
 8050196:	08 
 8050197:	8b 14 85 20 96 06 08 	mov    0x8069620(,%eax,4),%edx
 805019e:	8b 14 8a             	mov    (%edx,%ecx,4),%edx
 80501a1:	8b 14 95 20 96 06 08 	mov    0x8069620(,%edx,4),%edx
 80501a8:	8b 0d f0 e6 1f 08    	mov    0x81fe6f0,%ecx
 80501ae:	8b 14 8a             	mov    (%edx,%ecx,4),%edx
 80501b1:	66 89 15 e8 e6 1f 08 	mov    %dx,0x81fe6e8
 80501b8:	89 15 ee e6 1f 08    	mov    %edx,0x81fe6ee
 80501be:	c7 05 70 e8 5f 08 87 	movl   $0xcc000287,0x85fe870
 80501c5:	02 00 cc 
 80501c8:	66 a1 e2 e6 1f 08    	mov    0x81fe6e2,%ax
 80501ce:	66 8b 0d e6 e6 1f 08 	mov    0x81fe6e6,%cx
 80501d5:	66 8b 0c 4d 40 97 16 	mov    0x8169740(,%ecx,2),%cx
 80501dc:	08 
 80501dd:	8b 14 85 20 96 06 08 	mov    0x8069620(,%eax,4),%edx
 80501e4:	8b 14 8a             	mov    (%edx,%ecx,4),%edx
 80501e7:	8b 14 95 20 96 06 08 	mov    0x8069620(,%edx,4),%edx
 80501ee:	8b 0d f0 e6 1f 08    	mov    0x81fe6f0,%ecx
 80501f4:	8b 14 8a             	mov    (%edx,%ecx,4),%edx
 80501f7:	66 89 15 ea e6 1f 08 	mov    %dx,0x81fe6ea
 80501fe:	89 15 ee e6 1f 08    	mov    %edx,0x81fe6ee
 8050204:	a1 e8 e6 1f 08       	mov    0x81fe6e8,%eax
 8050209:	a3 44 57 05 08       	mov    %eax,0x8055744
 805020e:	c7 05 70 e8 5f 08 88 	movl   $0xcc000288,0x85fe870
 8050215:	02 00 cc 
 8050218:	a1 48 57 05 08       	mov    0x8055748,%eax
 805021d:	8b 15 44 57 05 08    	mov    0x8055744,%edx
 8050223:	c7 05 70 e8 5f 08 89 	movl   $0xcc000289,0x85fe870
 805022a:	02 00 cc 
 805022d:	a3 e0 e6 1f 08       	mov    %eax,0x81fe6e0
 8050232:	89 15 e4 e6 1f 08    	mov    %edx,0x81fe6e4
 8050238:	c7 05 70 e8 5f 08 8a 	movl   $0xcc00028a,0x85fe870
 805023f:	02 00 cc 
 8050242:	c7 05 70 e8 5f 08 8b 	movl   $0xcc00028b,0x85fe870
 8050249:	02 00 cc 
 805024c:	b8 00 00 00 00       	mov    $0x0,%eax
 8050251:	ba 00 00 00 00       	mov    $0x0,%edx
 8050256:	a0 e0 e6 1f 08       	mov    0x81fe6e0,%al
 805025b:	8a 15 e4 e6 1f 08    	mov    0x81fe6e4,%dl
 8050261:	8b 04 85 60 9c 19 08 	mov    0x8199c60(,%eax,4),%eax
 8050268:	8a 04 10             	mov    (%eax,%edx,1),%al
 805026b:	a2 e8 e6 1f 08       	mov    %al,0x81fe6e8
 8050270:	c7 05 70 e8 5f 08 8c 	movl   $0xcc00028c,0x85fe870
 8050277:	02 00 cc 
 805027a:	b8 00 00 00 00       	mov    $0x0,%eax
 805027f:	ba 00 00 00 00       	mov    $0x0,%edx
 8050284:	a0 e1 e6 1f 08       	mov    0x81fe6e1,%al
 8050289:	8a 15 e5 e6 1f 08    	mov    0x81fe6e5,%dl
 805028f:	8b 04 85 60 9c 19 08 	mov    0x8199c60(,%eax,4),%eax
 8050296:	8a 04 10             	mov    (%eax,%edx,1),%al
 8050299:	a2 e9 e6 1f 08       	mov    %al,0x81fe6e9
 805029e:	c7 05 70 e8 5f 08 8d 	movl   $0xcc00028d,0x85fe870
 80502a5:	02 00 cc 
 80502a8:	b8 00 00 00 00       	mov    $0x0,%eax
 80502ad:	ba 00 00 00 00       	mov    $0x0,%edx
 80502b2:	a0 e2 e6 1f 08       	mov    0x81fe6e2,%al
 80502b7:	8a 15 e6 e6 1f 08    	mov    0x81fe6e6,%dl
 80502bd:	8b 04 85 60 9c 19 08 	mov    0x8199c60(,%eax,4),%eax
 80502c4:	8a 04 10             	mov    (%eax,%edx,1),%al
 80502c7:	a2 ea e6 1f 08       	mov    %al,0x81fe6ea
 80502cc:	c7 05 70 e8 5f 08 8e 	movl   $0xcc00028e,0x85fe870
 80502d3:	02 00 cc 
 80502d6:	b8 00 00 00 00       	mov    $0x0,%eax
 80502db:	ba 00 00 00 00       	mov    $0x0,%edx
 80502e0:	a0 e3 e6 1f 08       	mov    0x81fe6e3,%al
 80502e5:	8a 15 e7 e6 1f 08    	mov    0x81fe6e7,%dl
 80502eb:	8b 04 85 60 9c 19 08 	mov    0x8199c60(,%eax,4),%eax
 80502f2:	8a 04 10             	mov    (%eax,%edx,1),%al
 80502f5:	a2 eb e6 1f 08       	mov    %al,0x81fe6eb
 80502fa:	a1 e8 e6 1f 08       	mov    0x81fe6e8,%eax
 80502ff:	a3 48 57 05 08       	mov    %eax,0x8055748
 8050304:	c7 05 70 e8 5f 08 8f 	movl   $0xcc00028f,0x85fe870
 805030b:	02 00 cc 
 805030e:	a1 24 e8 3f 08       	mov    0x83fe824,%eax
 8050313:	ba 93 ff ff ff       	mov    $0xffffff93,%edx
 8050318:	c7 05 70 e8 5f 08 90 	movl   $0xcc000290,0x85fe870
 805031f:	02 00 cc 
 8050322:	a3 e0 e6 1f 08       	mov    %eax,0x81fe6e0
 8050327:	89 15 e4 e6 1f 08    	mov    %edx,0x81fe6e4
 805032d:	c7 05 70 e8 5f 08 91 	movl   $0xcc000291,0x85fe870
 8050334:	02 00 cc 
 8050337:	b8 00 00 00 00       	mov    $0x0,%eax
 805033c:	b9 00 00 00 00       	mov    $0x0,%ecx
 8050341:	c7 05 f0 e6 1f 08 00 	movl   $0x0,0x81fe6f0
 8050348:	00 00 00 
 805034b:	c7 05 70 e8 5f 08 92 	movl   $0xcc000292,0x85fe870
 8050352:	02 00 cc 
 8050355:	66 a1 e0 e6 1f 08    	mov    0x81fe6e0,%ax
 805035b:	66 8b 0d e4 e6 1f 08 	mov    0x81fe6e4,%cx
 8050362:	8b 14 85 20 96 06 08 	mov    0x8069620(,%eax,4),%edx
 8050369:	8b 14 8a             	mov    (%edx,%ecx,4),%edx
 805036c:	66 8b 0d f2 e6 1f 08 	mov    0x81fe6f2,%cx
 8050373:	8b 14 95 20 96 06 08 	mov    0x8069620(,%edx,4),%edx
 805037a:	8b 14 8a             	mov    (%edx,%ecx,4),%edx
 805037d:	66 89 15 e8 e6 1f 08 	mov    %dx,0x81fe6e8
 8050384:	89 15 f0 e6 1f 08    	mov    %edx,0x81fe6f0
 805038a:	c7 05 70 e8 5f 08 93 	movl   $0xcc000293,0x85fe870
 8050391:	02 00 cc 
 8050394:	66 a1 e2 e6 1f 08    	mov    0x81fe6e2,%ax
 805039a:	66 8b 0d e6 e6 1f 08 	mov    0x81fe6e6,%cx
 80503a1:	8b 14 85 20 96 06 08 	mov    0x8069620(,%eax,4),%edx
 80503a8:	8b 14 8a             	mov    (%edx,%ecx,4),%edx
 80503ab:	66 8b 0d f2 e6 1f 08 	mov    0x81fe6f2,%cx
 80503b2:	8b 14 95 20 96 06 08 	mov    0x8069620(,%edx,4),%edx
 80503b9:	8b 14 8a             	mov    (%edx,%ecx,4),%edx
 80503bc:	66 89 15 ea e6 1f 08 	mov    %dx,0x81fe6ea
 80503c3:	89 15 f0 e6 1f 08    	mov    %edx,0x81fe6f0
 80503c9:	a1 e8 e6 1f 08       	mov    0x81fe6e8,%eax
 80503ce:	a3 44 57 05 08       	mov    %eax,0x8055744
 80503d3:	c7 05 70 e8 5f 08 94 	movl   $0xcc000294,0x85fe870
 80503da:	02 00 cc 
 80503dd:	a1 44 57 05 08       	mov    0x8055744,%eax
 80503e2:	8b 15 48 e8 3f 08    	mov    0x83fe848,%edx
 80503e8:	c7 05 70 e8 5f 08 95 	movl   $0xcc000295,0x85fe870
 80503ef:	02 00 cc 
 80503f2:	a3 64 e8 3f 08       	mov    %eax,0x83fe864
 80503f7:	8b 04 95 60 e8 3f 08 	mov    0x83fe860(,%edx,4),%eax
 80503fe:	ba 00 00 00 00       	mov    $0x0,%edx
 8050403:	8a 10                	mov    (%eax),%dl
 8050405:	89 15 40 57 05 08    	mov    %edx,0x8055740
 805040b:	c7 05 70 e8 5f 08 96 	movl   $0xcc000296,0x85fe870
 8050412:	02 00 cc 
 8050415:	ba 00 00 00 00       	mov    $0x0,%edx
 805041a:	8a 15 40 57 05 08    	mov    0x8055740,%dl
 8050420:	8b 14 95 60 e2 1f 08 	mov    0x81fe260(,%edx,4),%edx
 8050427:	89 15 44 57 05 08    	mov    %edx,0x8055744
 805042d:	c7 05 70 e8 5f 08 97 	movl   $0xcc000297,0x85fe870
 8050434:	02 00 cc 
 8050437:	a1 44 57 05 08       	mov    0x8055744,%eax
 805043c:	8b 15 4c 57 05 08    	mov    0x805574c,%edx
 8050442:	c7 05 70 e8 5f 08 98 	movl   $0xcc000298,0x85fe870
 8050449:	02 00 cc 
 805044c:	a3 e0 e6 1f 08       	mov    %eax,0x81fe6e0
 8050451:	89 15 e4 e6 1f 08    	mov    %edx,0x81fe6e4
 8050457:	c7 05 70 e8 5f 08 99 	movl   $0xcc000299,0x85fe870
 805045e:	02 00 cc 
 8050461:	b8 00 00 00 00       	mov    $0x0,%eax
 8050466:	b9 00 00 00 00       	mov    $0x0,%ecx
 805046b:	c7 05 f0 e6 1f 08 01 	movl   $0x1,0x81fe6f0
 8050472:	00 00 00 
 8050475:	c7 05 70 e8 5f 08 9a 	movl   $0xcc00029a,0x85fe870
 805047c:	02 00 cc 
 805047f:	66 a1 e0 e6 1f 08    	mov    0x81fe6e0,%ax
 8050485:	66 8b 0d e4 e6 1f 08 	mov    0x81fe6e4,%cx
 805048c:	66 8b 0c 4d 40 97 16 	mov    0x8169740(,%ecx,2),%cx
 8050493:	08 
 8050494:	8b 14 85 20 96 06 08 	mov    0x8069620(,%eax,4),%edx
 805049b:	8b 14 8a             	mov    (%edx,%ecx,4),%edx
 805049e:	8b 14 95 20 96 06 08 	mov    0x8069620(,%edx,4),%edx
 80504a5:	8b 0d f0 e6 1f 08    	mov    0x81fe6f0,%ecx
 80504ab:	8b 14 8a             	mov    (%edx,%ecx,4),%edx
 80504ae:	66 89 15 e8 e6 1f 08 	mov    %dx,0x81fe6e8
 80504b5:	89 15 ee e6 1f 08    	mov    %edx,0x81fe6ee
 80504bb:	c7 05 70 e8 5f 08 9b 	movl   $0xcc00029b,0x85fe870
 80504c2:	02 00 cc 
 80504c5:	66 a1 e2 e6 1f 08    	mov    0x81fe6e2,%ax
 80504cb:	66 8b 0d e6 e6 1f 08 	mov    0x81fe6e6,%cx
 80504d2:	66 8b 0c 4d 40 97 16 	mov    0x8169740(,%ecx,2),%cx
 80504d9:	08 
 80504da:	8b 14 85 20 96 06 08 	mov    0x8069620(,%eax,4),%edx
 80504e1:	8b 14 8a             	mov    (%edx,%ecx,4),%edx
 80504e4:	8b 14 95 20 96 06 08 	mov    0x8069620(,%edx,4),%edx
 80504eb:	8b 0d f0 e6 1f 08    	mov    0x81fe6f0,%ecx
 80504f1:	8b 14 8a             	mov    (%edx,%ecx,4),%edx
 80504f4:	66 89 15 ea e6 1f 08 	mov    %dx,0x81fe6ea
 80504fb:	89 15 ee e6 1f 08    	mov    %edx,0x81fe6ee
 8050501:	a1 e8 e6 1f 08       	mov    0x81fe6e8,%eax
 8050506:	a3 44 57 05 08       	mov    %eax,0x8055744
 805050b:	c7 05 70 e8 5f 08 9c 	movl   $0xcc00029c,0x85fe870
 8050512:	02 00 cc 
 8050515:	a1 24 e8 3f 08       	mov    0x83fe824,%eax
 805051a:	8b 80 98 ff df ff    	mov    -0x200068(%eax),%eax
 8050520:	8b 80 98 ff df ff    	mov    -0x200068(%eax),%eax
 8050526:	8b 80 98 ff df ff    	mov    -0x200068(%eax),%eax
 805052c:	8b 80 98 ff df ff    	mov    -0x200068(%eax),%eax
 8050532:	8b 80 98 ff df ff    	mov    -0x200068(%eax),%eax
 8050538:	8b 80 98 ff df ff    	mov    -0x200068(%eax),%eax
 805053e:	8b 80 98 ff df ff    	mov    -0x200068(%eax),%eax
 8050544:	8b 80 98 ff df ff    	mov    -0x200068(%eax),%eax
 805054a:	8b 80 98 ff df ff    	mov    -0x200068(%eax),%eax
 8050550:	8b 80 98 ff df ff    	mov    -0x200068(%eax),%eax
 8050556:	8b 80 98 ff df ff    	mov    -0x200068(%eax),%eax
 805055c:	8b 80 98 ff df ff    	mov    -0x200068(%eax),%eax
 8050562:	8b 80 98 ff df ff    	mov    -0x200068(%eax),%eax
 8050568:	8b 80 98 ff df ff    	mov    -0x200068(%eax),%eax
 805056e:	8b 80 98 ff df ff    	mov    -0x200068(%eax),%eax
 8050574:	8b 80 98 ff df ff    	mov    -0x200068(%eax),%eax
 805057a:	8b 80 98 ff df ff    	mov    -0x200068(%eax),%eax
 8050580:	8b 80 98 ff df ff    	mov    -0x200068(%eax),%eax
 8050586:	8b 80 98 ff df ff    	mov    -0x200068(%eax),%eax
 805058c:	8b 80 98 ff df ff    	mov    -0x200068(%eax),%eax
 8050592:	8b 80 98 ff df ff    	mov    -0x200068(%eax),%eax
 8050598:	8b 80 98 ff df ff    	mov    -0x200068(%eax),%eax
 805059e:	8b 80 98 ff df ff    	mov    -0x200068(%eax),%eax
 80505a4:	8b 80 98 ff df ff    	mov    -0x200068(%eax),%eax
 80505aa:	8b 80 98 ff df ff    	mov    -0x200068(%eax),%eax
 80505b0:	8b 80 98 ff df ff    	mov    -0x200068(%eax),%eax
 80505b6:	8b 80 98 ff df ff    	mov    -0x200068(%eax),%eax
 80505bc:	8b 80 98 ff df ff    	mov    -0x200068(%eax),%eax
 80505c2:	8b 80 98 ff df ff    	mov    -0x200068(%eax),%eax
 80505c8:	8b 80 98 ff df ff    	mov    -0x200068(%eax),%eax
 80505ce:	8b 80 98 ff df ff    	mov    -0x200068(%eax),%eax
 80505d4:	8b 80 98 ff df ff    	mov    -0x200068(%eax),%eax
 80505da:	8b 80 98 ff df ff    	mov    -0x200068(%eax),%eax
 80505e0:	8b 80 98 ff df ff    	mov    -0x200068(%eax),%eax
 80505e6:	8b 80 98 ff df ff    	mov    -0x200068(%eax),%eax
 80505ec:	8b 80 98 ff df ff    	mov    -0x200068(%eax),%eax
 80505f2:	a3 40 57 05 08       	mov    %eax,0x8055740
 80505f7:	c7 05 70 e8 5f 08 9d 	movl   $0xcc00029d,0x85fe870
 80505fe:	02 00 cc 
 8050601:	a1 40 57 05 08       	mov    0x8055740,%eax
 8050606:	8b 15 48 e8 3f 08    	mov    0x83fe848,%edx
 805060c:	c7 05 70 e8 5f 08 9e 	movl   $0xcc00029e,0x85fe870
 8050613:	02 00 cc 
 8050616:	a3 64 e8 3f 08       	mov    %eax,0x83fe864
 805061b:	8b 04 95 60 e8 3f 08 	mov    0x83fe860(,%edx,4),%eax
 8050622:	8b 00                	mov    (%eax),%eax
 8050624:	a3 40 57 05 08       	mov    %eax,0x8055740
 8050629:	c7 05 70 e8 5f 08 9f 	movl   $0xcc00029f,0x85fe870
 8050630:	02 00 cc 
 8050633:	a1 44 57 05 08       	mov    0x8055744,%eax
 8050638:	8b 15 40 57 05 08    	mov    0x8055740,%edx
 805063e:	c7 05 70 e8 5f 08 a0 	movl   $0xcc0002a0,0x85fe870
 8050645:	02 00 cc 
 8050648:	a3 e0 e6 1f 08       	mov    %eax,0x81fe6e0
 805064d:	89 15 e4 e6 1f 08    	mov    %edx,0x81fe6e4
 8050653:	c7 05 70 e8 5f 08 a1 	movl   $0xcc0002a1,0x85fe870
 805065a:	02 00 cc 
 805065d:	c7 05 70 e8 5f 08 a2 	movl   $0xcc0002a2,0x85fe870
 8050664:	02 00 cc 
 8050667:	b8 00 00 00 00       	mov    $0x0,%eax
 805066c:	ba 00 00 00 00       	mov    $0x0,%edx
 8050671:	a0 e0 e6 1f 08       	mov    0x81fe6e0,%al
 8050676:	8a 15 e4 e6 1f 08    	mov    0x81fe6e4,%dl
 805067c:	8b 04 85 70 a1 1a 08 	mov    0x81aa170(,%eax,4),%eax
 8050683:	8a 04 10             	mov    (%eax,%edx,1),%al
 8050686:	a2 e8 e6 1f 08       	mov    %al,0x81fe6e8
 805068b:	c7 05 70 e8 5f 08 a3 	movl   $0xcc0002a3,0x85fe870
 8050692:	02 00 cc 
 8050695:	b8 00 00 00 00       	mov    $0x0,%eax
 805069a:	ba 00 00 00 00       	mov    $0x0,%edx
 805069f:	a0 e1 e6 1f 08       	mov    0x81fe6e1,%al
 80506a4:	8a 15 e5 e6 1f 08    	mov    0x81fe6e5,%dl
 80506aa:	8b 04 85 70 a1 1a 08 	mov    0x81aa170(,%eax,4),%eax
 80506b1:	8a 04 10             	mov    (%eax,%edx,1),%al
 80506b4:	a2 e9 e6 1f 08       	mov    %al,0x81fe6e9
 80506b9:	c7 05 70 e8 5f 08 a4 	movl   $0xcc0002a4,0x85fe870
 80506c0:	02 00 cc 
 80506c3:	b8 00 00 00 00       	mov    $0x0,%eax
 80506c8:	ba 00 00 00 00       	mov    $0x0,%edx
 80506cd:	a0 e2 e6 1f 08       	mov    0x81fe6e2,%al
 80506d2:	8a 15 e6 e6 1f 08    	mov    0x81fe6e6,%dl
 80506d8:	8b 04 85 70 a1 1a 08 	mov    0x81aa170(,%eax,4),%eax
 80506df:	8a 04 10             	mov    (%eax,%edx,1),%al
 80506e2:	a2 ea e6 1f 08       	mov    %al,0x81fe6ea
 80506e7:	c7 05 70 e8 5f 08 a5 	movl   $0xcc0002a5,0x85fe870
 80506ee:	02 00 cc 
 80506f1:	b8 00 00 00 00       	mov    $0x0,%eax
 80506f6:	ba 00 00 00 00       	mov    $0x0,%edx
 80506fb:	a0 e3 e6 1f 08       	mov    0x81fe6e3,%al
 8050700:	8a 15 e7 e6 1f 08    	mov    0x81fe6e7,%dl
 8050706:	8b 04 85 70 a1 1a 08 	mov    0x81aa170(,%eax,4),%eax
 805070d:	8a 04 10             	mov    (%eax,%edx,1),%al
 8050710:	a2 eb e6 1f 08       	mov    %al,0x81fe6eb
 8050715:	a1 e8 e6 1f 08       	mov    0x81fe6e8,%eax
 805071a:	a3 44 57 05 08       	mov    %eax,0x8055744
 805071f:	c7 05 70 e8 5f 08 a6 	movl   $0xcc0002a6,0x85fe870
 8050726:	02 00 cc 
 8050729:	a1 48 57 05 08       	mov    0x8055748,%eax
 805072e:	8b 15 44 57 05 08    	mov    0x8055744,%edx
 8050734:	c7 05 70 e8 5f 08 a7 	movl   $0xcc0002a7,0x85fe870
 805073b:	02 00 cc 
 805073e:	a3 e0 e6 1f 08       	mov    %eax,0x81fe6e0
 8050743:	89 15 e4 e6 1f 08    	mov    %edx,0x81fe6e4
 8050749:	c7 05 70 e8 5f 08 a8 	movl   $0xcc0002a8,0x85fe870
 8050750:	02 00 cc 
 8050753:	c7 05 70 e8 5f 08 a9 	movl   $0xcc0002a9,0x85fe870
 805075a:	02 00 cc 
 805075d:	b8 00 00 00 00       	mov    $0x0,%eax
 8050762:	ba 00 00 00 00       	mov    $0x0,%edx
 8050767:	a0 e0 e6 1f 08       	mov    0x81fe6e0,%al
 805076c:	8a 15 e4 e6 1f 08    	mov    0x81fe6e4,%dl
 8050772:	8b 04 85 60 9c 19 08 	mov    0x8199c60(,%eax,4),%eax
 8050779:	8a 04 10             	mov    (%eax,%edx,1),%al
 805077c:	a2 e8 e6 1f 08       	mov    %al,0x81fe6e8
 8050781:	c7 05 70 e8 5f 08 aa 	movl   $0xcc0002aa,0x85fe870
 8050788:	02 00 cc 
 805078b:	b8 00 00 00 00       	mov    $0x0,%eax
 8050790:	ba 00 00 00 00       	mov    $0x0,%edx
 8050795:	a0 e1 e6 1f 08       	mov    0x81fe6e1,%al
 805079a:	8a 15 e5 e6 1f 08    	mov    0x81fe6e5,%dl
 80507a0:	8b 04 85 60 9c 19 08 	mov    0x8199c60(,%eax,4),%eax
 80507a7:	8a 04 10             	mov    (%eax,%edx,1),%al
 80507aa:	a2 e9 e6 1f 08       	mov    %al,0x81fe6e9
 80507af:	c7 05 70 e8 5f 08 ab 	movl   $0xcc0002ab,0x85fe870
 80507b6:	02 00 cc 
 80507b9:	b8 00 00 00 00       	mov    $0x0,%eax
 80507be:	ba 00 00 00 00       	mov    $0x0,%edx
 80507c3:	a0 e2 e6 1f 08       	mov    0x81fe6e2,%al
 80507c8:	8a 15 e6 e6 1f 08    	mov    0x81fe6e6,%dl
 80507ce:	8b 04 85 60 9c 19 08 	mov    0x8199c60(,%eax,4),%eax
 80507d5:	8a 04 10             	mov    (%eax,%edx,1),%al
 80507d8:	a2 ea e6 1f 08       	mov    %al,0x81fe6ea
 80507dd:	c7 05 70 e8 5f 08 ac 	movl   $0xcc0002ac,0x85fe870
 80507e4:	02 00 cc 
 80507e7:	b8 00 00 00 00       	mov    $0x0,%eax
 80507ec:	ba 00 00 00 00       	mov    $0x0,%edx
 80507f1:	a0 e3 e6 1f 08       	mov    0x81fe6e3,%al
 80507f6:	8a 15 e7 e6 1f 08    	mov    0x81fe6e7,%dl
 80507fc:	8b 04 85 60 9c 19 08 	mov    0x8199c60(,%eax,4),%eax
 8050803:	8a 04 10             	mov    (%eax,%edx,1),%al
 8050806:	a2 eb e6 1f 08       	mov    %al,0x81fe6eb
 805080b:	a1 e8 e6 1f 08       	mov    0x81fe6e8,%eax
 8050810:	a3 48 57 05 08       	mov    %eax,0x8055748
 8050815:	c7 05 70 e8 5f 08 ad 	movl   $0xcc0002ad,0x85fe870
 805081c:	02 00 cc 
 805081f:	a1 24 e8 3f 08       	mov    0x83fe824,%eax
 8050824:	8b 80 98 ff df ff    	mov    -0x200068(%eax),%eax
 805082a:	8b 80 98 ff df ff    	mov    -0x200068(%eax),%eax
 8050830:	8b 80 98 ff df ff    	mov    -0x200068(%eax),%eax
 8050836:	8b 80 98 ff df ff    	mov    -0x200068(%eax),%eax
 805083c:	8b 80 98 ff df ff    	mov    -0x200068(%eax),%eax
 8050842:	8b 80 98 ff df ff    	mov    -0x200068(%eax),%eax
 8050848:	8b 80 98 ff df ff    	mov    -0x200068(%eax),%eax
 805084e:	8b 80 98 ff df ff    	mov    -0x200068(%eax),%eax
 8050854:	8b 80 98 ff df ff    	mov    -0x200068(%eax),%eax
 805085a:	8b 80 98 ff df ff    	mov    -0x200068(%eax),%eax
 8050860:	8b 80 98 ff df ff    	mov    -0x200068(%eax),%eax
 8050866:	8b 80 98 ff df ff    	mov    -0x200068(%eax),%eax
 805086c:	8b 80 98 ff df ff    	mov    -0x200068(%eax),%eax
 8050872:	8b 80 98 ff df ff    	mov    -0x200068(%eax),%eax
 8050878:	8b 80 98 ff df ff    	mov    -0x200068(%eax),%eax
 805087e:	8b 80 98 ff df ff    	mov    -0x200068(%eax),%eax
 8050884:	8b 80 98 ff df ff    	mov    -0x200068(%eax),%eax
 805088a:	8b 80 98 ff df ff    	mov    -0x200068(%eax),%eax
 8050890:	8b 80 98 ff df ff    	mov    -0x200068(%eax),%eax
 8050896:	8b 80 98 ff df ff    	mov    -0x200068(%eax),%eax
 805089c:	8b 80 98 ff df ff    	mov    -0x200068(%eax),%eax
 80508a2:	8b 80 98 ff df ff    	mov    -0x200068(%eax),%eax
 80508a8:	8b 80 98 ff df ff    	mov    -0x200068(%eax),%eax
 80508ae:	8b 80 98 ff df ff    	mov    -0x200068(%eax),%eax
 80508b4:	8b 80 98 ff df ff    	mov    -0x200068(%eax),%eax
 80508ba:	8b 80 98 ff df ff    	mov    -0x200068(%eax),%eax
 80508c0:	8b 80 98 ff df ff    	mov    -0x200068(%eax),%eax
 80508c6:	a3 44 57 05 08       	mov    %eax,0x8055744
 80508cb:	c7 05 70 e8 5f 08 ae 	movl   $0xcc0002ae,0x85fe870
 80508d2:	02 00 cc 
 80508d5:	a1 44 57 05 08       	mov    0x8055744,%eax
 80508da:	8b 15 48 e8 3f 08    	mov    0x83fe848,%edx
 80508e0:	c7 05 70 e8 5f 08 af 	movl   $0xcc0002af,0x85fe870
 80508e7:	02 00 cc 
 80508ea:	a3 64 e8 3f 08       	mov    %eax,0x83fe864
 80508ef:	8b 04 95 60 e8 3f 08 	mov    0x83fe860(,%edx,4),%eax
 80508f6:	ba 00 00 00 00       	mov    $0x0,%edx
 80508fb:	8a 10                	mov    (%eax),%dl
 80508fd:	89 15 40 57 05 08    	mov    %edx,0x8055740
 8050903:	c7 05 70 e8 5f 08 b0 	movl   $0xcc0002b0,0x85fe870
 805090a:	02 00 cc 
 805090d:	ba 00 00 00 00       	mov    $0x0,%edx
 8050912:	8a 15 40 57 05 08    	mov    0x8055740,%dl
 8050918:	8b 14 95 60 e2 1f 08 	mov    0x81fe260(,%edx,4),%edx
 805091f:	89 15 44 57 05 08    	mov    %edx,0x8055744
 8050925:	c7 05 70 e8 5f 08 b1 	movl   $0xcc0002b1,0x85fe870
 805092c:	02 00 cc 
 805092f:	a1 44 57 05 08       	mov    0x8055744,%eax
 8050934:	8b 15 4c 57 05 08    	mov    0x805574c,%edx
 805093a:	c7 05 70 e8 5f 08 b2 	movl   $0xcc0002b2,0x85fe870
 8050941:	02 00 cc 
 8050944:	a3 e0 e6 1f 08       	mov    %eax,0x81fe6e0
 8050949:	89 15 e4 e6 1f 08    	mov    %edx,0x81fe6e4
 805094f:	c7 05 70 e8 5f 08 b3 	movl   $0xcc0002b3,0x85fe870
 8050956:	02 00 cc 
 8050959:	b8 00 00 00 00       	mov    $0x0,%eax
 805095e:	b9 00 00 00 00       	mov    $0x0,%ecx
 8050963:	c7 05 f0 e6 1f 08 00 	movl   $0x0,0x81fe6f0
 805096a:	00 00 00 
 805096d:	c7 05 70 e8 5f 08 b4 	movl   $0xcc0002b4,0x85fe870
 8050974:	02 00 cc 
 8050977:	66 a1 e0 e6 1f 08    	mov    0x81fe6e0,%ax
 805097d:	66 8b 0d e4 e6 1f 08 	mov    0x81fe6e4,%cx
 8050984:	8b 14 85 20 96 06 08 	mov    0x8069620(,%eax,4),%edx
 805098b:	8b 14 8a             	mov    (%edx,%ecx,4),%edx
 805098e:	66 8b 0d f2 e6 1f 08 	mov    0x81fe6f2,%cx
 8050995:	8b 14 95 20 96 06 08 	mov    0x8069620(,%edx,4),%edx
 805099c:	8b 14 8a             	mov    (%edx,%ecx,4),%edx
 805099f:	66 89 15 e8 e6 1f 08 	mov    %dx,0x81fe6e8
 80509a6:	89 15 f0 e6 1f 08    	mov    %edx,0x81fe6f0
 80509ac:	c7 05 70 e8 5f 08 b5 	movl   $0xcc0002b5,0x85fe870
 80509b3:	02 00 cc 
 80509b6:	66 a1 e2 e6 1f 08    	mov    0x81fe6e2,%ax
 80509bc:	66 8b 0d e6 e6 1f 08 	mov    0x81fe6e6,%cx
 80509c3:	8b 14 85 20 96 06 08 	mov    0x8069620(,%eax,4),%edx
 80509ca:	8b 14 8a             	mov    (%edx,%ecx,4),%edx
 80509cd:	66 8b 0d f2 e6 1f 08 	mov    0x81fe6f2,%cx
 80509d4:	8b 14 95 20 96 06 08 	mov    0x8069620(,%edx,4),%edx
 80509db:	8b 14 8a             	mov    (%edx,%ecx,4),%edx
 80509de:	66 89 15 ea e6 1f 08 	mov    %dx,0x81fe6ea
 80509e5:	89 15 f0 e6 1f 08    	mov    %edx,0x81fe6f0
 80509eb:	a1 e8 e6 1f 08       	mov    0x81fe6e8,%eax
 80509f0:	a3 4c 57 05 08       	mov    %eax,0x805574c
 80509f5:	c7 05 70 e8 5f 08 b6 	movl   $0xcc0002b6,0x85fe870
 80509fc:	02 00 cc 
 80509ff:	a1 24 e8 3f 08       	mov    0x83fe824,%eax
 8050a04:	8b 80 98 ff df ff    	mov    -0x200068(%eax),%eax
 8050a0a:	8b 80 98 ff df ff    	mov    -0x200068(%eax),%eax
 8050a10:	8b 80 98 ff df ff    	mov    -0x200068(%eax),%eax
 8050a16:	8b 80 98 ff df ff    	mov    -0x200068(%eax),%eax
 8050a1c:	8b 80 98 ff df ff    	mov    -0x200068(%eax),%eax
 8050a22:	8b 80 98 ff df ff    	mov    -0x200068(%eax),%eax
 8050a28:	8b 80 98 ff df ff    	mov    -0x200068(%eax),%eax
 8050a2e:	8b 80 98 ff df ff    	mov    -0x200068(%eax),%eax
 8050a34:	8b 80 98 ff df ff    	mov    -0x200068(%eax),%eax
 8050a3a:	8b 80 98 ff df ff    	mov    -0x200068(%eax),%eax
 8050a40:	8b 80 98 ff df ff    	mov    -0x200068(%eax),%eax
 8050a46:	8b 80 98 ff df ff    	mov    -0x200068(%eax),%eax
 8050a4c:	8b 80 98 ff df ff    	mov    -0x200068(%eax),%eax
 8050a52:	8b 80 98 ff df ff    	mov    -0x200068(%eax),%eax
 8050a58:	8b 80 98 ff df ff    	mov    -0x200068(%eax),%eax
 8050a5e:	8b 80 98 ff df ff    	mov    -0x200068(%eax),%eax
 8050a64:	8b 80 98 ff df ff    	mov    -0x200068(%eax),%eax
 8050a6a:	8b 80 98 ff df ff    	mov    -0x200068(%eax),%eax
 8050a70:	8b 80 98 ff df ff    	mov    -0x200068(%eax),%eax
 8050a76:	8b 80 98 ff df ff    	mov    -0x200068(%eax),%eax
 8050a7c:	8b 80 98 ff df ff    	mov    -0x200068(%eax),%eax
 8050a82:	8b 80 98 ff df ff    	mov    -0x200068(%eax),%eax
 8050a88:	8b 80 98 ff df ff    	mov    -0x200068(%eax),%eax
 8050a8e:	8b 80 98 ff df ff    	mov    -0x200068(%eax),%eax
 8050a94:	8b 80 98 ff df ff    	mov    -0x200068(%eax),%eax
 8050a9a:	8b 80 98 ff df ff    	mov    -0x200068(%eax),%eax
 8050aa0:	8b 80 98 ff df ff    	mov    -0x200068(%eax),%eax
 8050aa6:	8b 80 98 ff df ff    	mov    -0x200068(%eax),%eax
 8050aac:	8b 80 98 ff df ff    	mov    -0x200068(%eax),%eax
 8050ab2:	8b 80 98 ff df ff    	mov    -0x200068(%eax),%eax
 8050ab8:	8b 80 98 ff df ff    	mov    -0x200068(%eax),%eax
 8050abe:	8b 80 98 ff df ff    	mov    -0x200068(%eax),%eax
 8050ac4:	8b 80 98 ff df ff    	mov    -0x200068(%eax),%eax
 8050aca:	8b 80 98 ff df ff    	mov    -0x200068(%eax),%eax
 8050ad0:	8b 80 98 ff df ff    	mov    -0x200068(%eax),%eax
 8050ad6:	8b 80 98 ff df ff    	mov    -0x200068(%eax),%eax
 8050adc:	8b 80 98 ff df ff    	mov    -0x200068(%eax),%eax
 8050ae2:	8b 80 98 ff df ff    	mov    -0x200068(%eax),%eax
 8050ae8:	8b 80 98 ff df ff    	mov    -0x200068(%eax),%eax
 8050aee:	8b 80 98 ff df ff    	mov    -0x200068(%eax),%eax
 8050af4:	a3 44 57 05 08       	mov    %eax,0x8055744
 8050af9:	c7 05 70 e8 5f 08 b7 	movl   $0xcc0002b7,0x85fe870
 8050b00:	02 00 cc 
 8050b03:	a1 44 57 05 08       	mov    0x8055744,%eax
 8050b08:	8b 15 48 e8 3f 08    	mov    0x83fe848,%edx
 8050b0e:	c7 05 70 e8 5f 08 b8 	movl   $0xcc0002b8,0x85fe870
 8050b15:	02 00 cc 
 8050b18:	a3 64 e8 3f 08       	mov    %eax,0x83fe864
 8050b1d:	8b 04 95 60 e8 3f 08 	mov    0x83fe860(,%edx,4),%eax
 8050b24:	8b 00                	mov    (%eax),%eax
 8050b26:	a3 44 57 05 08       	mov    %eax,0x8055744
 8050b2b:	c7 05 70 e8 5f 08 b9 	movl   $0xcc0002b9,0x85fe870
 8050b32:	02 00 cc 
 8050b35:	a1 4c 57 05 08       	mov    0x805574c,%eax
 8050b3a:	8b 15 44 57 05 08    	mov    0x8055744,%edx
 8050b40:	c7 05 70 e8 5f 08 ba 	movl   $0xcc0002ba,0x85fe870
 8050b47:	02 00 cc 
 8050b4a:	a3 e0 e6 1f 08       	mov    %eax,0x81fe6e0
 8050b4f:	89 15 e4 e6 1f 08    	mov    %edx,0x81fe6e4
 8050b55:	c7 05 70 e8 5f 08 bb 	movl   $0xcc0002bb,0x85fe870
 8050b5c:	02 00 cc 
 8050b5f:	c7 05 70 e8 5f 08 bc 	movl   $0xcc0002bc,0x85fe870
 8050b66:	02 00 cc 
 8050b69:	b8 00 00 00 00       	mov    $0x0,%eax
 8050b6e:	ba 00 00 00 00       	mov    $0x0,%edx
 8050b73:	a0 e0 e6 1f 08       	mov    0x81fe6e0,%al
 8050b78:	8a 15 e4 e6 1f 08    	mov    0x81fe6e4,%dl
 8050b7e:	8b 04 85 70 a1 1a 08 	mov    0x81aa170(,%eax,4),%eax
 8050b85:	8a 04 10             	mov    (%eax,%edx,1),%al
 8050b88:	a2 e8 e6 1f 08       	mov    %al,0x81fe6e8
 8050b8d:	c7 05 70 e8 5f 08 bd 	movl   $0xcc0002bd,0x85fe870
 8050b94:	02 00 cc 
 8050b97:	b8 00 00 00 00       	mov    $0x0,%eax
 8050b9c:	ba 00 00 00 00       	mov    $0x0,%edx
 8050ba1:	a0 e1 e6 1f 08       	mov    0x81fe6e1,%al
 8050ba6:	8a 15 e5 e6 1f 08    	mov    0x81fe6e5,%dl
 8050bac:	8b 04 85 70 a1 1a 08 	mov    0x81aa170(,%eax,4),%eax
 8050bb3:	8a 04 10             	mov    (%eax,%edx,1),%al
 8050bb6:	a2 e9 e6 1f 08       	mov    %al,0x81fe6e9
 8050bbb:	c7 05 70 e8 5f 08 be 	movl   $0xcc0002be,0x85fe870
 8050bc2:	02 00 cc 
 8050bc5:	b8 00 00 00 00       	mov    $0x0,%eax
 8050bca:	ba 00 00 00 00       	mov    $0x0,%edx
 8050bcf:	a0 e2 e6 1f 08       	mov    0x81fe6e2,%al
 8050bd4:	8a 15 e6 e6 1f 08    	mov    0x81fe6e6,%dl
 8050bda:	8b 04 85 70 a1 1a 08 	mov    0x81aa170(,%eax,4),%eax
 8050be1:	8a 04 10             	mov    (%eax,%edx,1),%al
 8050be4:	a2 ea e6 1f 08       	mov    %al,0x81fe6ea
 8050be9:	c7 05 70 e8 5f 08 bf 	movl   $0xcc0002bf,0x85fe870
 8050bf0:	02 00 cc 
 8050bf3:	b8 00 00 00 00       	mov    $0x0,%eax
 8050bf8:	ba 00 00 00 00       	mov    $0x0,%edx
 8050bfd:	a0 e3 e6 1f 08       	mov    0x81fe6e3,%al
 8050c02:	8a 15 e7 e6 1f 08    	mov    0x81fe6e7,%dl
 8050c08:	8b 04 85 70 a1 1a 08 	mov    0x81aa170(,%eax,4),%eax
 8050c0f:	8a 04 10             	mov    (%eax,%edx,1),%al
 8050c12:	a2 eb e6 1f 08       	mov    %al,0x81fe6eb
 8050c17:	a1 e8 e6 1f 08       	mov    0x81fe6e8,%eax
 8050c1c:	a3 4c 57 05 08       	mov    %eax,0x805574c
 8050c21:	c7 05 70 e8 5f 08 c0 	movl   $0xcc0002c0,0x85fe870
 8050c28:	02 00 cc 
 8050c2b:	a1 48 57 05 08       	mov    0x8055748,%eax
 8050c30:	8b 15 4c 57 05 08    	mov    0x805574c,%edx
 8050c36:	c7 05 70 e8 5f 08 c1 	movl   $0xcc0002c1,0x85fe870
 8050c3d:	02 00 cc 
 8050c40:	a3 e0 e6 1f 08       	mov    %eax,0x81fe6e0
 8050c45:	89 15 e4 e6 1f 08    	mov    %edx,0x81fe6e4
 8050c4b:	c7 05 70 e8 5f 08 c2 	movl   $0xcc0002c2,0x85fe870
 8050c52:	02 00 cc 
 8050c55:	c7 05 70 e8 5f 08 c3 	movl   $0xcc0002c3,0x85fe870
 8050c5c:	02 00 cc 
 8050c5f:	b8 00 00 00 00       	mov    $0x0,%eax
 8050c64:	ba 00 00 00 00       	mov    $0x0,%edx
 8050c69:	a0 e0 e6 1f 08       	mov    0x81fe6e0,%al
 8050c6e:	8a 15 e4 e6 1f 08    	mov    0x81fe6e4,%dl
 8050c74:	8b 04 85 60 9c 19 08 	mov    0x8199c60(,%eax,4),%eax
 8050c7b:	8a 04 10             	mov    (%eax,%edx,1),%al
 8050c7e:	a2 e8 e6 1f 08       	mov    %al,0x81fe6e8
 8050c83:	c7 05 70 e8 5f 08 c4 	movl   $0xcc0002c4,0x85fe870
 8050c8a:	02 00 cc 
 8050c8d:	b8 00 00 00 00       	mov    $0x0,%eax
 8050c92:	ba 00 00 00 00       	mov    $0x0,%edx
 8050c97:	a0 e1 e6 1f 08       	mov    0x81fe6e1,%al
 8050c9c:	8a 15 e5 e6 1f 08    	mov    0x81fe6e5,%dl
 8050ca2:	8b 04 85 60 9c 19 08 	mov    0x8199c60(,%eax,4),%eax
 8050ca9:	8a 04 10             	mov    (%eax,%edx,1),%al
 8050cac:	a2 e9 e6 1f 08       	mov    %al,0x81fe6e9
 8050cb1:	c7 05 70 e8 5f 08 c5 	movl   $0xcc0002c5,0x85fe870
 8050cb8:	02 00 cc 
 8050cbb:	b8 00 00 00 00       	mov    $0x0,%eax
 8050cc0:	ba 00 00 00 00       	mov    $0x0,%edx
 8050cc5:	a0 e2 e6 1f 08       	mov    0x81fe6e2,%al
 8050cca:	8a 15 e6 e6 1f 08    	mov    0x81fe6e6,%dl
 8050cd0:	8b 04 85 60 9c 19 08 	mov    0x8199c60(,%eax,4),%eax
 8050cd7:	8a 04 10             	mov    (%eax,%edx,1),%al
 8050cda:	a2 ea e6 1f 08       	mov    %al,0x81fe6ea
 8050cdf:	c7 05 70 e8 5f 08 c6 	movl   $0xcc0002c6,0x85fe870
 8050ce6:	02 00 cc 
 8050ce9:	b8 00 00 00 00       	mov    $0x0,%eax
 8050cee:	ba 00 00 00 00       	mov    $0x0,%edx
 8050cf3:	a0 e3 e6 1f 08       	mov    0x81fe6e3,%al
 8050cf8:	8a 15 e7 e6 1f 08    	mov    0x81fe6e7,%dl
 8050cfe:	8b 04 85 60 9c 19 08 	mov    0x8199c60(,%eax,4),%eax
 8050d05:	8a 04 10             	mov    (%eax,%edx,1),%al
 8050d08:	a2 eb e6 1f 08       	mov    %al,0x81fe6eb
 8050d0d:	a1 e8 e6 1f 08       	mov    0x81fe6e8,%eax
 8050d12:	a3 4c 57 05 08       	mov    %eax,0x805574c
 8050d17:	c7 05 70 e8 5f 08 c7 	movl   $0xcc0002c7,0x85fe870
 8050d1e:	02 00 cc 
 8050d21:	a1 24 e8 3f 08       	mov    0x83fe824,%eax
 8050d26:	ba 95 ff ff ff       	mov    $0xffffff95,%edx
 8050d2b:	c7 05 70 e8 5f 08 c8 	movl   $0xcc0002c8,0x85fe870
 8050d32:	02 00 cc 
 8050d35:	a3 e0 e6 1f 08       	mov    %eax,0x81fe6e0
 8050d3a:	89 15 e4 e6 1f 08    	mov    %edx,0x81fe6e4
 8050d40:	c7 05 70 e8 5f 08 c9 	movl   $0xcc0002c9,0x85fe870
 8050d47:	02 00 cc 
 8050d4a:	b8 00 00 00 00       	mov    $0x0,%eax
 8050d4f:	b9 00 00 00 00       	mov    $0x0,%ecx
 8050d54:	c7 05 f0 e6 1f 08 00 	movl   $0x0,0x81fe6f0
 8050d5b:	00 00 00 
 8050d5e:	c7 05 70 e8 5f 08 ca 	movl   $0xcc0002ca,0x85fe870
 8050d65:	02 00 cc 
 8050d68:	66 a1 e0 e6 1f 08    	mov    0x81fe6e0,%ax
 8050d6e:	66 8b 0d e4 e6 1f 08 	mov    0x81fe6e4,%cx
 8050d75:	8b 14 85 20 96 06 08 	mov    0x8069620(,%eax,4),%edx
 8050d7c:	8b 14 8a             	mov    (%edx,%ecx,4),%edx
 8050d7f:	66 8b 0d f2 e6 1f 08 	mov    0x81fe6f2,%cx
 8050d86:	8b 14 95 20 96 06 08 	mov    0x8069620(,%edx,4),%edx
 8050d8d:	8b 14 8a             	mov    (%edx,%ecx,4),%edx
 8050d90:	66 89 15 e8 e6 1f 08 	mov    %dx,0x81fe6e8
 8050d97:	89 15 f0 e6 1f 08    	mov    %edx,0x81fe6f0
 8050d9d:	c7 05 70 e8 5f 08 cb 	movl   $0xcc0002cb,0x85fe870
 8050da4:	02 00 cc 
 8050da7:	66 a1 e2 e6 1f 08    	mov    0x81fe6e2,%ax
 8050dad:	66 8b 0d e6 e6 1f 08 	mov    0x81fe6e6,%cx
 8050db4:	8b 14 85 20 96 06 08 	mov    0x8069620(,%eax,4),%edx
 8050dbb:	8b 14 8a             	mov    (%edx,%ecx,4),%edx
 8050dbe:	66 8b 0d f2 e6 1f 08 	mov    0x81fe6f2,%cx
 8050dc5:	8b 14 95 20 96 06 08 	mov    0x8069620(,%edx,4),%edx
 8050dcc:	8b 14 8a             	mov    (%edx,%ecx,4),%edx
 8050dcf:	66 89 15 ea e6 1f 08 	mov    %dx,0x81fe6ea
 8050dd6:	89 15 f0 e6 1f 08    	mov    %edx,0x81fe6f0
 8050ddc:	a1 e8 e6 1f 08       	mov    0x81fe6e8,%eax
 8050de1:	a3 48 57 05 08       	mov    %eax,0x8055748
 8050de6:	c7 05 70 e8 5f 08 cc 	movl   $0xcc0002cc,0x85fe870
 8050ded:	02 00 cc 
 8050df0:	a1 48 57 05 08       	mov    0x8055748,%eax
 8050df5:	8b 15 48 e8 3f 08    	mov    0x83fe848,%edx
 8050dfb:	c7 05 70 e8 5f 08 cd 	movl   $0xcc0002cd,0x85fe870
 8050e02:	02 00 cc 
 8050e05:	a3 64 e8 3f 08       	mov    %eax,0x83fe864
 8050e0a:	8b 04 95 60 e8 3f 08 	mov    0x83fe860(,%edx,4),%eax
 8050e11:	ba 00 00 00 00       	mov    $0x0,%edx
 8050e16:	8a 10                	mov    (%eax),%dl
 8050e18:	89 15 40 57 05 08    	mov    %edx,0x8055740
 8050e1e:	c7 05 70 e8 5f 08 ce 	movl   $0xcc0002ce,0x85fe870
 8050e25:	02 00 cc 
 8050e28:	ba 00 00 00 00       	mov    $0x0,%edx
 8050e2d:	8a 15 40 57 05 08    	mov    0x8055740,%dl
 8050e33:	8b 14 95 60 e2 1f 08 	mov    0x81fe260(,%edx,4),%edx
 8050e3a:	89 15 48 57 05 08    	mov    %edx,0x8055748
 8050e40:	c7 05 70 e8 5f 08 cf 	movl   $0xcc0002cf,0x85fe870
 8050e47:	02 00 cc 
 8050e4a:	a1 24 e8 3f 08       	mov    0x83fe824,%eax
 8050e4f:	8b 80 98 ff df ff    	mov    -0x200068(%eax),%eax
 8050e55:	8b 80 98 ff df ff    	mov    -0x200068(%eax),%eax
 8050e5b:	8b 80 98 ff df ff    	mov    -0x200068(%eax),%eax
 8050e61:	8b 80 98 ff df ff    	mov    -0x200068(%eax),%eax
 8050e67:	8b 80 98 ff df ff    	mov    -0x200068(%eax),%eax
 8050e6d:	8b 80 98 ff df ff    	mov    -0x200068(%eax),%eax
 8050e73:	8b 80 98 ff df ff    	mov    -0x200068(%eax),%eax
 8050e79:	8b 80 98 ff df ff    	mov    -0x200068(%eax),%eax
 8050e7f:	8b 80 98 ff df ff    	mov    -0x200068(%eax),%eax
 8050e85:	8b 80 98 ff df ff    	mov    -0x200068(%eax),%eax
 8050e8b:	8b 80 98 ff df ff    	mov    -0x200068(%eax),%eax
 8050e91:	8b 80 98 ff df ff    	mov    -0x200068(%eax),%eax
 8050e97:	8b 80 98 ff df ff    	mov    -0x200068(%eax),%eax
 8050e9d:	8b 80 98 ff df ff    	mov    -0x200068(%eax),%eax
 8050ea3:	8b 80 98 ff df ff    	mov    -0x200068(%eax),%eax
 8050ea9:	8b 80 98 ff df ff    	mov    -0x200068(%eax),%eax
 8050eaf:	8b 80 98 ff df ff    	mov    -0x200068(%eax),%eax
 8050eb5:	8b 80 98 ff df ff    	mov    -0x200068(%eax),%eax
 8050ebb:	8b 80 98 ff df ff    	mov    -0x200068(%eax),%eax
 8050ec1:	8b 80 98 ff df ff    	mov    -0x200068(%eax),%eax
 8050ec7:	8b 80 98 ff df ff    	mov    -0x200068(%eax),%eax
 8050ecd:	8b 80 98 ff df ff    	mov    -0x200068(%eax),%eax
 8050ed3:	8b 80 98 ff df ff    	mov    -0x200068(%eax),%eax
 8050ed9:	8b 80 98 ff df ff    	mov    -0x200068(%eax),%eax
 8050edf:	8b 80 98 ff df ff    	mov    -0x200068(%eax),%eax
 8050ee5:	8b 80 98 ff df ff    	mov    -0x200068(%eax),%eax
 8050eeb:	8b 80 98 ff df ff    	mov    -0x200068(%eax),%eax
 8050ef1:	8b 80 98 ff df ff    	mov    -0x200068(%eax),%eax
 8050ef7:	8b 80 98 ff df ff    	mov    -0x200068(%eax),%eax
 8050efd:	8b 80 98 ff df ff    	mov    -0x200068(%eax),%eax
 8050f03:	8b 80 98 ff df ff    	mov    -0x200068(%eax),%eax
 8050f09:	8b 80 98 ff df ff    	mov    -0x200068(%eax),%eax
 8050f0f:	8b 80 98 ff df ff    	mov    -0x200068(%eax),%eax
 8050f15:	8b 80 98 ff df ff    	mov    -0x200068(%eax),%eax
 8050f1b:	8b 80 98 ff df ff    	mov    -0x200068(%eax),%eax
 8050f21:	8b 80 98 ff df ff    	mov    -0x200068(%eax),%eax
 8050f27:	8b 80 98 ff df ff    	mov    -0x200068(%eax),%eax
 8050f2d:	8b 80 98 ff df ff    	mov    -0x200068(%eax),%eax
 8050f33:	8b 80 98 ff df ff    	mov    -0x200068(%eax),%eax
 8050f39:	8b 80 98 ff df ff    	mov    -0x200068(%eax),%eax
 8050f3f:	8b 80 98 ff df ff    	mov    -0x200068(%eax),%eax
 8050f45:	8b 80 98 ff df ff    	mov    -0x200068(%eax),%eax
 8050f4b:	a3 44 57 05 08       	mov    %eax,0x8055744
 8050f50:	c7 05 70 e8 5f 08 d0 	movl   $0xcc0002d0,0x85fe870
 8050f57:	02 00 cc 
 8050f5a:	a1 44 57 05 08       	mov    0x8055744,%eax
 8050f5f:	8b 15 48 e8 3f 08    	mov    0x83fe848,%edx
 8050f65:	c7 05 70 e8 5f 08 d1 	movl   $0xcc0002d1,0x85fe870
 8050f6c:	02 00 cc 
 8050f6f:	a3 64 e8 3f 08       	mov    %eax,0x83fe864
 8050f74:	8b 04 95 60 e8 3f 08 	mov    0x83fe860(,%edx,4),%eax
 8050f7b:	8b 00                	mov    (%eax),%eax
 8050f7d:	a3 44 57 05 08       	mov    %eax,0x8055744
 8050f82:	c7 05 70 e8 5f 08 d2 	movl   $0xcc0002d2,0x85fe870
 8050f89:	02 00 cc 
 8050f8c:	a1 48 57 05 08       	mov    0x8055748,%eax
 8050f91:	8b 15 44 57 05 08    	mov    0x8055744,%edx
 8050f97:	c7 05 70 e8 5f 08 d3 	movl   $0xcc0002d3,0x85fe870
 8050f9e:	02 00 cc 
 8050fa1:	a3 e0 e6 1f 08       	mov    %eax,0x81fe6e0
 8050fa6:	89 15 e4 e6 1f 08    	mov    %edx,0x81fe6e4
 8050fac:	c7 05 70 e8 5f 08 d4 	movl   $0xcc0002d4,0x85fe870
 8050fb3:	02 00 cc 
 8050fb6:	b8 00 00 00 00       	mov    $0x0,%eax
 8050fbb:	b9 00 00 00 00       	mov    $0x0,%ecx
 8050fc0:	c7 05 f0 e6 1f 08 01 	movl   $0x1,0x81fe6f0
 8050fc7:	00 00 00 
 8050fca:	c7 05 70 e8 5f 08 d5 	movl   $0xcc0002d5,0x85fe870
 8050fd1:	02 00 cc 
 8050fd4:	66 a1 e0 e6 1f 08    	mov    0x81fe6e0,%ax
 8050fda:	66 8b 0d e4 e6 1f 08 	mov    0x81fe6e4,%cx
 8050fe1:	66 8b 0c 4d 40 97 16 	mov    0x8169740(,%ecx,2),%cx
 8050fe8:	08 
 8050fe9:	8b 14 85 20 96 06 08 	mov    0x8069620(,%eax,4),%edx
 8050ff0:	8b 14 8a             	mov    (%edx,%ecx,4),%edx
 8050ff3:	8b 14 95 20 96 06 08 	mov    0x8069620(,%edx,4),%edx
 8050ffa:	8b 0d f0 e6 1f 08    	mov    0x81fe6f0,%ecx
 8051000:	8b 14 8a             	mov    (%edx,%ecx,4),%edx
 8051003:	66 89 15 e8 e6 1f 08 	mov    %dx,0x81fe6e8
 805100a:	89 15 ee e6 1f 08    	mov    %edx,0x81fe6ee
 8051010:	c7 05 70 e8 5f 08 d6 	movl   $0xcc0002d6,0x85fe870
 8051017:	02 00 cc 
 805101a:	66 a1 e2 e6 1f 08    	mov    0x81fe6e2,%ax
 8051020:	66 8b 0d e6 e6 1f 08 	mov    0x81fe6e6,%cx
 8051027:	66 8b 0c 4d 40 97 16 	mov    0x8169740(,%ecx,2),%cx
 805102e:	08 
 805102f:	8b 14 85 20 96 06 08 	mov    0x8069620(,%eax,4),%edx
 8051036:	8b 14 8a             	mov    (%edx,%ecx,4),%edx
 8051039:	8b 14 95 20 96 06 08 	mov    0x8069620(,%edx,4),%edx
 8051040:	8b 0d f0 e6 1f 08    	mov    0x81fe6f0,%ecx
 8051046:	8b 14 8a             	mov    (%edx,%ecx,4),%edx
 8051049:	66 89 15 ea e6 1f 08 	mov    %dx,0x81fe6ea
 8051050:	89 15 ee e6 1f 08    	mov    %edx,0x81fe6ee
 8051056:	a1 e8 e6 1f 08       	mov    0x81fe6e8,%eax
 805105b:	a3 48 57 05 08       	mov    %eax,0x8055748
 8051060:	c7 05 44 57 05 08 4e 	movl   $0x4e,0x8055744
 8051067:	00 00 00 
 805106a:	c7 05 70 e8 5f 08 d7 	movl   $0xcc0002d7,0x85fe870
 8051071:	02 00 cc 
 8051074:	a1 48 57 05 08       	mov    0x8055748,%eax
 8051079:	8b 15 44 57 05 08    	mov    0x8055744,%edx
 805107f:	c7 05 70 e8 5f 08 d8 	movl   $0xcc0002d8,0x85fe870
 8051086:	02 00 cc 
 8051089:	a3 e0 e6 1f 08       	mov    %eax,0x81fe6e0
 805108e:	89 15 e4 e6 1f 08    	mov    %edx,0x81fe6e4
 8051094:	c7 05 70 e8 5f 08 d9 	movl   $0xcc0002d9,0x85fe870
 805109b:	02 00 cc 
 805109e:	c7 05 70 e8 5f 08 da 	movl   $0xcc0002da,0x85fe870
 80510a5:	02 00 cc 
 80510a8:	b8 00 00 00 00       	mov    $0x0,%eax
 80510ad:	ba 00 00 00 00       	mov    $0x0,%edx
 80510b2:	a0 e0 e6 1f 08       	mov    0x81fe6e0,%al
 80510b7:	8a 15 e4 e6 1f 08    	mov    0x81fe6e4,%dl
 80510bd:	8b 04 85 70 a1 1a 08 	mov    0x81aa170(,%eax,4),%eax
 80510c4:	8a 04 10             	mov    (%eax,%edx,1),%al
 80510c7:	a2 e8 e6 1f 08       	mov    %al,0x81fe6e8
 80510cc:	c7 05 70 e8 5f 08 db 	movl   $0xcc0002db,0x85fe870
 80510d3:	02 00 cc 
 80510d6:	b8 00 00 00 00       	mov    $0x0,%eax
 80510db:	ba 00 00 00 00       	mov    $0x0,%edx
 80510e0:	a0 e1 e6 1f 08       	mov    0x81fe6e1,%al
 80510e5:	8a 15 e5 e6 1f 08    	mov    0x81fe6e5,%dl
 80510eb:	8b 04 85 70 a1 1a 08 	mov    0x81aa170(,%eax,4),%eax
 80510f2:	8a 04 10             	mov    (%eax,%edx,1),%al
 80510f5:	a2 e9 e6 1f 08       	mov    %al,0x81fe6e9
 80510fa:	c7 05 70 e8 5f 08 dc 	movl   $0xcc0002dc,0x85fe870
 8051101:	02 00 cc 
 8051104:	b8 00 00 00 00       	mov    $0x0,%eax
 8051109:	ba 00 00 00 00       	mov    $0x0,%edx
 805110e:	a0 e2 e6 1f 08       	mov    0x81fe6e2,%al
 8051113:	8a 15 e6 e6 1f 08    	mov    0x81fe6e6,%dl
 8051119:	8b 04 85 70 a1 1a 08 	mov    0x81aa170(,%eax,4),%eax
 8051120:	8a 04 10             	mov    (%eax,%edx,1),%al
 8051123:	a2 ea e6 1f 08       	mov    %al,0x81fe6ea
 8051128:	c7 05 70 e8 5f 08 dd 	movl   $0xcc0002dd,0x85fe870
 805112f:	02 00 cc 
 8051132:	b8 00 00 00 00       	mov    $0x0,%eax
 8051137:	ba 00 00 00 00       	mov    $0x0,%edx
 805113c:	a0 e3 e6 1f 08       	mov    0x81fe6e3,%al
 8051141:	8a 15 e7 e6 1f 08    	mov    0x81fe6e7,%dl
 8051147:	8b 04 85 70 a1 1a 08 	mov    0x81aa170(,%eax,4),%eax
 805114e:	8a 04 10             	mov    (%eax,%edx,1),%al
 8051151:	a2 eb e6 1f 08       	mov    %al,0x81fe6eb
 8051156:	a1 e8 e6 1f 08       	mov    0x81fe6e8,%eax
 805115b:	a3 48 57 05 08       	mov    %eax,0x8055748
 8051160:	c7 05 70 e8 5f 08 de 	movl   $0xcc0002de,0x85fe870
 8051167:	02 00 cc 
 805116a:	a1 4c 57 05 08       	mov    0x805574c,%eax
 805116f:	8b 15 48 57 05 08    	mov    0x8055748,%edx
 8051175:	c7 05 70 e8 5f 08 df 	movl   $0xcc0002df,0x85fe870
 805117c:	02 00 cc 
 805117f:	a3 e0 e6 1f 08       	mov    %eax,0x81fe6e0
 8051184:	89 15 e4 e6 1f 08    	mov    %edx,0x81fe6e4
 805118a:	c7 05 70 e8 5f 08 e0 	movl   $0xcc0002e0,0x85fe870
 8051191:	02 00 cc 
 8051194:	c7 05 70 e8 5f 08 e1 	movl   $0xcc0002e1,0x85fe870
 805119b:	02 00 cc 
 805119e:	b8 00 00 00 00       	mov    $0x0,%eax
 80511a3:	ba 00 00 00 00       	mov    $0x0,%edx
 80511a8:	a0 e0 e6 1f 08       	mov    0x81fe6e0,%al
 80511ad:	8a 15 e4 e6 1f 08    	mov    0x81fe6e4,%dl
 80511b3:	8b 04 85 60 9c 19 08 	mov    0x8199c60(,%eax,4),%eax
 80511ba:	8a 04 10             	mov    (%eax,%edx,1),%al
 80511bd:	a2 e8 e6 1f 08       	mov    %al,0x81fe6e8
 80511c2:	c7 05 70 e8 5f 08 e2 	movl   $0xcc0002e2,0x85fe870
 80511c9:	02 00 cc 
 80511cc:	b8 00 00 00 00       	mov    $0x0,%eax
 80511d1:	ba 00 00 00 00       	mov    $0x0,%edx
 80511d6:	a0 e1 e6 1f 08       	mov    0x81fe6e1,%al
 80511db:	8a 15 e5 e6 1f 08    	mov    0x81fe6e5,%dl
 80511e1:	8b 04 85 60 9c 19 08 	mov    0x8199c60(,%eax,4),%eax
 80511e8:	8a 04 10             	mov    (%eax,%edx,1),%al
 80511eb:	a2 e9 e6 1f 08       	mov    %al,0x81fe6e9
 80511f0:	c7 05 70 e8 5f 08 e3 	movl   $0xcc0002e3,0x85fe870
 80511f7:	02 00 cc 
 80511fa:	b8 00 00 00 00       	mov    $0x0,%eax
 80511ff:	ba 00 00 00 00       	mov    $0x0,%edx
 8051204:	a0 e2 e6 1f 08       	mov    0x81fe6e2,%al
 8051209:	8a 15 e6 e6 1f 08    	mov    0x81fe6e6,%dl
 805120f:	8b 04 85 60 9c 19 08 	mov    0x8199c60(,%eax,4),%eax
 8051216:	8a 04 10             	mov    (%eax,%edx,1),%al
 8051219:	a2 ea e6 1f 08       	mov    %al,0x81fe6ea
 805121e:	c7 05 70 e8 5f 08 e4 	movl   $0xcc0002e4,0x85fe870
 8051225:	02 00 cc 
 8051228:	b8 00 00 00 00       	mov    $0x0,%eax
 805122d:	ba 00 00 00 00       	mov    $0x0,%edx
 8051232:	a0 e3 e6 1f 08       	mov    0x81fe6e3,%al
 8051237:	8a 15 e7 e6 1f 08    	mov    0x81fe6e7,%dl
 805123d:	8b 04 85 60 9c 19 08 	mov    0x8199c60(,%eax,4),%eax
 8051244:	8a 04 10             	mov    (%eax,%edx,1),%al
 8051247:	a2 eb e6 1f 08       	mov    %al,0x81fe6eb
 805124c:	a1 e8 e6 1f 08       	mov    0x81fe6e8,%eax
 8051251:	a3 4c 57 05 08       	mov    %eax,0x805574c
 8051256:	c7 05 70 e8 5f 08 e5 	movl   $0xcc0002e5,0x85fe870
 805125d:	02 00 cc 
 8051260:	a1 24 e8 3f 08       	mov    0x83fe824,%eax
 8051265:	ba 96 ff ff ff       	mov    $0xffffff96,%edx
 805126a:	c7 05 70 e8 5f 08 e6 	movl   $0xcc0002e6,0x85fe870
 8051271:	02 00 cc 
 8051274:	a3 e0 e6 1f 08       	mov    %eax,0x81fe6e0
 8051279:	89 15 e4 e6 1f 08    	mov    %edx,0x81fe6e4
 805127f:	c7 05 70 e8 5f 08 e7 	movl   $0xcc0002e7,0x85fe870
 8051286:	02 00 cc 
 8051289:	b8 00 00 00 00       	mov    $0x0,%eax
 805128e:	b9 00 00 00 00       	mov    $0x0,%ecx
 8051293:	c7 05 f0 e6 1f 08 00 	movl   $0x0,0x81fe6f0
 805129a:	00 00 00 
 805129d:	c7 05 70 e8 5f 08 e8 	movl   $0xcc0002e8,0x85fe870
 80512a4:	02 00 cc 
 80512a7:	66 a1 e0 e6 1f 08    	mov    0x81fe6e0,%ax
 80512ad:	66 8b 0d e4 e6 1f 08 	mov    0x81fe6e4,%cx
 80512b4:	8b 14 85 20 96 06 08 	mov    0x8069620(,%eax,4),%edx
 80512bb:	8b 14 8a             	mov    (%edx,%ecx,4),%edx
 80512be:	66 8b 0d f2 e6 1f 08 	mov    0x81fe6f2,%cx
 80512c5:	8b 14 95 20 96 06 08 	mov    0x8069620(,%edx,4),%edx
 80512cc:	8b 14 8a             	mov    (%edx,%ecx,4),%edx
 80512cf:	66 89 15 e8 e6 1f 08 	mov    %dx,0x81fe6e8
 80512d6:	89 15 f0 e6 1f 08    	mov    %edx,0x81fe6f0
 80512dc:	c7 05 70 e8 5f 08 e9 	movl   $0xcc0002e9,0x85fe870
 80512e3:	02 00 cc 
 80512e6:	66 a1 e2 e6 1f 08    	mov    0x81fe6e2,%ax
 80512ec:	66 8b 0d e6 e6 1f 08 	mov    0x81fe6e6,%cx
 80512f3:	8b 14 85 20 96 06 08 	mov    0x8069620(,%eax,4),%edx
 80512fa:	8b 14 8a             	mov    (%edx,%ecx,4),%edx
 80512fd:	66 8b 0d f2 e6 1f 08 	mov    0x81fe6f2,%cx
 8051304:	8b 14 95 20 96 06 08 	mov    0x8069620(,%edx,4),%edx
 805130b:	8b 14 8a             	mov    (%edx,%ecx,4),%edx
 805130e:	66 89 15 ea e6 1f 08 	mov    %dx,0x81fe6ea
 8051315:	89 15 f0 e6 1f 08    	mov    %edx,0x81fe6f0
 805131b:	a1 e8 e6 1f 08       	mov    0x81fe6e8,%eax
 8051320:	a3 48 57 05 08       	mov    %eax,0x8055748
 8051325:	c7 05 70 e8 5f 08 ea 	movl   $0xcc0002ea,0x85fe870
 805132c:	02 00 cc 
 805132f:	a1 48 57 05 08       	mov    0x8055748,%eax
 8051334:	8b 15 48 e8 3f 08    	mov    0x83fe848,%edx
 805133a:	c7 05 70 e8 5f 08 eb 	movl   $0xcc0002eb,0x85fe870
 8051341:	02 00 cc 
 8051344:	a3 64 e8 3f 08       	mov    %eax,0x83fe864
 8051349:	8b 04 95 60 e8 3f 08 	mov    0x83fe860(,%edx,4),%eax
 8051350:	ba 00 00 00 00       	mov    $0x0,%edx
 8051355:	8a 10                	mov    (%eax),%dl
 8051357:	89 15 40 57 05 08    	mov    %edx,0x8055740
 805135d:	c7 05 70 e8 5f 08 ec 	movl   $0xcc0002ec,0x85fe870
 8051364:	02 00 cc 
 8051367:	ba 00 00 00 00       	mov    $0x0,%edx
 805136c:	8a 15 40 57 05 08    	mov    0x8055740,%dl
 8051372:	8b 14 95 60 e2 1f 08 	mov    0x81fe260(,%edx,4),%edx
 8051379:	89 15 48 57 05 08    	mov    %edx,0x8055748
 805137f:	c7 05 70 e8 5f 08 ed 	movl   $0xcc0002ed,0x85fe870
 8051386:	02 00 cc 
 8051389:	a1 24 e8 3f 08       	mov    0x83fe824,%eax
 805138e:	8b 80 98 ff df ff    	mov    -0x200068(%eax),%eax
 8051394:	8b 80 98 ff df ff    	mov    -0x200068(%eax),%eax
 805139a:	8b 80 98 ff df ff    	mov    -0x200068(%eax),%eax
 80513a0:	8b 80 98 ff df ff    	mov    -0x200068(%eax),%eax
 80513a6:	8b 80 98 ff df ff    	mov    -0x200068(%eax),%eax
 80513ac:	8b 80 98 ff df ff    	mov    -0x200068(%eax),%eax
 80513b2:	8b 80 98 ff df ff    	mov    -0x200068(%eax),%eax
 80513b8:	8b 80 98 ff df ff    	mov    -0x200068(%eax),%eax
 80513be:	8b 80 98 ff df ff    	mov    -0x200068(%eax),%eax
 80513c4:	8b 80 98 ff df ff    	mov    -0x200068(%eax),%eax
 80513ca:	8b 80 98 ff df ff    	mov    -0x200068(%eax),%eax
 80513d0:	8b 80 98 ff df ff    	mov    -0x200068(%eax),%eax
 80513d6:	8b 80 98 ff df ff    	mov    -0x200068(%eax),%eax
 80513dc:	8b 80 98 ff df ff    	mov    -0x200068(%eax),%eax
 80513e2:	8b 80 98 ff df ff    	mov    -0x200068(%eax),%eax
 80513e8:	8b 80 98 ff df ff    	mov    -0x200068(%eax),%eax
 80513ee:	8b 80 98 ff df ff    	mov    -0x200068(%eax),%eax
 80513f4:	8b 80 98 ff df ff    	mov    -0x200068(%eax),%eax
 80513fa:	8b 80 98 ff df ff    	mov    -0x200068(%eax),%eax
 8051400:	8b 80 98 ff df ff    	mov    -0x200068(%eax),%eax
 8051406:	8b 80 98 ff df ff    	mov    -0x200068(%eax),%eax
 805140c:	8b 80 98 ff df ff    	mov    -0x200068(%eax),%eax
 8051412:	8b 80 98 ff df ff    	mov    -0x200068(%eax),%eax
 8051418:	8b 80 98 ff df ff    	mov    -0x200068(%eax),%eax
 805141e:	8b 80 98 ff df ff    	mov    -0x200068(%eax),%eax
 8051424:	8b 80 98 ff df ff    	mov    -0x200068(%eax),%eax
 805142a:	8b 80 98 ff df ff    	mov    -0x200068(%eax),%eax
 8051430:	8b 80 98 ff df ff    	mov    -0x200068(%eax),%eax
 8051436:	8b 80 98 ff df ff    	mov    -0x200068(%eax),%eax
 805143c:	8b 80 98 ff df ff    	mov    -0x200068(%eax),%eax
 8051442:	8b 80 98 ff df ff    	mov    -0x200068(%eax),%eax
 8051448:	8b 80 98 ff df ff    	mov    -0x200068(%eax),%eax
 805144e:	8b 80 98 ff df ff    	mov    -0x200068(%eax),%eax
 8051454:	8b 80 98 ff df ff    	mov    -0x200068(%eax),%eax
 805145a:	8b 80 98 ff df ff    	mov    -0x200068(%eax),%eax
 8051460:	8b 80 98 ff df ff    	mov    -0x200068(%eax),%eax
 8051466:	8b 80 98 ff df ff    	mov    -0x200068(%eax),%eax
 805146c:	8b 80 98 ff df ff    	mov    -0x200068(%eax),%eax
 8051472:	a3 44 57 05 08       	mov    %eax,0x8055744
 8051477:	c7 05 70 e8 5f 08 ee 	movl   $0xcc0002ee,0x85fe870
 805147e:	02 00 cc 
 8051481:	a1 44 57 05 08       	mov    0x8055744,%eax
 8051486:	8b 15 48 e8 3f 08    	mov    0x83fe848,%edx
 805148c:	c7 05 70 e8 5f 08 ef 	movl   $0xcc0002ef,0x85fe870
 8051493:	02 00 cc 
 8051496:	a3 64 e8 3f 08       	mov    %eax,0x83fe864
 805149b:	8b 04 95 60 e8 3f 08 	mov    0x83fe860(,%edx,4),%eax
 80514a2:	8b 00                	mov    (%eax),%eax
 80514a4:	a3 44 57 05 08       	mov    %eax,0x8055744
 80514a9:	c7 05 70 e8 5f 08 f0 	movl   $0xcc0002f0,0x85fe870
 80514b0:	02 00 cc 
 80514b3:	a1 48 57 05 08       	mov    0x8055748,%eax
 80514b8:	8b 15 44 57 05 08    	mov    0x8055744,%edx
 80514be:	c7 05 70 e8 5f 08 f1 	movl   $0xcc0002f1,0x85fe870
 80514c5:	02 00 cc 
 80514c8:	a3 e0 e6 1f 08       	mov    %eax,0x81fe6e0
 80514cd:	89 15 e4 e6 1f 08    	mov    %edx,0x81fe6e4
 80514d3:	c7 05 70 e8 5f 08 f2 	movl   $0xcc0002f2,0x85fe870
 80514da:	02 00 cc 
 80514dd:	b8 00 00 00 00       	mov    $0x0,%eax
 80514e2:	b9 00 00 00 00       	mov    $0x0,%ecx
 80514e7:	c7 05 f0 e6 1f 08 01 	movl   $0x1,0x81fe6f0
 80514ee:	00 00 00 
 80514f1:	c7 05 70 e8 5f 08 f3 	movl   $0xcc0002f3,0x85fe870
 80514f8:	02 00 cc 
 80514fb:	66 a1 e0 e6 1f 08    	mov    0x81fe6e0,%ax
 8051501:	66 8b 0d e4 e6 1f 08 	mov    0x81fe6e4,%cx
 8051508:	66 8b 0c 4d 40 97 16 	mov    0x8169740(,%ecx,2),%cx
 805150f:	08 
 8051510:	8b 14 85 20 96 06 08 	mov    0x8069620(,%eax,4),%edx
 8051517:	8b 14 8a             	mov    (%edx,%ecx,4),%edx
 805151a:	8b 14 95 20 96 06 08 	mov    0x8069620(,%edx,4),%edx
 8051521:	8b 0d f0 e6 1f 08    	mov    0x81fe6f0,%ecx
 8051527:	8b 14 8a             	mov    (%edx,%ecx,4),%edx
 805152a:	66 89 15 e8 e6 1f 08 	mov    %dx,0x81fe6e8
 8051531:	89 15 ee e6 1f 08    	mov    %edx,0x81fe6ee
 8051537:	c7 05 70 e8 5f 08 f4 	movl   $0xcc0002f4,0x85fe870
 805153e:	02 00 cc 
 8051541:	66 a1 e2 e6 1f 08    	mov    0x81fe6e2,%ax
 8051547:	66 8b 0d e6 e6 1f 08 	mov    0x81fe6e6,%cx
 805154e:	66 8b 0c 4d 40 97 16 	mov    0x8169740(,%ecx,2),%cx
 8051555:	08 
 8051556:	8b 14 85 20 96 06 08 	mov    0x8069620(,%eax,4),%edx
 805155d:	8b 14 8a             	mov    (%edx,%ecx,4),%edx
 8051560:	8b 14 95 20 96 06 08 	mov    0x8069620(,%edx,4),%edx
 8051567:	8b 0d f0 e6 1f 08    	mov    0x81fe6f0,%ecx
 805156d:	8b 14 8a             	mov    (%edx,%ecx,4),%edx
 8051570:	66 89 15 ea e6 1f 08 	mov    %dx,0x81fe6ea
 8051577:	89 15 ee e6 1f 08    	mov    %edx,0x81fe6ee
 805157d:	a1 e8 e6 1f 08       	mov    0x81fe6e8,%eax
 8051582:	a3 48 57 05 08       	mov    %eax,0x8055748
 8051587:	c7 05 70 e8 5f 08 f5 	movl   $0xcc0002f5,0x85fe870
 805158e:	02 00 cc 
 8051591:	a1 24 e8 3f 08       	mov    0x83fe824,%eax
 8051596:	8b 80 98 ff df ff    	mov    -0x200068(%eax),%eax
 805159c:	8b 80 98 ff df ff    	mov    -0x200068(%eax),%eax
 80515a2:	8b 80 98 ff df ff    	mov    -0x200068(%eax),%eax
 80515a8:	8b 80 98 ff df ff    	mov    -0x200068(%eax),%eax
 80515ae:	8b 80 98 ff df ff    	mov    -0x200068(%eax),%eax
 80515b4:	8b 80 98 ff df ff    	mov    -0x200068(%eax),%eax
 80515ba:	8b 80 98 ff df ff    	mov    -0x200068(%eax),%eax
 80515c0:	8b 80 98 ff df ff    	mov    -0x200068(%eax),%eax
 80515c6:	8b 80 98 ff df ff    	mov    -0x200068(%eax),%eax
 80515cc:	8b 80 98 ff df ff    	mov    -0x200068(%eax),%eax
 80515d2:	8b 80 98 ff df ff    	mov    -0x200068(%eax),%eax
 80515d8:	8b 80 98 ff df ff    	mov    -0x200068(%eax),%eax
 80515de:	8b 80 98 ff df ff    	mov    -0x200068(%eax),%eax
 80515e4:	8b 80 98 ff df ff    	mov    -0x200068(%eax),%eax
 80515ea:	8b 80 98 ff df ff    	mov    -0x200068(%eax),%eax
 80515f0:	8b 80 98 ff df ff    	mov    -0x200068(%eax),%eax
 80515f6:	8b 80 98 ff df ff    	mov    -0x200068(%eax),%eax
 80515fc:	8b 80 98 ff df ff    	mov    -0x200068(%eax),%eax
 8051602:	8b 80 98 ff df ff    	mov    -0x200068(%eax),%eax
 8051608:	8b 80 98 ff df ff    	mov    -0x200068(%eax),%eax
 805160e:	8b 80 98 ff df ff    	mov    -0x200068(%eax),%eax
 8051614:	8b 80 98 ff df ff    	mov    -0x200068(%eax),%eax
 805161a:	8b 80 98 ff df ff    	mov    -0x200068(%eax),%eax
 8051620:	8b 80 98 ff df ff    	mov    -0x200068(%eax),%eax
 8051626:	8b 80 98 ff df ff    	mov    -0x200068(%eax),%eax
 805162c:	8b 80 98 ff df ff    	mov    -0x200068(%eax),%eax
 8051632:	8b 80 98 ff df ff    	mov    -0x200068(%eax),%eax
 8051638:	8b 80 98 ff df ff    	mov    -0x200068(%eax),%eax
 805163e:	8b 80 98 ff df ff    	mov    -0x200068(%eax),%eax
 8051644:	8b 80 98 ff df ff    	mov    -0x200068(%eax),%eax
 805164a:	8b 80 98 ff df ff    	mov    -0x200068(%eax),%eax
 8051650:	8b 80 98 ff df ff    	mov    -0x200068(%eax),%eax
 8051656:	8b 80 98 ff df ff    	mov    -0x200068(%eax),%eax
 805165c:	8b 80 98 ff df ff    	mov    -0x200068(%eax),%eax
 8051662:	8b 80 98 ff df ff    	mov    -0x200068(%eax),%eax
 8051668:	8b 80 98 ff df ff    	mov    -0x200068(%eax),%eax
 805166e:	8b 80 98 ff df ff    	mov    -0x200068(%eax),%eax
 8051674:	8b 80 98 ff df ff    	mov    -0x200068(%eax),%eax
 805167a:	8b 80 98 ff df ff    	mov    -0x200068(%eax),%eax
 8051680:	a3 44 57 05 08       	mov    %eax,0x8055744
 8051685:	c7 05 70 e8 5f 08 f6 	movl   $0xcc0002f6,0x85fe870
 805168c:	02 00 cc 
 805168f:	a1 44 57 05 08       	mov    0x8055744,%eax
 8051694:	8b 15 48 e8 3f 08    	mov    0x83fe848,%edx
 805169a:	c7 05 70 e8 5f 08 f7 	movl   $0xcc0002f7,0x85fe870
 80516a1:	02 00 cc 
 80516a4:	a3 64 e8 3f 08       	mov    %eax,0x83fe864
 80516a9:	8b 04 95 60 e8 3f 08 	mov    0x83fe860(,%edx,4),%eax
 80516b0:	8b 00                	mov    (%eax),%eax
 80516b2:	a3 44 57 05 08       	mov    %eax,0x8055744
 80516b7:	c7 05 70 e8 5f 08 f8 	movl   $0xcc0002f8,0x85fe870
 80516be:	02 00 cc 
 80516c1:	a1 48 57 05 08       	mov    0x8055748,%eax
 80516c6:	8b 15 44 57 05 08    	mov    0x8055744,%edx
 80516cc:	c7 05 70 e8 5f 08 f9 	movl   $0xcc0002f9,0x85fe870
 80516d3:	02 00 cc 
 80516d6:	a3 e0 e6 1f 08       	mov    %eax,0x81fe6e0
 80516db:	89 15 e4 e6 1f 08    	mov    %edx,0x81fe6e4
 80516e1:	c7 05 70 e8 5f 08 fa 	movl   $0xcc0002fa,0x85fe870
 80516e8:	02 00 cc 
 80516eb:	c7 05 70 e8 5f 08 fb 	movl   $0xcc0002fb,0x85fe870
 80516f2:	02 00 cc 
 80516f5:	b8 00 00 00 00       	mov    $0x0,%eax
 80516fa:	ba 00 00 00 00       	mov    $0x0,%edx
 80516ff:	a0 e0 e6 1f 08       	mov    0x81fe6e0,%al
 8051704:	8a 15 e4 e6 1f 08    	mov    0x81fe6e4,%dl
 805170a:	8b 04 85 70 a1 1a 08 	mov    0x81aa170(,%eax,4),%eax
 8051711:	8a 04 10             	mov    (%eax,%edx,1),%al
 8051714:	a2 e8 e6 1f 08       	mov    %al,0x81fe6e8
 8051719:	c7 05 70 e8 5f 08 fc 	movl   $0xcc0002fc,0x85fe870
 8051720:	02 00 cc 
 8051723:	b8 00 00 00 00       	mov    $0x0,%eax
 8051728:	ba 00 00 00 00       	mov    $0x0,%edx
 805172d:	a0 e1 e6 1f 08       	mov    0x81fe6e1,%al
 8051732:	8a 15 e5 e6 1f 08    	mov    0x81fe6e5,%dl
 8051738:	8b 04 85 70 a1 1a 08 	mov    0x81aa170(,%eax,4),%eax
 805173f:	8a 04 10             	mov    (%eax,%edx,1),%al
 8051742:	a2 e9 e6 1f 08       	mov    %al,0x81fe6e9
 8051747:	c7 05 70 e8 5f 08 fd 	movl   $0xcc0002fd,0x85fe870
 805174e:	02 00 cc 
 8051751:	b8 00 00 00 00       	mov    $0x0,%eax
 8051756:	ba 00 00 00 00       	mov    $0x0,%edx
 805175b:	a0 e2 e6 1f 08       	mov    0x81fe6e2,%al
 8051760:	8a 15 e6 e6 1f 08    	mov    0x81fe6e6,%dl
 8051766:	8b 04 85 70 a1 1a 08 	mov    0x81aa170(,%eax,4),%eax
 805176d:	8a 04 10             	mov    (%eax,%edx,1),%al
 8051770:	a2 ea e6 1f 08       	mov    %al,0x81fe6ea
 8051775:	c7 05 70 e8 5f 08 fe 	movl   $0xcc0002fe,0x85fe870
 805177c:	02 00 cc 
 805177f:	b8 00 00 00 00       	mov    $0x0,%eax
 8051784:	ba 00 00 00 00       	mov    $0x0,%edx
 8051789:	a0 e3 e6 1f 08       	mov    0x81fe6e3,%al
 805178e:	8a 15 e7 e6 1f 08    	mov    0x81fe6e7,%dl
 8051794:	8b 04 85 70 a1 1a 08 	mov    0x81aa170(,%eax,4),%eax
 805179b:	8a 04 10             	mov    (%eax,%edx,1),%al
 805179e:	a2 eb e6 1f 08       	mov    %al,0x81fe6eb
 80517a3:	a1 e8 e6 1f 08       	mov    0x81fe6e8,%eax
 80517a8:	a3 48 57 05 08       	mov    %eax,0x8055748
 80517ad:	c7 05 70 e8 5f 08 ff 	movl   $0xcc0002ff,0x85fe870
 80517b4:	02 00 cc 
 80517b7:	a1 4c 57 05 08       	mov    0x805574c,%eax
 80517bc:	8b 15 48 57 05 08    	mov    0x8055748,%edx
 80517c2:	c7 05 70 e8 5f 08 00 	movl   $0xcc000300,0x85fe870
 80517c9:	03 00 cc 
 80517cc:	a3 e0 e6 1f 08       	mov    %eax,0x81fe6e0
 80517d1:	89 15 e4 e6 1f 08    	mov    %edx,0x81fe6e4
 80517d7:	c7 05 70 e8 5f 08 01 	movl   $0xcc000301,0x85fe870
 80517de:	03 00 cc 
 80517e1:	c7 05 70 e8 5f 08 02 	movl   $0xcc000302,0x85fe870
 80517e8:	03 00 cc 
 80517eb:	b8 00 00 00 00       	mov    $0x0,%eax
 80517f0:	ba 00 00 00 00       	mov    $0x0,%edx
 80517f5:	a0 e0 e6 1f 08       	mov    0x81fe6e0,%al
 80517fa:	8a 15 e4 e6 1f 08    	mov    0x81fe6e4,%dl
 8051800:	8b 04 85 60 9c 19 08 	mov    0x8199c60(,%eax,4),%eax
 8051807:	8a 04 10             	mov    (%eax,%edx,1),%al
 805180a:	a2 e8 e6 1f 08       	mov    %al,0x81fe6e8
 805180f:	c7 05 70 e8 5f 08 03 	movl   $0xcc000303,0x85fe870
 8051816:	03 00 cc 
 8051819:	b8 00 00 00 00       	mov    $0x0,%eax
 805181e:	ba 00 00 00 00       	mov    $0x0,%edx
 8051823:	a0 e1 e6 1f 08       	mov    0x81fe6e1,%al
 8051828:	8a 15 e5 e6 1f 08    	mov    0x81fe6e5,%dl
 805182e:	8b 04 85 60 9c 19 08 	mov    0x8199c60(,%eax,4),%eax
 8051835:	8a 04 10             	mov    (%eax,%edx,1),%al
 8051838:	a2 e9 e6 1f 08       	mov    %al,0x81fe6e9
 805183d:	c7 05 70 e8 5f 08 04 	movl   $0xcc000304,0x85fe870
 8051844:	03 00 cc 
 8051847:	b8 00 00 00 00       	mov    $0x0,%eax
 805184c:	ba 00 00 00 00       	mov    $0x0,%edx
 8051851:	a0 e2 e6 1f 08       	mov    0x81fe6e2,%al
 8051856:	8a 15 e6 e6 1f 08    	mov    0x81fe6e6,%dl
 805185c:	8b 04 85 60 9c 19 08 	mov    0x8199c60(,%eax,4),%eax
 8051863:	8a 04 10             	mov    (%eax,%edx,1),%al
 8051866:	a2 ea e6 1f 08       	mov    %al,0x81fe6ea
 805186b:	c7 05 70 e8 5f 08 05 	movl   $0xcc000305,0x85fe870
 8051872:	03 00 cc 
 8051875:	b8 00 00 00 00       	mov    $0x0,%eax
 805187a:	ba 00 00 00 00       	mov    $0x0,%edx
 805187f:	a0 e3 e6 1f 08       	mov    0x81fe6e3,%al
 8051884:	8a 15 e7 e6 1f 08    	mov    0x81fe6e7,%dl
 805188a:	8b 04 85 60 9c 19 08 	mov    0x8199c60(,%eax,4),%eax
 8051891:	8a 04 10             	mov    (%eax,%edx,1),%al
 8051894:	a2 eb e6 1f 08       	mov    %al,0x81fe6eb
 8051899:	a1 e8 e6 1f 08       	mov    0x81fe6e8,%eax
 805189e:	a3 4c 57 05 08       	mov    %eax,0x805574c
 80518a3:	c7 05 70 e8 5f 08 06 	movl   $0xcc000306,0x85fe870
 80518aa:	03 00 cc 
 80518ad:	a1 24 e8 3f 08       	mov    0x83fe824,%eax
 80518b2:	ba 97 ff ff ff       	mov    $0xffffff97,%edx
 80518b7:	c7 05 70 e8 5f 08 07 	movl   $0xcc000307,0x85fe870
 80518be:	03 00 cc 
 80518c1:	a3 e0 e6 1f 08       	mov    %eax,0x81fe6e0
 80518c6:	89 15 e4 e6 1f 08    	mov    %edx,0x81fe6e4
 80518cc:	c7 05 70 e8 5f 08 08 	movl   $0xcc000308,0x85fe870
 80518d3:	03 00 cc 
 80518d6:	b8 00 00 00 00       	mov    $0x0,%eax
 80518db:	b9 00 00 00 00       	mov    $0x0,%ecx
 80518e0:	c7 05 f0 e6 1f 08 00 	movl   $0x0,0x81fe6f0
 80518e7:	00 00 00 
 80518ea:	c7 05 70 e8 5f 08 09 	movl   $0xcc000309,0x85fe870
 80518f1:	03 00 cc 
 80518f4:	66 a1 e0 e6 1f 08    	mov    0x81fe6e0,%ax
 80518fa:	66 8b 0d e4 e6 1f 08 	mov    0x81fe6e4,%cx
 8051901:	8b 14 85 20 96 06 08 	mov    0x8069620(,%eax,4),%edx
 8051908:	8b 14 8a             	mov    (%edx,%ecx,4),%edx
 805190b:	66 8b 0d f2 e6 1f 08 	mov    0x81fe6f2,%cx
 8051912:	8b 14 95 20 96 06 08 	mov    0x8069620(,%edx,4),%edx
 8051919:	8b 14 8a             	mov    (%edx,%ecx,4),%edx
 805191c:	66 89 15 e8 e6 1f 08 	mov    %dx,0x81fe6e8
 8051923:	89 15 f0 e6 1f 08    	mov    %edx,0x81fe6f0
 8051929:	c7 05 70 e8 5f 08 0a 	movl   $0xcc00030a,0x85fe870
 8051930:	03 00 cc 
 8051933:	66 a1 e2 e6 1f 08    	mov    0x81fe6e2,%ax
 8051939:	66 8b 0d e6 e6 1f 08 	mov    0x81fe6e6,%cx
 8051940:	8b 14 85 20 96 06 08 	mov    0x8069620(,%eax,4),%edx
 8051947:	8b 14 8a             	mov    (%edx,%ecx,4),%edx
 805194a:	66 8b 0d f2 e6 1f 08 	mov    0x81fe6f2,%cx
 8051951:	8b 14 95 20 96 06 08 	mov    0x8069620(,%edx,4),%edx
 8051958:	8b 14 8a             	mov    (%edx,%ecx,4),%edx
 805195b:	66 89 15 ea e6 1f 08 	mov    %dx,0x81fe6ea
 8051962:	89 15 f0 e6 1f 08    	mov    %edx,0x81fe6f0
 8051968:	a1 e8 e6 1f 08       	mov    0x81fe6e8,%eax
 805196d:	a3 48 57 05 08       	mov    %eax,0x8055748
 8051972:	c7 05 70 e8 5f 08 0b 	movl   $0xcc00030b,0x85fe870
 8051979:	03 00 cc 
 805197c:	a1 48 57 05 08       	mov    0x8055748,%eax
 8051981:	8b 15 48 e8 3f 08    	mov    0x83fe848,%edx
 8051987:	c7 05 70 e8 5f 08 0c 	movl   $0xcc00030c,0x85fe870
 805198e:	03 00 cc 
 8051991:	a3 64 e8 3f 08       	mov    %eax,0x83fe864
 8051996:	8b 04 95 60 e8 3f 08 	mov    0x83fe860(,%edx,4),%eax
 805199d:	ba 00 00 00 00       	mov    $0x0,%edx
 80519a2:	8a 10                	mov    (%eax),%dl
 80519a4:	89 15 40 57 05 08    	mov    %edx,0x8055740
 80519aa:	c7 05 70 e8 5f 08 0d 	movl   $0xcc00030d,0x85fe870
 80519b1:	03 00 cc 
 80519b4:	ba 00 00 00 00       	mov    $0x0,%edx
 80519b9:	8a 15 40 57 05 08    	mov    0x8055740,%dl
 80519bf:	8b 14 95 60 e2 1f 08 	mov    0x81fe260(,%edx,4),%edx
 80519c6:	89 15 48 57 05 08    	mov    %edx,0x8055748
 80519cc:	c7 05 44 57 05 08 0a 	movl   $0xa,0x8055744
 80519d3:	00 00 00 
 80519d6:	c7 05 70 e8 5f 08 0e 	movl   $0xcc00030e,0x85fe870
 80519dd:	03 00 cc 
 80519e0:	a1 48 57 05 08       	mov    0x8055748,%eax
 80519e5:	8b 15 44 57 05 08    	mov    0x8055744,%edx
 80519eb:	c7 05 70 e8 5f 08 0f 	movl   $0xcc00030f,0x85fe870
 80519f2:	03 00 cc 
 80519f5:	a3 e0 e6 1f 08       	mov    %eax,0x81fe6e0
 80519fa:	89 15 e4 e6 1f 08    	mov    %edx,0x81fe6e4
 8051a00:	c7 05 70 e8 5f 08 10 	movl   $0xcc000310,0x85fe870
 8051a07:	03 00 cc 
 8051a0a:	b8 00 00 00 00       	mov    $0x0,%eax
 8051a0f:	b9 00 00 00 00       	mov    $0x0,%ecx
 8051a14:	c7 05 f0 e6 1f 08 00 	movl   $0x0,0x81fe6f0
 8051a1b:	00 00 00 
 8051a1e:	c7 05 70 e8 5f 08 11 	movl   $0xcc000311,0x85fe870
 8051a25:	03 00 cc 
 8051a28:	66 a1 e0 e6 1f 08    	mov    0x81fe6e0,%ax
 8051a2e:	66 8b 0d e4 e6 1f 08 	mov    0x81fe6e4,%cx
 8051a35:	8b 14 85 20 96 06 08 	mov    0x8069620(,%eax,4),%edx
 8051a3c:	8b 14 8a             	mov    (%edx,%ecx,4),%edx
 8051a3f:	66 8b 0d f2 e6 1f 08 	mov    0x81fe6f2,%cx
 8051a46:	8b 14 95 20 96 06 08 	mov    0x8069620(,%edx,4),%edx
 8051a4d:	8b 14 8a             	mov    (%edx,%ecx,4),%edx
 8051a50:	66 89 15 e8 e6 1f 08 	mov    %dx,0x81fe6e8
 8051a57:	89 15 f0 e6 1f 08    	mov    %edx,0x81fe6f0
 8051a5d:	c7 05 70 e8 5f 08 12 	movl   $0xcc000312,0x85fe870
 8051a64:	03 00 cc 
 8051a67:	66 a1 e2 e6 1f 08    	mov    0x81fe6e2,%ax
 8051a6d:	66 8b 0d e6 e6 1f 08 	mov    0x81fe6e6,%cx
 8051a74:	8b 14 85 20 96 06 08 	mov    0x8069620(,%eax,4),%edx
 8051a7b:	8b 14 8a             	mov    (%edx,%ecx,4),%edx
 8051a7e:	66 8b 0d f2 e6 1f 08 	mov    0x81fe6f2,%cx
 8051a85:	8b 14 95 20 96 06 08 	mov    0x8069620(,%edx,4),%edx
 8051a8c:	8b 14 8a             	mov    (%edx,%ecx,4),%edx
 8051a8f:	66 89 15 ea e6 1f 08 	mov    %dx,0x81fe6ea
 8051a96:	89 15 f0 e6 1f 08    	mov    %edx,0x81fe6f0
 8051a9c:	a1 e8 e6 1f 08       	mov    0x81fe6e8,%eax
 8051aa1:	a3 48 57 05 08       	mov    %eax,0x8055748
 8051aa6:	c7 05 44 57 05 08 4f 	movl   $0x4f,0x8055744
 8051aad:	00 00 00 
 8051ab0:	c7 05 70 e8 5f 08 13 	movl   $0xcc000313,0x85fe870
 8051ab7:	03 00 cc 
 8051aba:	a1 48 57 05 08       	mov    0x8055748,%eax
 8051abf:	8b 15 44 57 05 08    	mov    0x8055744,%edx
 8051ac5:	c7 05 70 e8 5f 08 14 	movl   $0xcc000314,0x85fe870
 8051acc:	03 00 cc 
 8051acf:	a3 e0 e6 1f 08       	mov    %eax,0x81fe6e0
 8051ad4:	89 15 e4 e6 1f 08    	mov    %edx,0x81fe6e4
 8051ada:	c7 05 70 e8 5f 08 15 	movl   $0xcc000315,0x85fe870
 8051ae1:	03 00 cc 
 8051ae4:	b8 00 00 00 00       	mov    $0x0,%eax
 8051ae9:	b9 00 00 00 00       	mov    $0x0,%ecx
 8051aee:	c7 05 f0 e6 1f 08 01 	movl   $0x1,0x81fe6f0
 8051af5:	00 00 00 
 8051af8:	c7 05 70 e8 5f 08 16 	movl   $0xcc000316,0x85fe870
 8051aff:	03 00 cc 
 8051b02:	66 a1 e0 e6 1f 08    	mov    0x81fe6e0,%ax
 8051b08:	66 8b 0d e4 e6 1f 08 	mov    0x81fe6e4,%cx
 8051b0f:	66 8b 0c 4d 40 97 16 	mov    0x8169740(,%ecx,2),%cx
 8051b16:	08 
 8051b17:	8b 14 85 20 96 06 08 	mov    0x8069620(,%eax,4),%edx
 8051b1e:	8b 14 8a             	mov    (%edx,%ecx,4),%edx
 8051b21:	8b 14 95 20 96 06 08 	mov    0x8069620(,%edx,4),%edx
 8051b28:	8b 0d f0 e6 1f 08    	mov    0x81fe6f0,%ecx
 8051b2e:	8b 14 8a             	mov    (%edx,%ecx,4),%edx
 8051b31:	66 89 15 e8 e6 1f 08 	mov    %dx,0x81fe6e8
 8051b38:	89 15 ee e6 1f 08    	mov    %edx,0x81fe6ee
 8051b3e:	c7 05 70 e8 5f 08 17 	movl   $0xcc000317,0x85fe870
 8051b45:	03 00 cc 
 8051b48:	66 a1 e2 e6 1f 08    	mov    0x81fe6e2,%ax
 8051b4e:	66 8b 0d e6 e6 1f 08 	mov    0x81fe6e6,%cx
 8051b55:	66 8b 0c 4d 40 97 16 	mov    0x8169740(,%ecx,2),%cx
 8051b5c:	08 
 8051b5d:	8b 14 85 20 96 06 08 	mov    0x8069620(,%eax,4),%edx
 8051b64:	8b 14 8a             	mov    (%edx,%ecx,4),%edx
 8051b67:	8b 14 95 20 96 06 08 	mov    0x8069620(,%edx,4),%edx
 8051b6e:	8b 0d f0 e6 1f 08    	mov    0x81fe6f0,%ecx
 8051b74:	8b 14 8a             	mov    (%edx,%ecx,4),%edx
 8051b77:	66 89 15 ea e6 1f 08 	mov    %dx,0x81fe6ea
 8051b7e:	89 15 ee e6 1f 08    	mov    %edx,0x81fe6ee
 8051b84:	a1 e8 e6 1f 08       	mov    0x81fe6e8,%eax
 8051b89:	a3 48 57 05 08       	mov    %eax,0x8055748
 8051b8e:	c7 05 70 e8 5f 08 18 	movl   $0xcc000318,0x85fe870
 8051b95:	03 00 cc 
 8051b98:	a1 4c 57 05 08       	mov    0x805574c,%eax
 8051b9d:	8b 15 48 57 05 08    	mov    0x8055748,%edx
 8051ba3:	c7 05 70 e8 5f 08 19 	movl   $0xcc000319,0x85fe870
 8051baa:	03 00 cc 
 8051bad:	a3 e0 e6 1f 08       	mov    %eax,0x81fe6e0
 8051bb2:	89 15 e4 e6 1f 08    	mov    %edx,0x81fe6e4
 8051bb8:	c7 05 70 e8 5f 08 1a 	movl   $0xcc00031a,0x85fe870
 8051bbf:	03 00 cc 
 8051bc2:	c7 05 70 e8 5f 08 1b 	movl   $0xcc00031b,0x85fe870
 8051bc9:	03 00 cc 
 8051bcc:	b8 00 00 00 00       	mov    $0x0,%eax
 8051bd1:	ba 00 00 00 00       	mov    $0x0,%edx
 8051bd6:	a0 e0 e6 1f 08       	mov    0x81fe6e0,%al
 8051bdb:	8a 15 e4 e6 1f 08    	mov    0x81fe6e4,%dl
 8051be1:	8b 04 85 60 9c 19 08 	mov    0x8199c60(,%eax,4),%eax
 8051be8:	8a 04 10             	mov    (%eax,%edx,1),%al
 8051beb:	a2 e8 e6 1f 08       	mov    %al,0x81fe6e8
 8051bf0:	c7 05 70 e8 5f 08 1c 	movl   $0xcc00031c,0x85fe870
 8051bf7:	03 00 cc 
 8051bfa:	b8 00 00 00 00       	mov    $0x0,%eax
 8051bff:	ba 00 00 00 00       	mov    $0x0,%edx
 8051c04:	a0 e1 e6 1f 08       	mov    0x81fe6e1,%al
 8051c09:	8a 15 e5 e6 1f 08    	mov    0x81fe6e5,%dl
 8051c0f:	8b 04 85 60 9c 19 08 	mov    0x8199c60(,%eax,4),%eax
 8051c16:	8a 04 10             	mov    (%eax,%edx,1),%al
 8051c19:	a2 e9 e6 1f 08       	mov    %al,0x81fe6e9
 8051c1e:	c7 05 70 e8 5f 08 1d 	movl   $0xcc00031d,0x85fe870
 8051c25:	03 00 cc 
 8051c28:	b8 00 00 00 00       	mov    $0x0,%eax
 8051c2d:	ba 00 00 00 00       	mov    $0x0,%edx
 8051c32:	a0 e2 e6 1f 08       	mov    0x81fe6e2,%al
 8051c37:	8a 15 e6 e6 1f 08    	mov    0x81fe6e6,%dl
 8051c3d:	8b 04 85 60 9c 19 08 	mov    0x8199c60(,%eax,4),%eax
 8051c44:	8a 04 10             	mov    (%eax,%edx,1),%al
 8051c47:	a2 ea e6 1f 08       	mov    %al,0x81fe6ea
 8051c4c:	c7 05 70 e8 5f 08 1e 	movl   $0xcc00031e,0x85fe870
 8051c53:	03 00 cc 
 8051c56:	b8 00 00 00 00       	mov    $0x0,%eax
 8051c5b:	ba 00 00 00 00       	mov    $0x0,%edx
 8051c60:	a0 e3 e6 1f 08       	mov    0x81fe6e3,%al
 8051c65:	8a 15 e7 e6 1f 08    	mov    0x81fe6e7,%dl
 8051c6b:	8b 04 85 60 9c 19 08 	mov    0x8199c60(,%eax,4),%eax
 8051c72:	8a 04 10             	mov    (%eax,%edx,1),%al
 8051c75:	a2 eb e6 1f 08       	mov    %al,0x81fe6eb
 8051c7a:	a1 e8 e6 1f 08       	mov    0x81fe6e8,%eax
 8051c7f:	a3 4c 57 05 08       	mov    %eax,0x805574c
 8051c84:	c7 05 70 e8 5f 08 1f 	movl   $0xcc00031f,0x85fe870
 8051c8b:	03 00 cc 
 8051c8e:	a1 24 e8 3f 08       	mov    0x83fe824,%eax
 8051c93:	8b 80 98 ff df ff    	mov    -0x200068(%eax),%eax
 8051c99:	8b 80 98 ff df ff    	mov    -0x200068(%eax),%eax
 8051c9f:	8b 80 98 ff df ff    	mov    -0x200068(%eax),%eax
 8051ca5:	8b 80 98 ff df ff    	mov    -0x200068(%eax),%eax
 8051cab:	8b 80 98 ff df ff    	mov    -0x200068(%eax),%eax
 8051cb1:	8b 80 98 ff df ff    	mov    -0x200068(%eax),%eax
 8051cb7:	8b 80 98 ff df ff    	mov    -0x200068(%eax),%eax
 8051cbd:	8b 80 98 ff df ff    	mov    -0x200068(%eax),%eax
 8051cc3:	8b 80 98 ff df ff    	mov    -0x200068(%eax),%eax
 8051cc9:	8b 80 98 ff df ff    	mov    -0x200068(%eax),%eax
 8051ccf:	8b 80 98 ff df ff    	mov    -0x200068(%eax),%eax
 8051cd5:	8b 80 98 ff df ff    	mov    -0x200068(%eax),%eax
 8051cdb:	8b 80 98 ff df ff    	mov    -0x200068(%eax),%eax
 8051ce1:	8b 80 98 ff df ff    	mov    -0x200068(%eax),%eax
 8051ce7:	8b 80 98 ff df ff    	mov    -0x200068(%eax),%eax
 8051ced:	8b 80 98 ff df ff    	mov    -0x200068(%eax),%eax
 8051cf3:	8b 80 98 ff df ff    	mov    -0x200068(%eax),%eax
 8051cf9:	8b 80 98 ff df ff    	mov    -0x200068(%eax),%eax
 8051cff:	8b 80 98 ff df ff    	mov    -0x200068(%eax),%eax
 8051d05:	8b 80 98 ff df ff    	mov    -0x200068(%eax),%eax
 8051d0b:	8b 80 98 ff df ff    	mov    -0x200068(%eax),%eax
 8051d11:	8b 80 98 ff df ff    	mov    -0x200068(%eax),%eax
 8051d17:	8b 80 98 ff df ff    	mov    -0x200068(%eax),%eax
 8051d1d:	8b 80 98 ff df ff    	mov    -0x200068(%eax),%eax
 8051d23:	8b 80 98 ff df ff    	mov    -0x200068(%eax),%eax
 8051d29:	8b 80 98 ff df ff    	mov    -0x200068(%eax),%eax
 8051d2f:	a3 48 57 05 08       	mov    %eax,0x8055748
 8051d34:	c7 05 70 e8 5f 08 20 	movl   $0xcc000320,0x85fe870
 8051d3b:	03 00 cc 
 8051d3e:	a1 48 57 05 08       	mov    0x8055748,%eax
 8051d43:	8b 15 48 e8 3f 08    	mov    0x83fe848,%edx
 8051d49:	c7 05 70 e8 5f 08 21 	movl   $0xcc000321,0x85fe870
 8051d50:	03 00 cc 
 8051d53:	a3 64 e8 3f 08       	mov    %eax,0x83fe864
 8051d58:	8b 04 95 60 e8 3f 08 	mov    0x83fe860(,%edx,4),%eax
 8051d5f:	ba 00 00 00 00       	mov    $0x0,%edx
 8051d64:	8a 10                	mov    (%eax),%dl
 8051d66:	89 15 40 57 05 08    	mov    %edx,0x8055740
 8051d6c:	c7 05 70 e8 5f 08 22 	movl   $0xcc000322,0x85fe870
 8051d73:	03 00 cc 
 8051d76:	ba 00 00 00 00       	mov    $0x0,%edx
 8051d7b:	8a 15 40 57 05 08    	mov    0x8055740,%dl
 8051d81:	8b 14 95 60 e2 1f 08 	mov    0x81fe260(,%edx,4),%edx
 8051d88:	89 15 48 57 05 08    	mov    %edx,0x8055748
 8051d8e:	c7 05 44 57 05 08 05 	movl   $0x5,0x8055744
 8051d95:	00 00 00 
 8051d98:	c7 05 70 e8 5f 08 23 	movl   $0xcc000323,0x85fe870
 8051d9f:	03 00 cc 
 8051da2:	a1 48 57 05 08       	mov    0x8055748,%eax
 8051da7:	8b 15 44 57 05 08    	mov    0x8055744,%edx
 8051dad:	c7 05 70 e8 5f 08 24 	movl   $0xcc000324,0x85fe870
 8051db4:	03 00 cc 
 8051db7:	a3 e0 e6 1f 08       	mov    %eax,0x81fe6e0
 8051dbc:	89 15 e4 e6 1f 08    	mov    %edx,0x81fe6e4
 8051dc2:	c7 05 70 e8 5f 08 25 	movl   $0xcc000325,0x85fe870
 8051dc9:	03 00 cc 
 8051dcc:	b8 00 00 00 00       	mov    $0x0,%eax
 8051dd1:	b9 00 00 00 00       	mov    $0x0,%ecx
 8051dd6:	c7 05 f0 e6 1f 08 01 	movl   $0x1,0x81fe6f0
 8051ddd:	00 00 00 
 8051de0:	c7 05 70 e8 5f 08 26 	movl   $0xcc000326,0x85fe870
 8051de7:	03 00 cc 
 8051dea:	66 a1 e0 e6 1f 08    	mov    0x81fe6e0,%ax
 8051df0:	66 8b 0d e4 e6 1f 08 	mov    0x81fe6e4,%cx
 8051df7:	66 8b 0c 4d 40 97 16 	mov    0x8169740(,%ecx,2),%cx
 8051dfe:	08 
 8051dff:	8b 14 85 20 96 06 08 	mov    0x8069620(,%eax,4),%edx
 8051e06:	8b 14 8a             	mov    (%edx,%ecx,4),%edx
 8051e09:	8b 14 95 20 96 06 08 	mov    0x8069620(,%edx,4),%edx
 8051e10:	8b 0d f0 e6 1f 08    	mov    0x81fe6f0,%ecx
 8051e16:	8b 14 8a             	mov    (%edx,%ecx,4),%edx
 8051e19:	66 89 15 e8 e6 1f 08 	mov    %dx,0x81fe6e8
 8051e20:	89 15 ee e6 1f 08    	mov    %edx,0x81fe6ee
 8051e26:	c7 05 70 e8 5f 08 27 	movl   $0xcc000327,0x85fe870
 8051e2d:	03 00 cc 
 8051e30:	66 a1 e2 e6 1f 08    	mov    0x81fe6e2,%ax
 8051e36:	66 8b 0d e6 e6 1f 08 	mov    0x81fe6e6,%cx
 8051e3d:	66 8b 0c 4d 40 97 16 	mov    0x8169740(,%ecx,2),%cx
 8051e44:	08 
 8051e45:	8b 14 85 20 96 06 08 	mov    0x8069620(,%eax,4),%edx
 8051e4c:	8b 14 8a             	mov    (%edx,%ecx,4),%edx
 8051e4f:	8b 14 95 20 96 06 08 	mov    0x8069620(,%edx,4),%edx
 8051e56:	8b 0d f0 e6 1f 08    	mov    0x81fe6f0,%ecx
 8051e5c:	8b 14 8a             	mov    (%edx,%ecx,4),%edx
 8051e5f:	66 89 15 ea e6 1f 08 	mov    %dx,0x81fe6ea
 8051e66:	89 15 ee e6 1f 08    	mov    %edx,0x81fe6ee
 8051e6c:	a1 e8 e6 1f 08       	mov    0x81fe6e8,%eax
 8051e71:	a3 48 57 05 08       	mov    %eax,0x8055748
 8051e76:	c7 05 44 57 05 08 6f 	movl   $0x6f,0x8055744
 8051e7d:	00 00 00 
 8051e80:	c7 05 70 e8 5f 08 28 	movl   $0xcc000328,0x85fe870
 8051e87:	03 00 cc 
 8051e8a:	a1 48 57 05 08       	mov    0x8055748,%eax
 8051e8f:	8b 15 44 57 05 08    	mov    0x8055744,%edx
 8051e95:	c7 05 70 e8 5f 08 29 	movl   $0xcc000329,0x85fe870
 8051e9c:	03 00 cc 
 8051e9f:	a3 e0 e6 1f 08       	mov    %eax,0x81fe6e0
 8051ea4:	89 15 e4 e6 1f 08    	mov    %edx,0x81fe6e4
 8051eaa:	c7 05 70 e8 5f 08 2a 	movl   $0xcc00032a,0x85fe870
 8051eb1:	03 00 cc 
 8051eb4:	b8 00 00 00 00       	mov    $0x0,%eax
 8051eb9:	b9 00 00 00 00       	mov    $0x0,%ecx
 8051ebe:	c7 05 f0 e6 1f 08 01 	movl   $0x1,0x81fe6f0
 8051ec5:	00 00 00 
 8051ec8:	c7 05 70 e8 5f 08 2b 	movl   $0xcc00032b,0x85fe870
 8051ecf:	03 00 cc 
 8051ed2:	66 a1 e0 e6 1f 08    	mov    0x81fe6e0,%ax
 8051ed8:	66 8b 0d e4 e6 1f 08 	mov    0x81fe6e4,%cx
 8051edf:	66 8b 0c 4d 40 97 16 	mov    0x8169740(,%ecx,2),%cx
 8051ee6:	08 
 8051ee7:	8b 14 85 20 96 06 08 	mov    0x8069620(,%eax,4),%edx
 8051eee:	8b 14 8a             	mov    (%edx,%ecx,4),%edx
 8051ef1:	8b 14 95 20 96 06 08 	mov    0x8069620(,%edx,4),%edx
 8051ef8:	8b 0d f0 e6 1f 08    	mov    0x81fe6f0,%ecx
 8051efe:	8b 14 8a             	mov    (%edx,%ecx,4),%edx
 8051f01:	66 89 15 e8 e6 1f 08 	mov    %dx,0x81fe6e8
 8051f08:	89 15 ee e6 1f 08    	mov    %edx,0x81fe6ee
 8051f0e:	c7 05 70 e8 5f 08 2c 	movl   $0xcc00032c,0x85fe870
 8051f15:	03 00 cc 
 8051f18:	66 a1 e2 e6 1f 08    	mov    0x81fe6e2,%ax
 8051f1e:	66 8b 0d e6 e6 1f 08 	mov    0x81fe6e6,%cx
 8051f25:	66 8b 0c 4d 40 97 16 	mov    0x8169740(,%ecx,2),%cx
 8051f2c:	08 
 8051f2d:	8b 14 85 20 96 06 08 	mov    0x8069620(,%eax,4),%edx
 8051f34:	8b 14 8a             	mov    (%edx,%ecx,4),%edx
 8051f37:	8b 14 95 20 96 06 08 	mov    0x8069620(,%edx,4),%edx
 8051f3e:	8b 0d f0 e6 1f 08    	mov    0x81fe6f0,%ecx
 8051f44:	8b 14 8a             	mov    (%edx,%ecx,4),%edx
 8051f47:	66 89 15 ea e6 1f 08 	mov    %dx,0x81fe6ea
 8051f4e:	89 15 ee e6 1f 08    	mov    %edx,0x81fe6ee
 8051f54:	a1 e8 e6 1f 08       	mov    0x81fe6e8,%eax
 8051f59:	a3 48 57 05 08       	mov    %eax,0x8055748
 8051f5e:	c7 05 70 e8 5f 08 2d 	movl   $0xcc00032d,0x85fe870
 8051f65:	03 00 cc 
 8051f68:	a1 4c 57 05 08       	mov    0x805574c,%eax
 8051f6d:	8b 15 48 57 05 08    	mov    0x8055748,%edx
 8051f73:	c7 05 70 e8 5f 08 2e 	movl   $0xcc00032e,0x85fe870
 8051f7a:	03 00 cc 
 8051f7d:	a3 e0 e6 1f 08       	mov    %eax,0x81fe6e0
 8051f82:	89 15 e4 e6 1f 08    	mov    %edx,0x81fe6e4
 8051f88:	c7 05 70 e8 5f 08 2f 	movl   $0xcc00032f,0x85fe870
 8051f8f:	03 00 cc 
 8051f92:	c7 05 70 e8 5f 08 30 	movl   $0xcc000330,0x85fe870
 8051f99:	03 00 cc 
 8051f9c:	b8 00 00 00 00       	mov    $0x0,%eax
 8051fa1:	ba 00 00 00 00       	mov    $0x0,%edx
 8051fa6:	a0 e0 e6 1f 08       	mov    0x81fe6e0,%al
 8051fab:	8a 15 e4 e6 1f 08    	mov    0x81fe6e4,%dl
 8051fb1:	8b 04 85 60 9c 19 08 	mov    0x8199c60(,%eax,4),%eax
 8051fb8:	8a 04 10             	mov    (%eax,%edx,1),%al
 8051fbb:	a2 e8 e6 1f 08       	mov    %al,0x81fe6e8
 8051fc0:	c7 05 70 e8 5f 08 31 	movl   $0xcc000331,0x85fe870
 8051fc7:	03 00 cc 
 8051fca:	b8 00 00 00 00       	mov    $0x0,%eax
 8051fcf:	ba 00 00 00 00       	mov    $0x0,%edx
 8051fd4:	a0 e1 e6 1f 08       	mov    0x81fe6e1,%al
 8051fd9:	8a 15 e5 e6 1f 08    	mov    0x81fe6e5,%dl
 8051fdf:	8b 04 85 60 9c 19 08 	mov    0x8199c60(,%eax,4),%eax
 8051fe6:	8a 04 10             	mov    (%eax,%edx,1),%al
 8051fe9:	a2 e9 e6 1f 08       	mov    %al,0x81fe6e9
 8051fee:	c7 05 70 e8 5f 08 32 	movl   $0xcc000332,0x85fe870
 8051ff5:	03 00 cc 
 8051ff8:	b8 00 00 00 00       	mov    $0x0,%eax
 8051ffd:	ba 00 00 00 00       	mov    $0x0,%edx
 8052002:	a0 e2 e6 1f 08       	mov    0x81fe6e2,%al
 8052007:	8a 15 e6 e6 1f 08    	mov    0x81fe6e6,%dl
 805200d:	8b 04 85 60 9c 19 08 	mov    0x8199c60(,%eax,4),%eax
 8052014:	8a 04 10             	mov    (%eax,%edx,1),%al
 8052017:	a2 ea e6 1f 08       	mov    %al,0x81fe6ea
 805201c:	c7 05 70 e8 5f 08 33 	movl   $0xcc000333,0x85fe870
 8052023:	03 00 cc 
 8052026:	b8 00 00 00 00       	mov    $0x0,%eax
 805202b:	ba 00 00 00 00       	mov    $0x0,%edx
 8052030:	a0 e3 e6 1f 08       	mov    0x81fe6e3,%al
 8052035:	8a 15 e7 e6 1f 08    	mov    0x81fe6e7,%dl
 805203b:	8b 04 85 60 9c 19 08 	mov    0x8199c60(,%eax,4),%eax
 8052042:	8a 04 10             	mov    (%eax,%edx,1),%al
 8052045:	a2 eb e6 1f 08       	mov    %al,0x81fe6eb
 805204a:	a1 e8 e6 1f 08       	mov    0x81fe6e8,%eax
 805204f:	a3 4c 57 05 08       	mov    %eax,0x805574c
 8052054:	c7 05 70 e8 5f 08 34 	movl   $0xcc000334,0x85fe870
 805205b:	03 00 cc 
 805205e:	a1 24 e8 3f 08       	mov    0x83fe824,%eax
 8052063:	ba 99 ff ff ff       	mov    $0xffffff99,%edx
 8052068:	c7 05 70 e8 5f 08 35 	movl   $0xcc000335,0x85fe870
 805206f:	03 00 cc 
 8052072:	a3 e0 e6 1f 08       	mov    %eax,0x81fe6e0
 8052077:	89 15 e4 e6 1f 08    	mov    %edx,0x81fe6e4
 805207d:	c7 05 70 e8 5f 08 36 	movl   $0xcc000336,0x85fe870
 8052084:	03 00 cc 
 8052087:	b8 00 00 00 00       	mov    $0x0,%eax
 805208c:	b9 00 00 00 00       	mov    $0x0,%ecx
 8052091:	c7 05 f0 e6 1f 08 00 	movl   $0x0,0x81fe6f0
 8052098:	00 00 00 
 805209b:	c7 05 70 e8 5f 08 37 	movl   $0xcc000337,0x85fe870
 80520a2:	03 00 cc 
 80520a5:	66 a1 e0 e6 1f 08    	mov    0x81fe6e0,%ax
 80520ab:	66 8b 0d e4 e6 1f 08 	mov    0x81fe6e4,%cx
 80520b2:	8b 14 85 20 96 06 08 	mov    0x8069620(,%eax,4),%edx
 80520b9:	8b 14 8a             	mov    (%edx,%ecx,4),%edx
 80520bc:	66 8b 0d f2 e6 1f 08 	mov    0x81fe6f2,%cx
 80520c3:	8b 14 95 20 96 06 08 	mov    0x8069620(,%edx,4),%edx
 80520ca:	8b 14 8a             	mov    (%edx,%ecx,4),%edx
 80520cd:	66 89 15 e8 e6 1f 08 	mov    %dx,0x81fe6e8
 80520d4:	89 15 f0 e6 1f 08    	mov    %edx,0x81fe6f0
 80520da:	c7 05 70 e8 5f 08 38 	movl   $0xcc000338,0x85fe870
 80520e1:	03 00 cc 
 80520e4:	66 a1 e2 e6 1f 08    	mov    0x81fe6e2,%ax
 80520ea:	66 8b 0d e6 e6 1f 08 	mov    0x81fe6e6,%cx
 80520f1:	8b 14 85 20 96 06 08 	mov    0x8069620(,%eax,4),%edx
 80520f8:	8b 14 8a             	mov    (%edx,%ecx,4),%edx
 80520fb:	66 8b 0d f2 e6 1f 08 	mov    0x81fe6f2,%cx
 8052102:	8b 14 95 20 96 06 08 	mov    0x8069620(,%edx,4),%edx
 8052109:	8b 14 8a             	mov    (%edx,%ecx,4),%edx
 805210c:	66 89 15 ea e6 1f 08 	mov    %dx,0x81fe6ea
 8052113:	89 15 f0 e6 1f 08    	mov    %edx,0x81fe6f0
 8052119:	a1 e8 e6 1f 08       	mov    0x81fe6e8,%eax
 805211e:	a3 48 57 05 08       	mov    %eax,0x8055748
 8052123:	c7 05 70 e8 5f 08 39 	movl   $0xcc000339,0x85fe870
 805212a:	03 00 cc 
 805212d:	a1 48 57 05 08       	mov    0x8055748,%eax
 8052132:	8b 15 48 e8 3f 08    	mov    0x83fe848,%edx
 8052138:	c7 05 70 e8 5f 08 3a 	movl   $0xcc00033a,0x85fe870
 805213f:	03 00 cc 
 8052142:	a3 64 e8 3f 08       	mov    %eax,0x83fe864
 8052147:	8b 04 95 60 e8 3f 08 	mov    0x83fe860(,%edx,4),%eax
 805214e:	ba 00 00 00 00       	mov    $0x0,%edx
 8052153:	8a 10                	mov    (%eax),%dl
 8052155:	89 15 40 57 05 08    	mov    %edx,0x8055740
 805215b:	c7 05 70 e8 5f 08 3b 	movl   $0xcc00033b,0x85fe870
 8052162:	03 00 cc 
 8052165:	ba 00 00 00 00       	mov    $0x0,%edx
 805216a:	8a 15 40 57 05 08    	mov    0x8055740,%dl
 8052170:	8b 14 95 60 e2 1f 08 	mov    0x81fe260(,%edx,4),%edx
 8052177:	89 15 48 57 05 08    	mov    %edx,0x8055748
 805217d:	c7 05 70 e8 5f 08 3c 	movl   $0xcc00033c,0x85fe870
 8052184:	03 00 cc 
 8052187:	a1 24 e8 3f 08       	mov    0x83fe824,%eax
 805218c:	8b 80 98 ff df ff    	mov    -0x200068(%eax),%eax
 8052192:	8b 80 98 ff df ff    	mov    -0x200068(%eax),%eax
 8052198:	8b 80 98 ff df ff    	mov    -0x200068(%eax),%eax
 805219e:	8b 80 98 ff df ff    	mov    -0x200068(%eax),%eax
 80521a4:	8b 80 98 ff df ff    	mov    -0x200068(%eax),%eax
 80521aa:	8b 80 98 ff df ff    	mov    -0x200068(%eax),%eax
 80521b0:	8b 80 98 ff df ff    	mov    -0x200068(%eax),%eax
 80521b6:	8b 80 98 ff df ff    	mov    -0x200068(%eax),%eax
 80521bc:	8b 80 98 ff df ff    	mov    -0x200068(%eax),%eax
 80521c2:	8b 80 98 ff df ff    	mov    -0x200068(%eax),%eax
 80521c8:	8b 80 98 ff df ff    	mov    -0x200068(%eax),%eax
 80521ce:	8b 80 98 ff df ff    	mov    -0x200068(%eax),%eax
 80521d4:	8b 80 98 ff df ff    	mov    -0x200068(%eax),%eax
 80521da:	8b 80 98 ff df ff    	mov    -0x200068(%eax),%eax
 80521e0:	8b 80 98 ff df ff    	mov    -0x200068(%eax),%eax
 80521e6:	8b 80 98 ff df ff    	mov    -0x200068(%eax),%eax
 80521ec:	8b 80 98 ff df ff    	mov    -0x200068(%eax),%eax
 80521f2:	8b 80 98 ff df ff    	mov    -0x200068(%eax),%eax
 80521f8:	8b 80 98 ff df ff    	mov    -0x200068(%eax),%eax
 80521fe:	8b 80 98 ff df ff    	mov    -0x200068(%eax),%eax
 8052204:	8b 80 98 ff df ff    	mov    -0x200068(%eax),%eax
 805220a:	8b 80 98 ff df ff    	mov    -0x200068(%eax),%eax
 8052210:	8b 80 98 ff df ff    	mov    -0x200068(%eax),%eax
 8052216:	8b 80 98 ff df ff    	mov    -0x200068(%eax),%eax
 805221c:	8b 80 98 ff df ff    	mov    -0x200068(%eax),%eax
 8052222:	8b 80 98 ff df ff    	mov    -0x200068(%eax),%eax
 8052228:	8b 80 98 ff df ff    	mov    -0x200068(%eax),%eax
 805222e:	8b 80 98 ff df ff    	mov    -0x200068(%eax),%eax
 8052234:	8b 80 98 ff df ff    	mov    -0x200068(%eax),%eax
 805223a:	8b 80 98 ff df ff    	mov    -0x200068(%eax),%eax
 8052240:	8b 80 98 ff df ff    	mov    -0x200068(%eax),%eax
 8052246:	8b 80 98 ff df ff    	mov    -0x200068(%eax),%eax
 805224c:	8b 80 98 ff df ff    	mov    -0x200068(%eax),%eax
 8052252:	8b 80 98 ff df ff    	mov    -0x200068(%eax),%eax
 8052258:	8b 80 98 ff df ff    	mov    -0x200068(%eax),%eax
 805225e:	8b 80 98 ff df ff    	mov    -0x200068(%eax),%eax
 8052264:	8b 80 98 ff df ff    	mov    -0x200068(%eax),%eax
 805226a:	a3 44 57 05 08       	mov    %eax,0x8055744
 805226f:	c7 05 70 e8 5f 08 3d 	movl   $0xcc00033d,0x85fe870
 8052276:	03 00 cc 
 8052279:	a1 44 57 05 08       	mov    0x8055744,%eax
 805227e:	8b 15 48 e8 3f 08    	mov    0x83fe848,%edx
 8052284:	c7 05 70 e8 5f 08 3e 	movl   $0xcc00033e,0x85fe870
 805228b:	03 00 cc 
 805228e:	a3 64 e8 3f 08       	mov    %eax,0x83fe864
 8052293:	8b 04 95 60 e8 3f 08 	mov    0x83fe860(,%edx,4),%eax
 805229a:	8b 00                	mov    (%eax),%eax
 805229c:	a3 44 57 05 08       	mov    %eax,0x8055744
 80522a1:	c7 05 70 e8 5f 08 3f 	movl   $0xcc00033f,0x85fe870
 80522a8:	03 00 cc 
 80522ab:	a1 48 57 05 08       	mov    0x8055748,%eax
 80522b0:	8b 15 44 57 05 08    	mov    0x8055744,%edx
 80522b6:	c7 05 70 e8 5f 08 40 	movl   $0xcc000340,0x85fe870
 80522bd:	03 00 cc 
 80522c0:	a3 e0 e6 1f 08       	mov    %eax,0x81fe6e0
 80522c5:	89 15 e4 e6 1f 08    	mov    %edx,0x81fe6e4
 80522cb:	c7 05 70 e8 5f 08 41 	movl   $0xcc000341,0x85fe870
 80522d2:	03 00 cc 
 80522d5:	b8 00 00 00 00       	mov    $0x0,%eax
 80522da:	b9 00 00 00 00       	mov    $0x0,%ecx
 80522df:	c7 05 f0 e6 1f 08 00 	movl   $0x0,0x81fe6f0
 80522e6:	00 00 00 
 80522e9:	c7 05 70 e8 5f 08 42 	movl   $0xcc000342,0x85fe870
 80522f0:	03 00 cc 
 80522f3:	66 a1 e0 e6 1f 08    	mov    0x81fe6e0,%ax
 80522f9:	66 8b 0d e4 e6 1f 08 	mov    0x81fe6e4,%cx
 8052300:	8b 14 85 20 96 06 08 	mov    0x8069620(,%eax,4),%edx
 8052307:	8b 14 8a             	mov    (%edx,%ecx,4),%edx
 805230a:	66 8b 0d f2 e6 1f 08 	mov    0x81fe6f2,%cx
 8052311:	8b 14 95 20 96 06 08 	mov    0x8069620(,%edx,4),%edx
 8052318:	8b 14 8a             	mov    (%edx,%ecx,4),%edx
 805231b:	66 89 15 e8 e6 1f 08 	mov    %dx,0x81fe6e8
 8052322:	89 15 f0 e6 1f 08    	mov    %edx,0x81fe6f0
 8052328:	c7 05 70 e8 5f 08 43 	movl   $0xcc000343,0x85fe870
 805232f:	03 00 cc 
 8052332:	66 a1 e2 e6 1f 08    	mov    0x81fe6e2,%ax
 8052338:	66 8b 0d e6 e6 1f 08 	mov    0x81fe6e6,%cx
 805233f:	8b 14 85 20 96 06 08 	mov    0x8069620(,%eax,4),%edx
 8052346:	8b 14 8a             	mov    (%edx,%ecx,4),%edx
 8052349:	66 8b 0d f2 e6 1f 08 	mov    0x81fe6f2,%cx
 8052350:	8b 14 95 20 96 06 08 	mov    0x8069620(,%edx,4),%edx
 8052357:	8b 14 8a             	mov    (%edx,%ecx,4),%edx
 805235a:	66 89 15 ea e6 1f 08 	mov    %dx,0x81fe6ea
 8052361:	89 15 f0 e6 1f 08    	mov    %edx,0x81fe6f0
 8052367:	a1 e8 e6 1f 08       	mov    0x81fe6e8,%eax
 805236c:	a3 48 57 05 08       	mov    %eax,0x8055748
 8052371:	c7 05 70 e8 5f 08 44 	movl   $0xcc000344,0x85fe870
 8052378:	03 00 cc 
 805237b:	a1 24 e8 3f 08       	mov    0x83fe824,%eax
 8052380:	8b 80 98 ff df ff    	mov    -0x200068(%eax),%eax
 8052386:	8b 80 98 ff df ff    	mov    -0x200068(%eax),%eax
 805238c:	8b 80 98 ff df ff    	mov    -0x200068(%eax),%eax
 8052392:	8b 80 98 ff df ff    	mov    -0x200068(%eax),%eax
 8052398:	8b 80 98 ff df ff    	mov    -0x200068(%eax),%eax
 805239e:	8b 80 98 ff df ff    	mov    -0x200068(%eax),%eax
 80523a4:	8b 80 98 ff df ff    	mov    -0x200068(%eax),%eax
 80523aa:	8b 80 98 ff df ff    	mov    -0x200068(%eax),%eax
 80523b0:	8b 80 98 ff df ff    	mov    -0x200068(%eax),%eax
 80523b6:	8b 80 98 ff df ff    	mov    -0x200068(%eax),%eax
 80523bc:	8b 80 98 ff df ff    	mov    -0x200068(%eax),%eax
 80523c2:	8b 80 98 ff df ff    	mov    -0x200068(%eax),%eax
 80523c8:	8b 80 98 ff df ff    	mov    -0x200068(%eax),%eax
 80523ce:	8b 80 98 ff df ff    	mov    -0x200068(%eax),%eax
 80523d4:	8b 80 98 ff df ff    	mov    -0x200068(%eax),%eax
 80523da:	8b 80 98 ff df ff    	mov    -0x200068(%eax),%eax
 80523e0:	8b 80 98 ff df ff    	mov    -0x200068(%eax),%eax
 80523e6:	8b 80 98 ff df ff    	mov    -0x200068(%eax),%eax
 80523ec:	8b 80 98 ff df ff    	mov    -0x200068(%eax),%eax
 80523f2:	8b 80 98 ff df ff    	mov    -0x200068(%eax),%eax
 80523f8:	8b 80 98 ff df ff    	mov    -0x200068(%eax),%eax
 80523fe:	8b 80 98 ff df ff    	mov    -0x200068(%eax),%eax
 8052404:	8b 80 98 ff df ff    	mov    -0x200068(%eax),%eax
 805240a:	8b 80 98 ff df ff    	mov    -0x200068(%eax),%eax
 8052410:	8b 80 98 ff df ff    	mov    -0x200068(%eax),%eax
 8052416:	8b 80 98 ff df ff    	mov    -0x200068(%eax),%eax
 805241c:	8b 80 98 ff df ff    	mov    -0x200068(%eax),%eax
 8052422:	8b 80 98 ff df ff    	mov    -0x200068(%eax),%eax
 8052428:	8b 80 98 ff df ff    	mov    -0x200068(%eax),%eax
 805242e:	8b 80 98 ff df ff    	mov    -0x200068(%eax),%eax
 8052434:	8b 80 98 ff df ff    	mov    -0x200068(%eax),%eax
 805243a:	8b 80 98 ff df ff    	mov    -0x200068(%eax),%eax
 8052440:	8b 80 98 ff df ff    	mov    -0x200068(%eax),%eax
 8052446:	8b 80 98 ff df ff    	mov    -0x200068(%eax),%eax
 805244c:	8b 80 98 ff df ff    	mov    -0x200068(%eax),%eax
 8052452:	8b 80 98 ff df ff    	mov    -0x200068(%eax),%eax
 8052458:	8b 80 98 ff df ff    	mov    -0x200068(%eax),%eax
 805245e:	8b 80 98 ff df ff    	mov    -0x200068(%eax),%eax
 8052464:	8b 80 98 ff df ff    	mov    -0x200068(%eax),%eax
 805246a:	8b 80 98 ff df ff    	mov    -0x200068(%eax),%eax
 8052470:	a3 44 57 05 08       	mov    %eax,0x8055744
 8052475:	c7 05 70 e8 5f 08 45 	movl   $0xcc000345,0x85fe870
 805247c:	03 00 cc 
 805247f:	a1 44 57 05 08       	mov    0x8055744,%eax
 8052484:	8b 15 48 e8 3f 08    	mov    0x83fe848,%edx
 805248a:	c7 05 70 e8 5f 08 46 	movl   $0xcc000346,0x85fe870
 8052491:	03 00 cc 
 8052494:	a3 64 e8 3f 08       	mov    %eax,0x83fe864
 8052499:	8b 04 95 60 e8 3f 08 	mov    0x83fe860(,%edx,4),%eax
 80524a0:	8b 00                	mov    (%eax),%eax
 80524a2:	a3 44 57 05 08       	mov    %eax,0x8055744
 80524a7:	c7 05 70 e8 5f 08 47 	movl   $0xcc000347,0x85fe870
 80524ae:	03 00 cc 
 80524b1:	a1 48 57 05 08       	mov    0x8055748,%eax
 80524b6:	8b 15 44 57 05 08    	mov    0x8055744,%edx
 80524bc:	c7 05 70 e8 5f 08 48 	movl   $0xcc000348,0x85fe870
 80524c3:	03 00 cc 
 80524c6:	a3 e0 e6 1f 08       	mov    %eax,0x81fe6e0
 80524cb:	89 15 e4 e6 1f 08    	mov    %edx,0x81fe6e4
 80524d1:	c7 05 70 e8 5f 08 49 	movl   $0xcc000349,0x85fe870
 80524d8:	03 00 cc 
 80524db:	b8 00 00 00 00       	mov    $0x0,%eax
 80524e0:	b9 00 00 00 00       	mov    $0x0,%ecx
 80524e5:	c7 05 f0 e6 1f 08 01 	movl   $0x1,0x81fe6f0
 80524ec:	00 00 00 
 80524ef:	c7 05 70 e8 5f 08 4a 	movl   $0xcc00034a,0x85fe870
 80524f6:	03 00 cc 
 80524f9:	66 a1 e0 e6 1f 08    	mov    0x81fe6e0,%ax
 80524ff:	66 8b 0d e4 e6 1f 08 	mov    0x81fe6e4,%cx
 8052506:	66 8b 0c 4d 40 97 16 	mov    0x8169740(,%ecx,2),%cx
 805250d:	08 
 805250e:	8b 14 85 20 96 06 08 	mov    0x8069620(,%eax,4),%edx
 8052515:	8b 14 8a             	mov    (%edx,%ecx,4),%edx
 8052518:	8b 14 95 20 96 06 08 	mov    0x8069620(,%edx,4),%edx
 805251f:	8b 0d f0 e6 1f 08    	mov    0x81fe6f0,%ecx
 8052525:	8b 14 8a             	mov    (%edx,%ecx,4),%edx
 8052528:	66 89 15 e8 e6 1f 08 	mov    %dx,0x81fe6e8
 805252f:	89 15 ee e6 1f 08    	mov    %edx,0x81fe6ee
 8052535:	c7 05 70 e8 5f 08 4b 	movl   $0xcc00034b,0x85fe870
 805253c:	03 00 cc 
 805253f:	66 a1 e2 e6 1f 08    	mov    0x81fe6e2,%ax
 8052545:	66 8b 0d e6 e6 1f 08 	mov    0x81fe6e6,%cx
 805254c:	66 8b 0c 4d 40 97 16 	mov    0x8169740(,%ecx,2),%cx
 8052553:	08 
 8052554:	8b 14 85 20 96 06 08 	mov    0x8069620(,%eax,4),%edx
 805255b:	8b 14 8a             	mov    (%edx,%ecx,4),%edx
 805255e:	8b 14 95 20 96 06 08 	mov    0x8069620(,%edx,4),%edx
 8052565:	8b 0d f0 e6 1f 08    	mov    0x81fe6f0,%ecx
 805256b:	8b 14 8a             	mov    (%edx,%ecx,4),%edx
 805256e:	66 89 15 ea e6 1f 08 	mov    %dx,0x81fe6ea
 8052575:	89 15 ee e6 1f 08    	mov    %edx,0x81fe6ee
 805257b:	a1 e8 e6 1f 08       	mov    0x81fe6e8,%eax
 8052580:	a3 48 57 05 08       	mov    %eax,0x8055748
 8052585:	c7 05 70 e8 5f 08 4c 	movl   $0xcc00034c,0x85fe870
 805258c:	03 00 cc 
 805258f:	a1 4c 57 05 08       	mov    0x805574c,%eax
 8052594:	8b 15 48 57 05 08    	mov    0x8055748,%edx
 805259a:	c7 05 70 e8 5f 08 4d 	movl   $0xcc00034d,0x85fe870
 80525a1:	03 00 cc 
 80525a4:	a3 e0 e6 1f 08       	mov    %eax,0x81fe6e0
 80525a9:	89 15 e4 e6 1f 08    	mov    %edx,0x81fe6e4
 80525af:	c7 05 70 e8 5f 08 4e 	movl   $0xcc00034e,0x85fe870
 80525b6:	03 00 cc 
 80525b9:	c7 05 70 e8 5f 08 4f 	movl   $0xcc00034f,0x85fe870
 80525c0:	03 00 cc 
 80525c3:	b8 00 00 00 00       	mov    $0x0,%eax
 80525c8:	ba 00 00 00 00       	mov    $0x0,%edx
 80525cd:	a0 e0 e6 1f 08       	mov    0x81fe6e0,%al
 80525d2:	8a 15 e4 e6 1f 08    	mov    0x81fe6e4,%dl
 80525d8:	8b 04 85 60 9c 19 08 	mov    0x8199c60(,%eax,4),%eax
 80525df:	8a 04 10             	mov    (%eax,%edx,1),%al
 80525e2:	a2 e8 e6 1f 08       	mov    %al,0x81fe6e8
 80525e7:	c7 05 70 e8 5f 08 50 	movl   $0xcc000350,0x85fe870
 80525ee:	03 00 cc 
 80525f1:	b8 00 00 00 00       	mov    $0x0,%eax
 80525f6:	ba 00 00 00 00       	mov    $0x0,%edx
 80525fb:	a0 e1 e6 1f 08       	mov    0x81fe6e1,%al
 8052600:	8a 15 e5 e6 1f 08    	mov    0x81fe6e5,%dl
 8052606:	8b 04 85 60 9c 19 08 	mov    0x8199c60(,%eax,4),%eax
 805260d:	8a 04 10             	mov    (%eax,%edx,1),%al
 8052610:	a2 e9 e6 1f 08       	mov    %al,0x81fe6e9
 8052615:	c7 05 70 e8 5f 08 51 	movl   $0xcc000351,0x85fe870
 805261c:	03 00 cc 
 805261f:	b8 00 00 00 00       	mov    $0x0,%eax
 8052624:	ba 00 00 00 00       	mov    $0x0,%edx
 8052629:	a0 e2 e6 1f 08       	mov    0x81fe6e2,%al
 805262e:	8a 15 e6 e6 1f 08    	mov    0x81fe6e6,%dl
 8052634:	8b 04 85 60 9c 19 08 	mov    0x8199c60(,%eax,4),%eax
 805263b:	8a 04 10             	mov    (%eax,%edx,1),%al
 805263e:	a2 ea e6 1f 08       	mov    %al,0x81fe6ea
 8052643:	c7 05 70 e8 5f 08 52 	movl   $0xcc000352,0x85fe870
 805264a:	03 00 cc 
 805264d:	b8 00 00 00 00       	mov    $0x0,%eax
 8052652:	ba 00 00 00 00       	mov    $0x0,%edx
 8052657:	a0 e3 e6 1f 08       	mov    0x81fe6e3,%al
 805265c:	8a 15 e7 e6 1f 08    	mov    0x81fe6e7,%dl
 8052662:	8b 04 85 60 9c 19 08 	mov    0x8199c60(,%eax,4),%eax
 8052669:	8a 04 10             	mov    (%eax,%edx,1),%al
 805266c:	a2 eb e6 1f 08       	mov    %al,0x81fe6eb
 8052671:	a1 e8 e6 1f 08       	mov    0x81fe6e8,%eax
 8052676:	a3 4c 57 05 08       	mov    %eax,0x805574c
 805267b:	c7 05 70 e8 5f 08 53 	movl   $0xcc000353,0x85fe870
 8052682:	03 00 cc 
 8052685:	a1 24 e8 3f 08       	mov    0x83fe824,%eax
 805268a:	ba 9a ff ff ff       	mov    $0xffffff9a,%edx
 805268f:	c7 05 70 e8 5f 08 54 	movl   $0xcc000354,0x85fe870
 8052696:	03 00 cc 
 8052699:	a3 e0 e6 1f 08       	mov    %eax,0x81fe6e0
 805269e:	89 15 e4 e6 1f 08    	mov    %edx,0x81fe6e4
 80526a4:	c7 05 70 e8 5f 08 55 	movl   $0xcc000355,0x85fe870
 80526ab:	03 00 cc 
 80526ae:	b8 00 00 00 00       	mov    $0x0,%eax
 80526b3:	b9 00 00 00 00       	mov    $0x0,%ecx
 80526b8:	c7 05 f0 e6 1f 08 00 	movl   $0x0,0x81fe6f0
 80526bf:	00 00 00 
 80526c2:	c7 05 70 e8 5f 08 56 	movl   $0xcc000356,0x85fe870
 80526c9:	03 00 cc 
 80526cc:	66 a1 e0 e6 1f 08    	mov    0x81fe6e0,%ax
 80526d2:	66 8b 0d e4 e6 1f 08 	mov    0x81fe6e4,%cx
 80526d9:	8b 14 85 20 96 06 08 	mov    0x8069620(,%eax,4),%edx
 80526e0:	8b 14 8a             	mov    (%edx,%ecx,4),%edx
 80526e3:	66 8b 0d f2 e6 1f 08 	mov    0x81fe6f2,%cx
 80526ea:	8b 14 95 20 96 06 08 	mov    0x8069620(,%edx,4),%edx
 80526f1:	8b 14 8a             	mov    (%edx,%ecx,4),%edx
 80526f4:	66 89 15 e8 e6 1f 08 	mov    %dx,0x81fe6e8
 80526fb:	89 15 f0 e6 1f 08    	mov    %edx,0x81fe6f0
 8052701:	c7 05 70 e8 5f 08 57 	movl   $0xcc000357,0x85fe870
 8052708:	03 00 cc 
 805270b:	66 a1 e2 e6 1f 08    	mov    0x81fe6e2,%ax
 8052711:	66 8b 0d e6 e6 1f 08 	mov    0x81fe6e6,%cx
 8052718:	8b 14 85 20 96 06 08 	mov    0x8069620(,%eax,4),%edx
 805271f:	8b 14 8a             	mov    (%edx,%ecx,4),%edx
 8052722:	66 8b 0d f2 e6 1f 08 	mov    0x81fe6f2,%cx
 8052729:	8b 14 95 20 96 06 08 	mov    0x8069620(,%edx,4),%edx
 8052730:	8b 14 8a             	mov    (%edx,%ecx,4),%edx
 8052733:	66 89 15 ea e6 1f 08 	mov    %dx,0x81fe6ea
 805273a:	89 15 f0 e6 1f 08    	mov    %edx,0x81fe6f0
 8052740:	a1 e8 e6 1f 08       	mov    0x81fe6e8,%eax
 8052745:	a3 48 57 05 08       	mov    %eax,0x8055748
 805274a:	c7 05 70 e8 5f 08 58 	movl   $0xcc000358,0x85fe870
 8052751:	03 00 cc 
 8052754:	a1 48 57 05 08       	mov    0x8055748,%eax
 8052759:	8b 15 48 e8 3f 08    	mov    0x83fe848,%edx
 805275f:	c7 05 70 e8 5f 08 59 	movl   $0xcc000359,0x85fe870
 8052766:	03 00 cc 
 8052769:	a3 64 e8 3f 08       	mov    %eax,0x83fe864
 805276e:	8b 04 95 60 e8 3f 08 	mov    0x83fe860(,%edx,4),%eax
 8052775:	ba 00 00 00 00       	mov    $0x0,%edx
 805277a:	8a 10                	mov    (%eax),%dl
 805277c:	89 15 40 57 05 08    	mov    %edx,0x8055740
 8052782:	c7 05 70 e8 5f 08 5a 	movl   $0xcc00035a,0x85fe870
 8052789:	03 00 cc 
 805278c:	ba 00 00 00 00       	mov    $0x0,%edx
 8052791:	8a 15 40 57 05 08    	mov    0x8055740,%dl
 8052797:	8b 14 95 60 e2 1f 08 	mov    0x81fe260(,%edx,4),%edx
 805279e:	89 15 48 57 05 08    	mov    %edx,0x8055748
 80527a4:	c7 05 44 57 05 08 21 	movl   $0x21,0x8055744
 80527ab:	00 00 00 
 80527ae:	c7 05 70 e8 5f 08 5b 	movl   $0xcc00035b,0x85fe870
 80527b5:	03 00 cc 
 80527b8:	a1 48 57 05 08       	mov    0x8055748,%eax
 80527bd:	8b 15 44 57 05 08    	mov    0x8055744,%edx
 80527c3:	c7 05 70 e8 5f 08 5c 	movl   $0xcc00035c,0x85fe870
 80527ca:	03 00 cc 
 80527cd:	a3 e0 e6 1f 08       	mov    %eax,0x81fe6e0
 80527d2:	89 15 e4 e6 1f 08    	mov    %edx,0x81fe6e4
 80527d8:	c7 05 70 e8 5f 08 5d 	movl   $0xcc00035d,0x85fe870
 80527df:	03 00 cc 
 80527e2:	c7 05 70 e8 5f 08 5e 	movl   $0xcc00035e,0x85fe870
 80527e9:	03 00 cc 
 80527ec:	b8 00 00 00 00       	mov    $0x0,%eax
 80527f1:	ba 00 00 00 00       	mov    $0x0,%edx
 80527f6:	a0 e0 e6 1f 08       	mov    0x81fe6e0,%al
 80527fb:	8a 15 e4 e6 1f 08    	mov    0x81fe6e4,%dl
 8052801:	8b 04 85 70 a1 1a 08 	mov    0x81aa170(,%eax,4),%eax
 8052808:	8a 04 10             	mov    (%eax,%edx,1),%al
 805280b:	a2 e8 e6 1f 08       	mov    %al,0x81fe6e8
 8052810:	c7 05 70 e8 5f 08 5f 	movl   $0xcc00035f,0x85fe870
 8052817:	03 00 cc 
 805281a:	b8 00 00 00 00       	mov    $0x0,%eax
 805281f:	ba 00 00 00 00       	mov    $0x0,%edx
 8052824:	a0 e1 e6 1f 08       	mov    0x81fe6e1,%al
 8052829:	8a 15 e5 e6 1f 08    	mov    0x81fe6e5,%dl
 805282f:	8b 04 85 70 a1 1a 08 	mov    0x81aa170(,%eax,4),%eax
 8052836:	8a 04 10             	mov    (%eax,%edx,1),%al
 8052839:	a2 e9 e6 1f 08       	mov    %al,0x81fe6e9
 805283e:	c7 05 70 e8 5f 08 60 	movl   $0xcc000360,0x85fe870
 8052845:	03 00 cc 
 8052848:	b8 00 00 00 00       	mov    $0x0,%eax
 805284d:	ba 00 00 00 00       	mov    $0x0,%edx
 8052852:	a0 e2 e6 1f 08       	mov    0x81fe6e2,%al
 8052857:	8a 15 e6 e6 1f 08    	mov    0x81fe6e6,%dl
 805285d:	8b 04 85 70 a1 1a 08 	mov    0x81aa170(,%eax,4),%eax
 8052864:	8a 04 10             	mov    (%eax,%edx,1),%al
 8052867:	a2 ea e6 1f 08       	mov    %al,0x81fe6ea
 805286c:	c7 05 70 e8 5f 08 61 	movl   $0xcc000361,0x85fe870
 8052873:	03 00 cc 
 8052876:	b8 00 00 00 00       	mov    $0x0,%eax
 805287b:	ba 00 00 00 00       	mov    $0x0,%edx
 8052880:	a0 e3 e6 1f 08       	mov    0x81fe6e3,%al
 8052885:	8a 15 e7 e6 1f 08    	mov    0x81fe6e7,%dl
 805288b:	8b 04 85 70 a1 1a 08 	mov    0x81aa170(,%eax,4),%eax
 8052892:	8a 04 10             	mov    (%eax,%edx,1),%al
 8052895:	a2 eb e6 1f 08       	mov    %al,0x81fe6eb
 805289a:	a1 e8 e6 1f 08       	mov    0x81fe6e8,%eax
 805289f:	a3 48 57 05 08       	mov    %eax,0x8055748
 80528a4:	c7 05 70 e8 5f 08 62 	movl   $0xcc000362,0x85fe870
 80528ab:	03 00 cc 
 80528ae:	a1 4c 57 05 08       	mov    0x805574c,%eax
 80528b3:	8b 15 48 57 05 08    	mov    0x8055748,%edx
 80528b9:	c7 05 70 e8 5f 08 63 	movl   $0xcc000363,0x85fe870
 80528c0:	03 00 cc 
 80528c3:	a3 e0 e6 1f 08       	mov    %eax,0x81fe6e0
 80528c8:	89 15 e4 e6 1f 08    	mov    %edx,0x81fe6e4
 80528ce:	c7 05 70 e8 5f 08 64 	movl   $0xcc000364,0x85fe870
 80528d5:	03 00 cc 
 80528d8:	c7 05 70 e8 5f 08 65 	movl   $0xcc000365,0x85fe870
 80528df:	03 00 cc 
 80528e2:	b8 00 00 00 00       	mov    $0x0,%eax
 80528e7:	ba 00 00 00 00       	mov    $0x0,%edx
 80528ec:	a0 e0 e6 1f 08       	mov    0x81fe6e0,%al
 80528f1:	8a 15 e4 e6 1f 08    	mov    0x81fe6e4,%dl
 80528f7:	8b 04 85 60 9c 19 08 	mov    0x8199c60(,%eax,4),%eax
 80528fe:	8a 04 10             	mov    (%eax,%edx,1),%al
 8052901:	a2 e8 e6 1f 08       	mov    %al,0x81fe6e8
 8052906:	c7 05 70 e8 5f 08 66 	movl   $0xcc000366,0x85fe870
 805290d:	03 00 cc 
 8052910:	b8 00 00 00 00       	mov    $0x0,%eax
 8052915:	ba 00 00 00 00       	mov    $0x0,%edx
 805291a:	a0 e1 e6 1f 08       	mov    0x81fe6e1,%al
 805291f:	8a 15 e5 e6 1f 08    	mov    0x81fe6e5,%dl
 8052925:	8b 04 85 60 9c 19 08 	mov    0x8199c60(,%eax,4),%eax
 805292c:	8a 04 10             	mov    (%eax,%edx,1),%al
 805292f:	a2 e9 e6 1f 08       	mov    %al,0x81fe6e9
 8052934:	c7 05 70 e8 5f 08 67 	movl   $0xcc000367,0x85fe870
 805293b:	03 00 cc 
 805293e:	b8 00 00 00 00       	mov    $0x0,%eax
 8052943:	ba 00 00 00 00       	mov    $0x0,%edx
 8052948:	a0 e2 e6 1f 08       	mov    0x81fe6e2,%al
 805294d:	8a 15 e6 e6 1f 08    	mov    0x81fe6e6,%dl
 8052953:	8b 04 85 60 9c 19 08 	mov    0x8199c60(,%eax,4),%eax
 805295a:	8a 04 10             	mov    (%eax,%edx,1),%al
 805295d:	a2 ea e6 1f 08       	mov    %al,0x81fe6ea
 8052962:	c7 05 70 e8 5f 08 68 	movl   $0xcc000368,0x85fe870
 8052969:	03 00 cc 
 805296c:	b8 00 00 00 00       	mov    $0x0,%eax
 8052971:	ba 00 00 00 00       	mov    $0x0,%edx
 8052976:	a0 e3 e6 1f 08       	mov    0x81fe6e3,%al
 805297b:	8a 15 e7 e6 1f 08    	mov    0x81fe6e7,%dl
 8052981:	8b 04 85 60 9c 19 08 	mov    0x8199c60(,%eax,4),%eax
 8052988:	8a 04 10             	mov    (%eax,%edx,1),%al
 805298b:	a2 eb e6 1f 08       	mov    %al,0x81fe6eb
 8052990:	a1 e8 e6 1f 08       	mov    0x81fe6e8,%eax
 8052995:	a3 4c 57 05 08       	mov    %eax,0x805574c
 805299a:	c7 05 70 e8 5f 08 69 	movl   $0xcc000369,0x85fe870
 80529a1:	03 00 cc 
 80529a4:	a1 24 e8 3f 08       	mov    0x83fe824,%eax
 80529a9:	ba 9b ff ff ff       	mov    $0xffffff9b,%edx
 80529ae:	c7 05 70 e8 5f 08 6a 	movl   $0xcc00036a,0x85fe870
 80529b5:	03 00 cc 
 80529b8:	a3 e0 e6 1f 08       	mov    %eax,0x81fe6e0
 80529bd:	89 15 e4 e6 1f 08    	mov    %edx,0x81fe6e4
 80529c3:	c7 05 70 e8 5f 08 6b 	movl   $0xcc00036b,0x85fe870
 80529ca:	03 00 cc 
 80529cd:	b8 00 00 00 00       	mov    $0x0,%eax
 80529d2:	b9 00 00 00 00       	mov    $0x0,%ecx
 80529d7:	c7 05 f0 e6 1f 08 00 	movl   $0x0,0x81fe6f0
 80529de:	00 00 00 
 80529e1:	c7 05 70 e8 5f 08 6c 	movl   $0xcc00036c,0x85fe870
 80529e8:	03 00 cc 
 80529eb:	66 a1 e0 e6 1f 08    	mov    0x81fe6e0,%ax
 80529f1:	66 8b 0d e4 e6 1f 08 	mov    0x81fe6e4,%cx
 80529f8:	8b 14 85 20 96 06 08 	mov    0x8069620(,%eax,4),%edx
 80529ff:	8b 14 8a             	mov    (%edx,%ecx,4),%edx
 8052a02:	66 8b 0d f2 e6 1f 08 	mov    0x81fe6f2,%cx
 8052a09:	8b 14 95 20 96 06 08 	mov    0x8069620(,%edx,4),%edx
 8052a10:	8b 14 8a             	mov    (%edx,%ecx,4),%edx
 8052a13:	66 89 15 e8 e6 1f 08 	mov    %dx,0x81fe6e8
 8052a1a:	89 15 f0 e6 1f 08    	mov    %edx,0x81fe6f0
 8052a20:	c7 05 70 e8 5f 08 6d 	movl   $0xcc00036d,0x85fe870
 8052a27:	03 00 cc 
 8052a2a:	66 a1 e2 e6 1f 08    	mov    0x81fe6e2,%ax
 8052a30:	66 8b 0d e6 e6 1f 08 	mov    0x81fe6e6,%cx
 8052a37:	8b 14 85 20 96 06 08 	mov    0x8069620(,%eax,4),%edx
 8052a3e:	8b 14 8a             	mov    (%edx,%ecx,4),%edx
 8052a41:	66 8b 0d f2 e6 1f 08 	mov    0x81fe6f2,%cx
 8052a48:	8b 14 95 20 96 06 08 	mov    0x8069620(,%edx,4),%edx
 8052a4f:	8b 14 8a             	mov    (%edx,%ecx,4),%edx
 8052a52:	66 89 15 ea e6 1f 08 	mov    %dx,0x81fe6ea
 8052a59:	89 15 f0 e6 1f 08    	mov    %edx,0x81fe6f0
 8052a5f:	a1 e8 e6 1f 08       	mov    0x81fe6e8,%eax
 8052a64:	a3 48 57 05 08       	mov    %eax,0x8055748
 8052a69:	c7 05 70 e8 5f 08 6e 	movl   $0xcc00036e,0x85fe870
 8052a70:	03 00 cc 
 8052a73:	a1 48 57 05 08       	mov    0x8055748,%eax
 8052a78:	8b 15 48 e8 3f 08    	mov    0x83fe848,%edx
 8052a7e:	c7 05 70 e8 5f 08 6f 	movl   $0xcc00036f,0x85fe870
 8052a85:	03 00 cc 
 8052a88:	a3 64 e8 3f 08       	mov    %eax,0x83fe864
 8052a8d:	8b 04 95 60 e8 3f 08 	mov    0x83fe860(,%edx,4),%eax
 8052a94:	ba 00 00 00 00       	mov    $0x0,%edx
 8052a99:	8a 10                	mov    (%eax),%dl
 8052a9b:	89 15 40 57 05 08    	mov    %edx,0x8055740
 8052aa1:	c7 05 70 e8 5f 08 70 	movl   $0xcc000370,0x85fe870
 8052aa8:	03 00 cc 
 8052aab:	ba 00 00 00 00       	mov    $0x0,%edx
 8052ab0:	8a 15 40 57 05 08    	mov    0x8055740,%dl
 8052ab6:	8b 14 95 60 e2 1f 08 	mov    0x81fe260(,%edx,4),%edx
 8052abd:	89 15 48 57 05 08    	mov    %edx,0x8055748
 8052ac3:	c7 05 44 57 05 08 7d 	movl   $0x7d,0x8055744
 8052aca:	00 00 00 
 8052acd:	c7 05 70 e8 5f 08 71 	movl   $0xcc000371,0x85fe870
 8052ad4:	03 00 cc 
 8052ad7:	a1 48 57 05 08       	mov    0x8055748,%eax
 8052adc:	8b 15 44 57 05 08    	mov    0x8055744,%edx
 8052ae2:	c7 05 70 e8 5f 08 72 	movl   $0xcc000372,0x85fe870
 8052ae9:	03 00 cc 
 8052aec:	a3 e0 e6 1f 08       	mov    %eax,0x81fe6e0
 8052af1:	89 15 e4 e6 1f 08    	mov    %edx,0x81fe6e4
 8052af7:	c7 05 70 e8 5f 08 73 	movl   $0xcc000373,0x85fe870
 8052afe:	03 00 cc 
 8052b01:	b8 00 00 00 00       	mov    $0x0,%eax
 8052b06:	b9 00 00 00 00       	mov    $0x0,%ecx
 8052b0b:	c7 05 f0 e6 1f 08 01 	movl   $0x1,0x81fe6f0
 8052b12:	00 00 00 
 8052b15:	c7 05 70 e8 5f 08 74 	movl   $0xcc000374,0x85fe870
 8052b1c:	03 00 cc 
 8052b1f:	66 a1 e0 e6 1f 08    	mov    0x81fe6e0,%ax
 8052b25:	66 8b 0d e4 e6 1f 08 	mov    0x81fe6e4,%cx
 8052b2c:	66 8b 0c 4d 40 97 16 	mov    0x8169740(,%ecx,2),%cx
 8052b33:	08 
 8052b34:	8b 14 85 20 96 06 08 	mov    0x8069620(,%eax,4),%edx
 8052b3b:	8b 14 8a             	mov    (%edx,%ecx,4),%edx
 8052b3e:	8b 14 95 20 96 06 08 	mov    0x8069620(,%edx,4),%edx
 8052b45:	8b 0d f0 e6 1f 08    	mov    0x81fe6f0,%ecx
 8052b4b:	8b 14 8a             	mov    (%edx,%ecx,4),%edx
 8052b4e:	66 89 15 e8 e6 1f 08 	mov    %dx,0x81fe6e8
 8052b55:	89 15 ee e6 1f 08    	mov    %edx,0x81fe6ee
 8052b5b:	c7 05 70 e8 5f 08 75 	movl   $0xcc000375,0x85fe870
 8052b62:	03 00 cc 
 8052b65:	66 a1 e2 e6 1f 08    	mov    0x81fe6e2,%ax
 8052b6b:	66 8b 0d e6 e6 1f 08 	mov    0x81fe6e6,%cx
 8052b72:	66 8b 0c 4d 40 97 16 	mov    0x8169740(,%ecx,2),%cx
 8052b79:	08 
 8052b7a:	8b 14 85 20 96 06 08 	mov    0x8069620(,%eax,4),%edx
 8052b81:	8b 14 8a             	mov    (%edx,%ecx,4),%edx
 8052b84:	8b 14 95 20 96 06 08 	mov    0x8069620(,%edx,4),%edx
 8052b8b:	8b 0d f0 e6 1f 08    	mov    0x81fe6f0,%ecx
 8052b91:	8b 14 8a             	mov    (%edx,%ecx,4),%edx
 8052b94:	66 89 15 ea e6 1f 08 	mov    %dx,0x81fe6ea
 8052b9b:	89 15 ee e6 1f 08    	mov    %edx,0x81fe6ee
 8052ba1:	a1 e8 e6 1f 08       	mov    0x81fe6e8,%eax
 8052ba6:	a3 48 57 05 08       	mov    %eax,0x8055748
 8052bab:	c7 05 70 e8 5f 08 76 	movl   $0xcc000376,0x85fe870
 8052bb2:	03 00 cc 
 8052bb5:	a1 4c 57 05 08       	mov    0x805574c,%eax
 8052bba:	8b 15 48 57 05 08    	mov    0x8055748,%edx
 8052bc0:	c7 05 70 e8 5f 08 77 	movl   $0xcc000377,0x85fe870
 8052bc7:	03 00 cc 
 8052bca:	a3 e0 e6 1f 08       	mov    %eax,0x81fe6e0
 8052bcf:	89 15 e4 e6 1f 08    	mov    %edx,0x81fe6e4
 8052bd5:	c7 05 70 e8 5f 08 78 	movl   $0xcc000378,0x85fe870
 8052bdc:	03 00 cc 
 8052bdf:	c7 05 70 e8 5f 08 79 	movl   $0xcc000379,0x85fe870
 8052be6:	03 00 cc 
 8052be9:	b8 00 00 00 00       	mov    $0x0,%eax
 8052bee:	ba 00 00 00 00       	mov    $0x0,%edx
 8052bf3:	a0 e0 e6 1f 08       	mov    0x81fe6e0,%al
 8052bf8:	8a 15 e4 e6 1f 08    	mov    0x81fe6e4,%dl
 8052bfe:	8b 04 85 60 9c 19 08 	mov    0x8199c60(,%eax,4),%eax
 8052c05:	8a 04 10             	mov    (%eax,%edx,1),%al
 8052c08:	a2 e8 e6 1f 08       	mov    %al,0x81fe6e8
 8052c0d:	c7 05 70 e8 5f 08 7a 	movl   $0xcc00037a,0x85fe870
 8052c14:	03 00 cc 
 8052c17:	b8 00 00 00 00       	mov    $0x0,%eax
 8052c1c:	ba 00 00 00 00       	mov    $0x0,%edx
 8052c21:	a0 e1 e6 1f 08       	mov    0x81fe6e1,%al
 8052c26:	8a 15 e5 e6 1f 08    	mov    0x81fe6e5,%dl
 8052c2c:	8b 04 85 60 9c 19 08 	mov    0x8199c60(,%eax,4),%eax
 8052c33:	8a 04 10             	mov    (%eax,%edx,1),%al
 8052c36:	a2 e9 e6 1f 08       	mov    %al,0x81fe6e9
 8052c3b:	c7 05 70 e8 5f 08 7b 	movl   $0xcc00037b,0x85fe870
 8052c42:	03 00 cc 
 8052c45:	b8 00 00 00 00       	mov    $0x0,%eax
 8052c4a:	ba 00 00 00 00       	mov    $0x0,%edx
 8052c4f:	a0 e2 e6 1f 08       	mov    0x81fe6e2,%al
 8052c54:	8a 15 e6 e6 1f 08    	mov    0x81fe6e6,%dl
 8052c5a:	8b 04 85 60 9c 19 08 	mov    0x8199c60(,%eax,4),%eax
 8052c61:	8a 04 10             	mov    (%eax,%edx,1),%al
 8052c64:	a2 ea e6 1f 08       	mov    %al,0x81fe6ea
 8052c69:	c7 05 70 e8 5f 08 7c 	movl   $0xcc00037c,0x85fe870
 8052c70:	03 00 cc 
 8052c73:	b8 00 00 00 00       	mov    $0x0,%eax
 8052c78:	ba 00 00 00 00       	mov    $0x0,%edx
 8052c7d:	a0 e3 e6 1f 08       	mov    0x81fe6e3,%al
 8052c82:	8a 15 e7 e6 1f 08    	mov    0x81fe6e7,%dl
 8052c88:	8b 04 85 60 9c 19 08 	mov    0x8199c60(,%eax,4),%eax
 8052c8f:	8a 04 10             	mov    (%eax,%edx,1),%al
 8052c92:	a2 eb e6 1f 08       	mov    %al,0x81fe6eb
 8052c97:	a1 e8 e6 1f 08       	mov    0x81fe6e8,%eax
 8052c9c:	a3 4c 57 05 08       	mov    %eax,0x805574c
 8052ca1:	c7 05 48 57 05 08 00 	movl   $0x0,0x8055748
 8052ca8:	00 00 00 
 8052cab:	c7 05 70 e8 5f 08 7d 	movl   $0xcc00037d,0x85fe870
 8052cb2:	03 00 cc 
 8052cb5:	a1 4c 57 05 08       	mov    0x805574c,%eax
 8052cba:	8b 15 48 57 05 08    	mov    0x8055748,%edx
 8052cc0:	b9 c7 38 05 88       	mov    $0x880538c7,%ecx
 8052cc5:	c7 05 70 e8 5f 08 7e 	movl   $0xcc00037e,0x85fe870
 8052ccc:	03 00 cc 
 8052ccf:	89 0d f0 e7 1f 08    	mov    %ecx,0x81fe7f0
 8052cd5:	c7 05 70 e8 5f 08 7f 	movl   $0xcc00037f,0x85fe870
 8052cdc:	03 00 cc 
 8052cdf:	a3 e0 e6 1f 08       	mov    %eax,0x81fe6e0
 8052ce4:	89 15 e4 e6 1f 08    	mov    %edx,0x81fe6e4
 8052cea:	89 15 80 e7 1f 08    	mov    %edx,0x81fe780
 8052cf0:	c7 05 70 e8 5f 08 80 	movl   $0xcc000380,0x85fe870
 8052cf7:	03 00 cc 
 8052cfa:	b8 00 00 00 00       	mov    $0x0,%eax
 8052cff:	b9 00 00 00 00       	mov    $0x0,%ecx
 8052d04:	c7 05 f0 e6 1f 08 01 	movl   $0x1,0x81fe6f0
 8052d0b:	00 00 00 
 8052d0e:	c7 05 70 e8 5f 08 81 	movl   $0xcc000381,0x85fe870
 8052d15:	03 00 cc 
 8052d18:	66 a1 e0 e6 1f 08    	mov    0x81fe6e0,%ax
 8052d1e:	66 8b 0d e4 e6 1f 08 	mov    0x81fe6e4,%cx
 8052d25:	66 8b 0c 4d 40 97 16 	mov    0x8169740(,%ecx,2),%cx
 8052d2c:	08 
 8052d2d:	8b 14 85 20 96 06 08 	mov    0x8069620(,%eax,4),%edx
 8052d34:	8b 14 8a             	mov    (%edx,%ecx,4),%edx
 8052d37:	8b 14 95 20 96 06 08 	mov    0x8069620(,%edx,4),%edx
 8052d3e:	8b 0d f0 e6 1f 08    	mov    0x81fe6f0,%ecx
 8052d44:	8b 14 8a             	mov    (%edx,%ecx,4),%edx
 8052d47:	66 89 15 e8 e6 1f 08 	mov    %dx,0x81fe6e8
 8052d4e:	89 15 ee e6 1f 08    	mov    %edx,0x81fe6ee
 8052d54:	c7 05 70 e8 5f 08 82 	movl   $0xcc000382,0x85fe870
 8052d5b:	03 00 cc 
 8052d5e:	66 a1 e2 e6 1f 08    	mov    0x81fe6e2,%ax
 8052d64:	66 8b 0d e6 e6 1f 08 	mov    0x81fe6e6,%cx
 8052d6b:	66 8b 0c 4d 40 97 16 	mov    0x8169740(,%ecx,2),%cx
 8052d72:	08 
 8052d73:	8b 14 85 20 96 06 08 	mov    0x8069620(,%eax,4),%edx
 8052d7a:	8b 14 8a             	mov    (%edx,%ecx,4),%edx
 8052d7d:	8b 14 95 20 96 06 08 	mov    0x8069620(,%edx,4),%edx
 8052d84:	8b 0d f0 e6 1f 08    	mov    0x81fe6f0,%ecx
 8052d8a:	8b 14 8a             	mov    (%edx,%ecx,4),%edx
 8052d8d:	66 89 15 ea e6 1f 08 	mov    %dx,0x81fe6ea
 8052d94:	89 15 ee e6 1f 08    	mov    %edx,0x81fe6ee
 8052d9a:	a1 80 e7 1f 08       	mov    0x81fe780,%eax
 8052d9f:	a3 e4 e6 1f 08       	mov    %eax,0x81fe6e4
 8052da4:	b8 00 00 00 00       	mov    $0x0,%eax
 8052da9:	a0 f0 e6 1f 08       	mov    0x81fe6f0,%al
 8052dae:	8a 80 00 5a 05 08    	mov    0x8055a00(%eax),%al
 8052db4:	a2 ec e7 1f 08       	mov    %al,0x81fe7ec
 8052db9:	a0 eb e6 1f 08       	mov    0x81fe6eb,%al
 8052dbe:	8b 04 85 80 78 05 08 	mov    0x8057880(,%eax,4),%eax
 8052dc5:	a2 e4 e7 1f 08       	mov    %al,0x81fe7e4
 8052dca:	b8 00 00 00 00       	mov    $0x0,%eax
 8052dcf:	ba 00 00 00 00       	mov    $0x0,%edx
 8052dd4:	8a 15 e8 e6 1f 08    	mov    0x81fe6e8,%dl
 8052dda:	8a 84 02 f0 57 05 08 	mov    0x80557f0(%edx,%eax,1),%al
 8052de1:	8a 15 e9 e6 1f 08    	mov    0x81fe6e9,%dl
 8052de7:	8a 84 02 f0 57 05 08 	mov    0x80557f0(%edx,%eax,1),%al
 8052dee:	8a 15 ea e6 1f 08    	mov    0x81fe6ea,%dl
 8052df4:	8a 84 02 f0 57 05 08 	mov    0x80557f0(%edx,%eax,1),%al
 8052dfb:	8a 15 eb e6 1f 08    	mov    0x81fe6eb,%dl
 8052e01:	8a 84 02 f0 57 05 08 	mov    0x80557f0(%edx,%eax,1),%al
 8052e08:	8a 80 00 5a 05 08    	mov    0x8055a00(%eax),%al
 8052e0e:	a2 e0 e7 1f 08       	mov    %al,0x81fe7e0
 8052e13:	ba 70 e6 1f 08       	mov    $0x81fe670,%edx
 8052e18:	a0 e3 e6 1f 08       	mov    0x81fe6e3,%al
 8052e1d:	8b 04 85 80 78 05 08 	mov    0x8057880(,%eax,4),%eax
 8052e24:	8b 14 82             	mov    (%edx,%eax,4),%edx
 8052e27:	a0 e7 e6 1f 08       	mov    0x81fe6e7,%al
 8052e2c:	8b 04 85 80 78 05 08 	mov    0x8057880(,%eax,4),%eax
 8052e33:	8b 14 82             	mov    (%edx,%eax,4),%edx
 8052e36:	a0 eb e6 1f 08       	mov    0x81fe6eb,%al
 8052e3b:	8b 04 85 80 78 05 08 	mov    0x8057880(,%eax,4),%eax
 8052e42:	8b 14 82             	mov    (%edx,%eax,4),%edx
 8052e45:	8b 12                	mov    (%edx),%edx
 8052e47:	88 15 e8 e7 1f 08    	mov    %dl,0x81fe7e8
 8052e4d:	c7 05 70 e8 5f 08 83 	movl   $0xcc000383,0x85fe870
 8052e54:	03 00 cc 
 8052e57:	a1 e0 e7 1f 08       	mov    0x81fe7e0,%eax
 8052e5c:	8b 04 85 00 5a 05 08 	mov    0x8055a00(,%eax,4),%eax
 8052e63:	a3 d0 e6 1f 08       	mov    %eax,0x81fe6d0
 8052e68:	c7 05 70 e8 5f 08 84 	movl   $0xcc000384,0x85fe870
 8052e6f:	03 00 cc 
 8052e72:	a1 d0 e6 1f 08       	mov    0x81fe6d0,%eax
 8052e77:	8b 15 48 e8 3f 08    	mov    0x83fe848,%edx
 8052e7d:	8b 04 85 90 57 05 08 	mov    0x8055790(,%eax,4),%eax
 8052e84:	8b 04 90             	mov    (%eax,%edx,4),%eax
 8052e87:	a3 d0 e6 1f 08       	mov    %eax,0x81fe6d0
 8052e8c:	c7 05 70 e8 5f 08 85 	movl   $0xcc000385,0x85fe870
 8052e93:	03 00 cc 
 8052e96:	a1 d0 e6 1f 08       	mov    0x81fe6d0,%eax
 8052e9b:	8b 04 85 50 e8 3f 08 	mov    0x83fe850(,%eax,4),%eax
 8052ea2:	8b 15 f0 e7 1f 08    	mov    0x81fe7f0,%edx
 8052ea8:	89 10                	mov    %edx,(%eax)
 8052eaa:	c7 05 70 e8 5f 08 86 	movl   $0xcc000386,0x85fe870
 8052eb1:	03 00 cc 
 8052eb4:	8b 0d d0 e6 1f 08    	mov    0x81fe6d0,%ecx
 8052eba:	c7 05 64 e8 3f 08 80 	movl   $0x85fe880,0x83fe864
 8052ec1:	e8 5f 08 
 8052ec4:	8b 04 8d 60 e8 3f 08 	mov    0x83fe860(,%ecx,4),%eax
 8052ecb:	8b 15 40 57 05 08    	mov    0x8055740,%edx
 8052ed1:	89 10                	mov    %edx,(%eax)
 8052ed3:	8b 15 44 57 05 08    	mov    0x8055744,%edx
 8052ed9:	89 50 04             	mov    %edx,0x4(%eax)
 8052edc:	8b 15 48 57 05 08    	mov    0x8055748,%edx
 8052ee2:	89 50 08             	mov    %edx,0x8(%eax)
 8052ee5:	8b 15 4c 57 05 08    	mov    0x805574c,%edx
 8052eeb:	89 50 0c             	mov    %edx,0xc(%eax)
 8052eee:	c7 05 64 e8 3f 08 90 	movl   $0x85fe890,0x83fe864
 8052ef5:	e8 5f 08 
 8052ef8:	8b 04 8d 60 e8 3f 08 	mov    0x83fe860(,%ecx,4),%eax
 8052eff:	8b 15 50 57 05 08    	mov    0x8055750,%edx
 8052f05:	89 10                	mov    %edx,(%eax)
 8052f07:	8b 15 54 57 05 08    	mov    0x8055754,%edx
 8052f0d:	89 50 04             	mov    %edx,0x4(%eax)
 8052f10:	c7 05 64 e8 3f 08 98 	movl   $0x85fe898,0x83fe864
 8052f17:	e8 5f 08 
 8052f1a:	8b 04 8d 60 e8 3f 08 	mov    0x83fe860(,%ecx,4),%eax
 8052f21:	8b 15 60 57 05 08    	mov    0x8055760,%edx
 8052f27:	89 10                	mov    %edx,(%eax)
 8052f29:	8b 15 64 57 05 08    	mov    0x8055764,%edx
 8052f2f:	89 50 04             	mov    %edx,0x4(%eax)
 8052f32:	8b 15 68 57 05 08    	mov    0x8055768,%edx
 8052f38:	89 50 08             	mov    %edx,0x8(%eax)
 8052f3b:	8b 15 6c 57 05 08    	mov    0x805576c,%edx
 8052f41:	89 50 0c             	mov    %edx,0xc(%eax)
 8052f44:	c7 05 70 e8 5f 08 87 	movl   $0xcc000387,0x85fe870
 8052f4b:	03 00 cc 
 8052f4e:	a1 d0 e6 1f 08       	mov    0x81fe6d0,%eax
 8052f53:	8b 04 85 40 e8 3f 08 	mov    0x83fe840(,%eax,4),%eax
 8052f5a:	c7 00 00 00 00 00    	movl   $0x0,(%eax)
 8052f60:	c7 05 70 e8 5f 08 88 	movl   $0xcc000388,0x85fe870
 8052f67:	03 00 cc 
 8052f6a:	a1 24 e8 3f 08       	mov    0x83fe824,%eax
 8052f6f:	8b 80 98 ff df ff    	mov    -0x200068(%eax),%eax
 8052f75:	8b 80 98 ff df ff    	mov    -0x200068(%eax),%eax
 8052f7b:	8b 80 98 ff df ff    	mov    -0x200068(%eax),%eax
 8052f81:	8b 80 98 ff df ff    	mov    -0x200068(%eax),%eax
 8052f87:	8b 80 98 ff df ff    	mov    -0x200068(%eax),%eax
 8052f8d:	8b 80 98 ff df ff    	mov    -0x200068(%eax),%eax
 8052f93:	8b 80 98 ff df ff    	mov    -0x200068(%eax),%eax
 8052f99:	8b 80 98 ff df ff    	mov    -0x200068(%eax),%eax
 8052f9f:	8b 80 98 ff df ff    	mov    -0x200068(%eax),%eax
 8052fa5:	8b 80 98 ff df ff    	mov    -0x200068(%eax),%eax
 8052fab:	8b 80 98 ff df ff    	mov    -0x200068(%eax),%eax
 8052fb1:	8b 80 98 ff df ff    	mov    -0x200068(%eax),%eax
 8052fb7:	8b 80 98 ff df ff    	mov    -0x200068(%eax),%eax
 8052fbd:	8b 80 98 ff df ff    	mov    -0x200068(%eax),%eax
 8052fc3:	8b 80 98 ff df ff    	mov    -0x200068(%eax),%eax
 8052fc9:	8b 80 98 ff df ff    	mov    -0x200068(%eax),%eax
 8052fcf:	8b 80 98 ff df ff    	mov    -0x200068(%eax),%eax
 8052fd5:	8b 80 98 ff df ff    	mov    -0x200068(%eax),%eax
 8052fdb:	8b 80 98 ff df ff    	mov    -0x200068(%eax),%eax
 8052fe1:	8b 80 98 ff df ff    	mov    -0x200068(%eax),%eax
 8052fe7:	8b 80 98 ff df ff    	mov    -0x200068(%eax),%eax
 8052fed:	8b 80 98 ff df ff    	mov    -0x200068(%eax),%eax
 8052ff3:	8b 80 98 ff df ff    	mov    -0x200068(%eax),%eax
 8052ff9:	8b 80 98 ff df ff    	mov    -0x200068(%eax),%eax
 8052fff:	8b 80 98 ff df ff    	mov    -0x200068(%eax),%eax
 8053005:	8b 80 98 ff df ff    	mov    -0x200068(%eax),%eax
 805300b:	8b 80 98 ff df ff    	mov    -0x200068(%eax),%eax
 8053011:	8b 80 98 ff df ff    	mov    -0x200068(%eax),%eax
 8053017:	8b 80 98 ff df ff    	mov    -0x200068(%eax),%eax
 805301d:	8b 80 98 ff df ff    	mov    -0x200068(%eax),%eax
 8053023:	8b 80 98 ff df ff    	mov    -0x200068(%eax),%eax
 8053029:	8b 80 98 ff df ff    	mov    -0x200068(%eax),%eax
 805302f:	a3 4c 57 05 08       	mov    %eax,0x805574c
 8053034:	c7 05 70 e8 5f 08 89 	movl   $0xcc000389,0x85fe870
 805303b:	03 00 cc 
 805303e:	a1 4c 57 05 08       	mov    0x805574c,%eax
 8053043:	c7 05 70 e8 5f 08 8a 	movl   $0xcc00038a,0x85fe870
 805304a:	03 00 cc 
 805304d:	89 c0                	mov    %eax,%eax
 805304f:	a3 00 e8 1f 08       	mov    %eax,0x81fe800
 8053054:	b8 20 e8 3f 08       	mov    $0x83fe820,%eax
 8053059:	8b 15 48 e8 3f 08    	mov    0x83fe848,%edx
 805305f:	c7 05 70 e8 5f 08 8b 	movl   $0xcc00038b,0x85fe870
 8053066:	03 00 cc 
 8053069:	a3 64 e8 3f 08       	mov    %eax,0x83fe864
 805306e:	8b 04 95 60 e8 3f 08 	mov    0x83fe860(,%edx,4),%eax
 8053075:	8b 15 20 e8 3f 08    	mov    0x83fe820,%edx
 805307b:	8b 92 98 ff df ff    	mov    -0x200068(%edx),%edx
 8053081:	89 10                	mov    %edx,(%eax)
 8053083:	a1 20 e8 3f 08       	mov    0x83fe820,%eax
 8053088:	8b 15 48 e8 3f 08    	mov    0x83fe848,%edx
 805308e:	c7 05 70 e8 5f 08 8c 	movl   $0xcc00038c,0x85fe870
 8053095:	03 00 cc 
 8053098:	a3 64 e8 3f 08       	mov    %eax,0x83fe864
 805309d:	8b 04 95 60 e8 3f 08 	mov    0x83fe860(,%edx,4),%eax
 80530a4:	8b 15 00 e8 1f 08    	mov    0x81fe800,%edx
 80530aa:	89 10                	mov    %edx,(%eax)
 80530ac:	c7 05 70 e8 5f 08 8d 	movl   $0xcc00038d,0x85fe870
 80530b3:	03 00 cc 
 80530b6:	c7 05 70 e8 5f 08 8e 	movl   $0xcc00038e,0x85fe870
 80530bd:	03 00 cc 
 80530c0:	b8 fb 31 05 88       	mov    $0x880531fb,%eax
 80530c5:	c7 05 70 e8 5f 08 8f 	movl   $0xcc00038f,0x85fe870
 80530cc:	03 00 cc 
 80530cf:	a3 e0 e6 1f 08       	mov    %eax,0x81fe6e0
 80530d4:	c7 05 e4 e6 1f 08 00 	movl   $0x80000000,0x81fe6e4
 80530db:	00 00 80 
 80530de:	c7 05 70 e8 5f 08 90 	movl   $0xcc000390,0x85fe870
 80530e5:	03 00 cc 
 80530e8:	b8 00 00 00 00       	mov    $0x0,%eax
 80530ed:	b9 00 00 00 00       	mov    $0x0,%ecx
 80530f2:	c7 05 f0 e6 1f 08 00 	movl   $0x0,0x81fe6f0
 80530f9:	00 00 00 
 80530fc:	c7 05 70 e8 5f 08 91 	movl   $0xcc000391,0x85fe870
 8053103:	03 00 cc 
 8053106:	66 a1 e0 e6 1f 08    	mov    0x81fe6e0,%ax
 805310c:	66 8b 0d e4 e6 1f 08 	mov    0x81fe6e4,%cx
 8053113:	8b 14 85 20 96 06 08 	mov    0x8069620(,%eax,4),%edx
 805311a:	8b 14 8a             	mov    (%edx,%ecx,4),%edx
 805311d:	66 8b 0d f2 e6 1f 08 	mov    0x81fe6f2,%cx
 8053124:	8b 14 95 20 96 06 08 	mov    0x8069620(,%edx,4),%edx
 805312b:	8b 14 8a             	mov    (%edx,%ecx,4),%edx
 805312e:	66 89 15 e8 e6 1f 08 	mov    %dx,0x81fe6e8
 8053135:	89 15 f0 e6 1f 08    	mov    %edx,0x81fe6f0
 805313b:	c7 05 70 e8 5f 08 92 	movl   $0xcc000392,0x85fe870
 8053142:	03 00 cc 
 8053145:	66 a1 e2 e6 1f 08    	mov    0x81fe6e2,%ax
 805314b:	66 8b 0d e6 e6 1f 08 	mov    0x81fe6e6,%cx
 8053152:	8b 14 85 20 96 06 08 	mov    0x8069620(,%eax,4),%edx
 8053159:	8b 14 8a             	mov    (%edx,%ecx,4),%edx
 805315c:	66 8b 0d f2 e6 1f 08 	mov    0x81fe6f2,%cx
 8053163:	8b 14 95 20 96 06 08 	mov    0x8069620(,%edx,4),%edx
 805316a:	8b 14 8a             	mov    (%edx,%ecx,4),%edx
 805316d:	66 89 15 ea e6 1f 08 	mov    %dx,0x81fe6ea
 8053174:	89 15 f0 e6 1f 08    	mov    %edx,0x81fe6f0
 805317a:	a1 e8 e6 1f 08       	mov    0x81fe6e8,%eax
 805317f:	c7 05 70 e8 5f 08 93 	movl   $0xcc000393,0x85fe870
 8053186:	03 00 cc 
 8053189:	89 c0                	mov    %eax,%eax
 805318b:	a3 00 e8 1f 08       	mov    %eax,0x81fe800
 8053190:	b8 20 e8 3f 08       	mov    $0x83fe820,%eax
 8053195:	8b 15 48 e8 3f 08    	mov    0x83fe848,%edx
 805319b:	c7 05 70 e8 5f 08 94 	movl   $0xcc000394,0x85fe870
 80531a2:	03 00 cc 
 80531a5:	a3 64 e8 3f 08       	mov    %eax,0x83fe864
 80531aa:	8b 04 95 60 e8 3f 08 	mov    0x83fe860(,%edx,4),%eax
 80531b1:	8b 15 20 e8 3f 08    	mov    0x83fe820,%edx
 80531b7:	8b 92 98 ff df ff    	mov    -0x200068(%edx),%edx
 80531bd:	89 10                	mov    %edx,(%eax)
 80531bf:	a1 20 e8 3f 08       	mov    0x83fe820,%eax
 80531c4:	8b 15 48 e8 3f 08    	mov    0x83fe848,%edx
 80531ca:	c7 05 70 e8 5f 08 95 	movl   $0xcc000395,0x85fe870
 80531d1:	03 00 cc 
 80531d4:	a3 64 e8 3f 08       	mov    %eax,0x83fe864
 80531d9:	8b 04 95 60 e8 3f 08 	mov    0x83fe860(,%edx,4),%eax
 80531e0:	8b 15 00 e8 1f 08    	mov    0x81fe800,%edx
 80531e6:	89 10                	mov    %edx,(%eax)
 80531e8:	8b 25 20 e8 3f 08    	mov    0x83fe820,%esp
 80531ee:	83 3d 48 e8 3f 08 01 	cmpl   $0x1,0x83fe848
 80531f5:	0f 84 b5 50 ff ff    	je     80482b0 <strlen@plt>
 80531fb:	a3 40 57 05 08       	mov    %eax,0x8055740
 8053200:	c7 05 70 e8 5f 08 96 	movl   $0xcc000396,0x85fe870
 8053207:	03 00 cc 
 805320a:	a1 20 e8 3f 08       	mov    0x83fe820,%eax
 805320f:	8b 10                	mov    (%eax),%edx
 8053211:	89 15 00 e8 1f 08    	mov    %edx,0x81fe800
 8053217:	b8 20 e8 3f 08       	mov    $0x83fe820,%eax
 805321c:	8b 15 48 e8 3f 08    	mov    0x83fe848,%edx
 8053222:	c7 05 70 e8 5f 08 97 	movl   $0xcc000397,0x85fe870
 8053229:	03 00 cc 
 805322c:	a3 64 e8 3f 08       	mov    %eax,0x83fe864
 8053231:	8b 04 95 60 e8 3f 08 	mov    0x83fe860(,%edx,4),%eax
 8053238:	8b 15 20 e8 3f 08    	mov    0x83fe820,%edx
 805323e:	8b 92 a0 ff df ff    	mov    -0x200060(%edx),%edx
 8053244:	89 10                	mov    %edx,(%eax)
 8053246:	8b 15 00 e8 1f 08    	mov    0x81fe800,%edx
 805324c:	89 d0                	mov    %edx,%eax
 805324e:	a1 20 e8 3f 08       	mov    0x83fe820,%eax
 8053253:	8b 80 a0 ff df ff    	mov    -0x200060(%eax),%eax
 8053259:	a3 00 e8 1f 08       	mov    %eax,0x81fe800
 805325e:	b8 20 e8 3f 08       	mov    $0x83fe820,%eax
 8053263:	8b 15 48 e8 3f 08    	mov    0x83fe848,%edx
 8053269:	c7 05 70 e8 5f 08 98 	movl   $0xcc000398,0x85fe870
 8053270:	03 00 cc 
 8053273:	a3 64 e8 3f 08       	mov    %eax,0x83fe864
 8053278:	8b 04 95 60 e8 3f 08 	mov    0x83fe860(,%edx,4),%eax
 805327f:	8b 15 00 e8 1f 08    	mov    0x81fe800,%edx
 8053285:	89 10                	mov    %edx,(%eax)
 8053287:	c7 05 70 e8 5f 08 99 	movl   $0xcc000399,0x85fe870
 805328e:	03 00 cc 
 8053291:	a1 40 57 05 08       	mov    0x8055740,%eax
 8053296:	a3 4c 57 05 08       	mov    %eax,0x805574c
 805329b:	c7 05 70 e8 5f 08 9a 	movl   $0xcc00039a,0x85fe870
 80532a2:	03 00 cc 
 80532a5:	c7 05 48 57 05 08 1c 	movl   $0x1c,0x8055748
 80532ac:	00 00 00 
 80532af:	c7 05 70 e8 5f 08 9b 	movl   $0xcc00039b,0x85fe870
 80532b6:	03 00 cc 
 80532b9:	a1 4c 57 05 08       	mov    0x805574c,%eax
 80532be:	8b 15 48 57 05 08    	mov    0x8055748,%edx
 80532c4:	b9 c7 38 05 88       	mov    $0x880538c7,%ecx
 80532c9:	c7 05 70 e8 5f 08 9c 	movl   $0xcc00039c,0x85fe870
 80532d0:	03 00 cc 
 80532d3:	89 0d f0 e7 1f 08    	mov    %ecx,0x81fe7f0
 80532d9:	c7 05 70 e8 5f 08 9d 	movl   $0xcc00039d,0x85fe870
 80532e0:	03 00 cc 
 80532e3:	a3 e0 e6 1f 08       	mov    %eax,0x81fe6e0
 80532e8:	89 15 e4 e6 1f 08    	mov    %edx,0x81fe6e4
 80532ee:	89 15 80 e7 1f 08    	mov    %edx,0x81fe780
 80532f4:	c7 05 70 e8 5f 08 9e 	movl   $0xcc00039e,0x85fe870
 80532fb:	03 00 cc 
 80532fe:	b8 00 00 00 00       	mov    $0x0,%eax
 8053303:	b9 00 00 00 00       	mov    $0x0,%ecx
 8053308:	c7 05 f0 e6 1f 08 01 	movl   $0x1,0x81fe6f0
 805330f:	00 00 00 
 8053312:	c7 05 70 e8 5f 08 9f 	movl   $0xcc00039f,0x85fe870
 8053319:	03 00 cc 
 805331c:	66 a1 e0 e6 1f 08    	mov    0x81fe6e0,%ax
 8053322:	66 8b 0d e4 e6 1f 08 	mov    0x81fe6e4,%cx
 8053329:	66 8b 0c 4d 40 97 16 	mov    0x8169740(,%ecx,2),%cx
 8053330:	08 
 8053331:	8b 14 85 20 96 06 08 	mov    0x8069620(,%eax,4),%edx
 8053338:	8b 14 8a             	mov    (%edx,%ecx,4),%edx
 805333b:	8b 14 95 20 96 06 08 	mov    0x8069620(,%edx,4),%edx
 8053342:	8b 0d f0 e6 1f 08    	mov    0x81fe6f0,%ecx
 8053348:	8b 14 8a             	mov    (%edx,%ecx,4),%edx
 805334b:	66 89 15 e8 e6 1f 08 	mov    %dx,0x81fe6e8
 8053352:	89 15 ee e6 1f 08    	mov    %edx,0x81fe6ee
 8053358:	c7 05 70 e8 5f 08 a0 	movl   $0xcc0003a0,0x85fe870
 805335f:	03 00 cc 
 8053362:	66 a1 e2 e6 1f 08    	mov    0x81fe6e2,%ax
 8053368:	66 8b 0d e6 e6 1f 08 	mov    0x81fe6e6,%cx
 805336f:	66 8b 0c 4d 40 97 16 	mov    0x8169740(,%ecx,2),%cx
 8053376:	08 
 8053377:	8b 14 85 20 96 06 08 	mov    0x8069620(,%eax,4),%edx
 805337e:	8b 14 8a             	mov    (%edx,%ecx,4),%edx
 8053381:	8b 14 95 20 96 06 08 	mov    0x8069620(,%edx,4),%edx
 8053388:	8b 0d f0 e6 1f 08    	mov    0x81fe6f0,%ecx
 805338e:	8b 14 8a             	mov    (%edx,%ecx,4),%edx
 8053391:	66 89 15 ea e6 1f 08 	mov    %dx,0x81fe6ea
 8053398:	89 15 ee e6 1f 08    	mov    %edx,0x81fe6ee
 805339e:	a1 80 e7 1f 08       	mov    0x81fe780,%eax
 80533a3:	a3 e4 e6 1f 08       	mov    %eax,0x81fe6e4
 80533a8:	b8 00 00 00 00       	mov    $0x0,%eax
 80533ad:	a0 f0 e6 1f 08       	mov    0x81fe6f0,%al
 80533b2:	8a 80 00 5a 05 08    	mov    0x8055a00(%eax),%al
 80533b8:	a2 ec e7 1f 08       	mov    %al,0x81fe7ec
 80533bd:	a0 eb e6 1f 08       	mov    0x81fe6eb,%al
 80533c2:	8b 04 85 80 78 05 08 	mov    0x8057880(,%eax,4),%eax
 80533c9:	a2 e4 e7 1f 08       	mov    %al,0x81fe7e4
 80533ce:	b8 00 00 00 00       	mov    $0x0,%eax
 80533d3:	ba 00 00 00 00       	mov    $0x0,%edx
 80533d8:	8a 15 e8 e6 1f 08    	mov    0x81fe6e8,%dl
 80533de:	8a 84 02 f0 57 05 08 	mov    0x80557f0(%edx,%eax,1),%al
 80533e5:	8a 15 e9 e6 1f 08    	mov    0x81fe6e9,%dl
 80533eb:	8a 84 02 f0 57 05 08 	mov    0x80557f0(%edx,%eax,1),%al
 80533f2:	8a 15 ea e6 1f 08    	mov    0x81fe6ea,%dl
 80533f8:	8a 84 02 f0 57 05 08 	mov    0x80557f0(%edx,%eax,1),%al
 80533ff:	8a 15 eb e6 1f 08    	mov    0x81fe6eb,%dl
 8053405:	8a 84 02 f0 57 05 08 	mov    0x80557f0(%edx,%eax,1),%al
 805340c:	8a 80 00 5a 05 08    	mov    0x8055a00(%eax),%al
 8053412:	a2 e0 e7 1f 08       	mov    %al,0x81fe7e0
 8053417:	ba 70 e6 1f 08       	mov    $0x81fe670,%edx
 805341c:	a0 e3 e6 1f 08       	mov    0x81fe6e3,%al
 8053421:	8b 04 85 80 78 05 08 	mov    0x8057880(,%eax,4),%eax
 8053428:	8b 14 82             	mov    (%edx,%eax,4),%edx
 805342b:	a0 e7 e6 1f 08       	mov    0x81fe6e7,%al
 8053430:	8b 04 85 80 78 05 08 	mov    0x8057880(,%eax,4),%eax
 8053437:	8b 14 82             	mov    (%edx,%eax,4),%edx
 805343a:	a0 eb e6 1f 08       	mov    0x81fe6eb,%al
 805343f:	8b 04 85 80 78 05 08 	mov    0x8057880(,%eax,4),%eax
 8053446:	8b 14 82             	mov    (%edx,%eax,4),%edx
 8053449:	8b 12                	mov    (%edx),%edx
 805344b:	88 15 e8 e7 1f 08    	mov    %dl,0x81fe7e8
 8053451:	c7 05 70 e8 5f 08 a1 	movl   $0xcc0003a1,0x85fe870
 8053458:	03 00 cc 
 805345b:	a1 e0 e7 1f 08       	mov    0x81fe7e0,%eax
 8053460:	8b 04 85 00 5a 05 08 	mov    0x8055a00(,%eax,4),%eax
 8053467:	a3 d0 e6 1f 08       	mov    %eax,0x81fe6d0
 805346c:	c7 05 70 e8 5f 08 a2 	movl   $0xcc0003a2,0x85fe870
 8053473:	03 00 cc 
 8053476:	a1 d0 e6 1f 08       	mov    0x81fe6d0,%eax
 805347b:	8b 15 48 e8 3f 08    	mov    0x83fe848,%edx
 8053481:	8b 04 85 90 57 05 08 	mov    0x8055790(,%eax,4),%eax
 8053488:	8b 04 90             	mov    (%eax,%edx,4),%eax
 805348b:	a3 d0 e6 1f 08       	mov    %eax,0x81fe6d0
 8053490:	c7 05 70 e8 5f 08 a3 	movl   $0xcc0003a3,0x85fe870
 8053497:	03 00 cc 
 805349a:	a1 d0 e6 1f 08       	mov    0x81fe6d0,%eax
 805349f:	8b 04 85 50 e8 3f 08 	mov    0x83fe850(,%eax,4),%eax
 80534a6:	8b 15 f0 e7 1f 08    	mov    0x81fe7f0,%edx
 80534ac:	89 10                	mov    %edx,(%eax)
 80534ae:	c7 05 70 e8 5f 08 a4 	movl   $0xcc0003a4,0x85fe870
 80534b5:	03 00 cc 
 80534b8:	8b 0d d0 e6 1f 08    	mov    0x81fe6d0,%ecx
 80534be:	c7 05 64 e8 3f 08 80 	movl   $0x85fe880,0x83fe864
 80534c5:	e8 5f 08 
 80534c8:	8b 04 8d 60 e8 3f 08 	mov    0x83fe860(,%ecx,4),%eax
 80534cf:	8b 15 40 57 05 08    	mov    0x8055740,%edx
 80534d5:	89 10                	mov    %edx,(%eax)
 80534d7:	8b 15 44 57 05 08    	mov    0x8055744,%edx
 80534dd:	89 50 04             	mov    %edx,0x4(%eax)
 80534e0:	8b 15 48 57 05 08    	mov    0x8055748,%edx
 80534e6:	89 50 08             	mov    %edx,0x8(%eax)
 80534e9:	8b 15 4c 57 05 08    	mov    0x805574c,%edx
 80534ef:	89 50 0c             	mov    %edx,0xc(%eax)
 80534f2:	c7 05 64 e8 3f 08 90 	movl   $0x85fe890,0x83fe864
 80534f9:	e8 5f 08 
 80534fc:	8b 04 8d 60 e8 3f 08 	mov    0x83fe860(,%ecx,4),%eax
 8053503:	8b 15 50 57 05 08    	mov    0x8055750,%edx
 8053509:	89 10                	mov    %edx,(%eax)
 805350b:	8b 15 54 57 05 08    	mov    0x8055754,%edx
 8053511:	89 50 04             	mov    %edx,0x4(%eax)
 8053514:	c7 05 64 e8 3f 08 98 	movl   $0x85fe898,0x83fe864
 805351b:	e8 5f 08 
 805351e:	8b 04 8d 60 e8 3f 08 	mov    0x83fe860(,%ecx,4),%eax
 8053525:	8b 15 60 57 05 08    	mov    0x8055760,%edx
 805352b:	89 10                	mov    %edx,(%eax)
 805352d:	8b 15 64 57 05 08    	mov    0x8055764,%edx
 8053533:	89 50 04             	mov    %edx,0x4(%eax)
 8053536:	8b 15 68 57 05 08    	mov    0x8055768,%edx
 805353c:	89 50 08             	mov    %edx,0x8(%eax)
 805353f:	8b 15 6c 57 05 08    	mov    0x805576c,%edx
 8053545:	89 50 0c             	mov    %edx,0xc(%eax)
 8053548:	c7 05 70 e8 5f 08 a5 	movl   $0xcc0003a5,0x85fe870
 805354f:	03 00 cc 
 8053552:	a1 d0 e6 1f 08       	mov    0x81fe6d0,%eax
 8053557:	8b 04 85 40 e8 3f 08 	mov    0x83fe840(,%eax,4),%eax
 805355e:	c7 00 00 00 00 00    	movl   $0x0,(%eax)
 8053564:	c7 05 70 e8 5f 08 a6 	movl   $0xcc0003a6,0x85fe870
 805356b:	03 00 cc 
 805356e:	b8 23 57 05 08       	mov    $0x8055723,%eax
 8053573:	a3 4c 57 05 08       	mov    %eax,0x805574c
 8053578:	c7 05 70 e8 5f 08 a7 	movl   $0xcc0003a7,0x85fe870
 805357f:	03 00 cc 
 8053582:	a1 4c 57 05 08       	mov    0x805574c,%eax
 8053587:	c7 05 70 e8 5f 08 a8 	movl   $0xcc0003a8,0x85fe870
 805358e:	03 00 cc 
 8053591:	89 c0                	mov    %eax,%eax
 8053593:	a3 00 e8 1f 08       	mov    %eax,0x81fe800
 8053598:	b8 20 e8 3f 08       	mov    $0x83fe820,%eax
 805359d:	8b 15 48 e8 3f 08    	mov    0x83fe848,%edx
 80535a3:	c7 05 70 e8 5f 08 a9 	movl   $0xcc0003a9,0x85fe870
 80535aa:	03 00 cc 
 80535ad:	a3 64 e8 3f 08       	mov    %eax,0x83fe864
 80535b2:	8b 04 95 60 e8 3f 08 	mov    0x83fe860(,%edx,4),%eax
 80535b9:	8b 15 20 e8 3f 08    	mov    0x83fe820,%edx
 80535bf:	8b 92 98 ff df ff    	mov    -0x200068(%edx),%edx
 80535c5:	89 10                	mov    %edx,(%eax)
 80535c7:	a1 20 e8 3f 08       	mov    0x83fe820,%eax
 80535cc:	8b 15 48 e8 3f 08    	mov    0x83fe848,%edx
 80535d2:	c7 05 70 e8 5f 08 aa 	movl   $0xcc0003aa,0x85fe870
 80535d9:	03 00 cc 
 80535dc:	a3 64 e8 3f 08       	mov    %eax,0x83fe864
 80535e1:	8b 04 95 60 e8 3f 08 	mov    0x83fe860(,%edx,4),%eax
 80535e8:	8b 15 00 e8 1f 08    	mov    0x81fe800,%edx
 80535ee:	89 10                	mov    %edx,(%eax)
 80535f0:	c7 05 70 e8 5f 08 ab 	movl   $0xcc0003ab,0x85fe870
 80535f7:	03 00 cc 
 80535fa:	c7 05 70 e8 5f 08 ac 	movl   $0xcc0003ac,0x85fe870
 8053601:	03 00 cc 
 8053604:	b8 3f 37 05 88       	mov    $0x8805373f,%eax
 8053609:	c7 05 70 e8 5f 08 ad 	movl   $0xcc0003ad,0x85fe870
 8053610:	03 00 cc 
 8053613:	a3 e0 e6 1f 08       	mov    %eax,0x81fe6e0
 8053618:	c7 05 e4 e6 1f 08 00 	movl   $0x80000000,0x81fe6e4
 805361f:	00 00 80 
 8053622:	c7 05 70 e8 5f 08 ae 	movl   $0xcc0003ae,0x85fe870
 8053629:	03 00 cc 
 805362c:	b8 00 00 00 00       	mov    $0x0,%eax
 8053631:	b9 00 00 00 00       	mov    $0x0,%ecx
 8053636:	c7 05 f0 e6 1f 08 00 	movl   $0x0,0x81fe6f0
 805363d:	00 00 00 
 8053640:	c7 05 70 e8 5f 08 af 	movl   $0xcc0003af,0x85fe870
 8053647:	03 00 cc 
 805364a:	66 a1 e0 e6 1f 08    	mov    0x81fe6e0,%ax
 8053650:	66 8b 0d e4 e6 1f 08 	mov    0x81fe6e4,%cx
 8053657:	8b 14 85 20 96 06 08 	mov    0x8069620(,%eax,4),%edx
 805365e:	8b 14 8a             	mov    (%edx,%ecx,4),%edx
 8053661:	66 8b 0d f2 e6 1f 08 	mov    0x81fe6f2,%cx
 8053668:	8b 14 95 20 96 06 08 	mov    0x8069620(,%edx,4),%edx
 805366f:	8b 14 8a             	mov    (%edx,%ecx,4),%edx
 8053672:	66 89 15 e8 e6 1f 08 	mov    %dx,0x81fe6e8
 8053679:	89 15 f0 e6 1f 08    	mov    %edx,0x81fe6f0
 805367f:	c7 05 70 e8 5f 08 b0 	movl   $0xcc0003b0,0x85fe870
 8053686:	03 00 cc 
 8053689:	66 a1 e2 e6 1f 08    	mov    0x81fe6e2,%ax
 805368f:	66 8b 0d e6 e6 1f 08 	mov    0x81fe6e6,%cx
 8053696:	8b 14 85 20 96 06 08 	mov    0x8069620(,%eax,4),%edx
 805369d:	8b 14 8a             	mov    (%edx,%ecx,4),%edx
 80536a0:	66 8b 0d f2 e6 1f 08 	mov    0x81fe6f2,%cx
 80536a7:	8b 14 95 20 96 06 08 	mov    0x8069620(,%edx,4),%edx
 80536ae:	8b 14 8a             	mov    (%edx,%ecx,4),%edx
 80536b1:	66 89 15 ea e6 1f 08 	mov    %dx,0x81fe6ea
 80536b8:	89 15 f0 e6 1f 08    	mov    %edx,0x81fe6f0
 80536be:	a1 e8 e6 1f 08       	mov    0x81fe6e8,%eax
 80536c3:	c7 05 70 e8 5f 08 b1 	movl   $0xcc0003b1,0x85fe870
 80536ca:	03 00 cc 
 80536cd:	89 c0                	mov    %eax,%eax
 80536cf:	a3 00 e8 1f 08       	mov    %eax,0x81fe800
 80536d4:	b8 20 e8 3f 08       	mov    $0x83fe820,%eax
 80536d9:	8b 15 48 e8 3f 08    	mov    0x83fe848,%edx
 80536df:	c7 05 70 e8 5f 08 b2 	movl   $0xcc0003b2,0x85fe870
 80536e6:	03 00 cc 
 80536e9:	a3 64 e8 3f 08       	mov    %eax,0x83fe864
 80536ee:	8b 04 95 60 e8 3f 08 	mov    0x83fe860(,%edx,4),%eax
 80536f5:	8b 15 20 e8 3f 08    	mov    0x83fe820,%edx
 80536fb:	8b 92 98 ff df ff    	mov    -0x200068(%edx),%edx
 8053701:	89 10                	mov    %edx,(%eax)
 8053703:	a1 20 e8 3f 08       	mov    0x83fe820,%eax
 8053708:	8b 15 48 e8 3f 08    	mov    0x83fe848,%edx
 805370e:	c7 05 70 e8 5f 08 b3 	movl   $0xcc0003b3,0x85fe870
 8053715:	03 00 cc 
 8053718:	a3 64 e8 3f 08       	mov    %eax,0x83fe864
 805371d:	8b 04 95 60 e8 3f 08 	mov    0x83fe860(,%edx,4),%eax
 8053724:	8b 15 00 e8 1f 08    	mov    0x81fe800,%edx
 805372a:	89 10                	mov    %edx,(%eax)
 805372c:	8b 25 20 e8 3f 08    	mov    0x83fe820,%esp
 8053732:	83 3d 48 e8 3f 08 01 	cmpl   $0x1,0x83fe848
 8053739:	0f 84 51 4b ff ff    	je     8048290 <puts@plt>
 805373f:	a3 40 57 05 08       	mov    %eax,0x8055740
 8053744:	c7 05 70 e8 5f 08 b4 	movl   $0xcc0003b4,0x85fe870
 805374b:	03 00 cc 
 805374e:	a1 20 e8 3f 08       	mov    0x83fe820,%eax
 8053753:	8b 10                	mov    (%eax),%edx
 8053755:	89 15 00 e8 1f 08    	mov    %edx,0x81fe800
 805375b:	b8 20 e8 3f 08       	mov    $0x83fe820,%eax
 8053760:	8b 15 48 e8 3f 08    	mov    0x83fe848,%edx
 8053766:	c7 05 70 e8 5f 08 b5 	movl   $0xcc0003b5,0x85fe870
 805376d:	03 00 cc 
 8053770:	a3 64 e8 3f 08       	mov    %eax,0x83fe864
 8053775:	8b 04 95 60 e8 3f 08 	mov    0x83fe860(,%edx,4),%eax
 805377c:	8b 15 20 e8 3f 08    	mov    0x83fe820,%edx
 8053782:	8b 92 a0 ff df ff    	mov    -0x200060(%edx),%edx
 8053788:	89 10                	mov    %edx,(%eax)
 805378a:	8b 15 00 e8 1f 08    	mov    0x81fe800,%edx
 8053790:	89 d0                	mov    %edx,%eax
 8053792:	a1 20 e8 3f 08       	mov    0x83fe820,%eax
 8053797:	8b 80 a0 ff df ff    	mov    -0x200060(%eax),%eax
 805379d:	a3 00 e8 1f 08       	mov    %eax,0x81fe800
 80537a2:	b8 20 e8 3f 08       	mov    $0x83fe820,%eax
 80537a7:	8b 15 48 e8 3f 08    	mov    0x83fe848,%edx
 80537ad:	c7 05 70 e8 5f 08 b6 	movl   $0xcc0003b6,0x85fe870
 80537b4:	03 00 cc 
 80537b7:	a3 64 e8 3f 08       	mov    %eax,0x83fe864
 80537bc:	8b 04 95 60 e8 3f 08 	mov    0x83fe860(,%edx,4),%eax
 80537c3:	8b 15 00 e8 1f 08    	mov    0x81fe800,%edx
 80537c9:	89 10                	mov    %edx,(%eax)
 80537cb:	c7 05 70 e8 5f 08 b7 	movl   $0xcc0003b7,0x85fe870
 80537d2:	03 00 cc 
 80537d5:	b8 4e 3d 05 88       	mov    $0x88053d4e,%eax
 80537da:	c7 05 70 e8 5f 08 b8 	movl   $0xcc0003b8,0x85fe870
 80537e1:	03 00 cc 
 80537e4:	a3 f0 e7 1f 08       	mov    %eax,0x81fe7f0
 80537e9:	c7 05 70 e8 5f 08 b9 	movl   $0xcc0003b9,0x85fe870
 80537f0:	03 00 cc 
 80537f3:	a1 48 e8 3f 08       	mov    0x83fe848,%eax
 80537f8:	8b 04 85 50 e8 3f 08 	mov    0x83fe850(,%eax,4),%eax
 80537ff:	8b 15 f0 e7 1f 08    	mov    0x81fe7f0,%edx
 8053805:	89 10                	mov    %edx,(%eax)
 8053807:	c7 05 70 e8 5f 08 ba 	movl   $0xcc0003ba,0x85fe870
 805380e:	03 00 cc 
 8053811:	8b 0d 48 e8 3f 08    	mov    0x83fe848,%ecx
 8053817:	c7 05 64 e8 3f 08 80 	movl   $0x85fe880,0x83fe864
 805381e:	e8 5f 08 
 8053821:	8b 04 8d 60 e8 3f 08 	mov    0x83fe860(,%ecx,4),%eax
 8053828:	8b 15 40 57 05 08    	mov    0x8055740,%edx
 805382e:	89 10                	mov    %edx,(%eax)
 8053830:	8b 15 44 57 05 08    	mov    0x8055744,%edx
 8053836:	89 50 04             	mov    %edx,0x4(%eax)
 8053839:	8b 15 48 57 05 08    	mov    0x8055748,%edx
 805383f:	89 50 08             	mov    %edx,0x8(%eax)
 8053842:	8b 15 4c 57 05 08    	mov    0x805574c,%edx
 8053848:	89 50 0c             	mov    %edx,0xc(%eax)
 805384b:	c7 05 64 e8 3f 08 90 	movl   $0x85fe890,0x83fe864
 8053852:	e8 5f 08 
 8053855:	8b 04 8d 60 e8 3f 08 	mov    0x83fe860(,%ecx,4),%eax
 805385c:	8b 15 50 57 05 08    	mov    0x8055750,%edx
 8053862:	89 10                	mov    %edx,(%eax)
 8053864:	8b 15 54 57 05 08    	mov    0x8055754,%edx
 805386a:	89 50 04             	mov    %edx,0x4(%eax)
 805386d:	c7 05 64 e8 3f 08 98 	movl   $0x85fe898,0x83fe864
 8053874:	e8 5f 08 
 8053877:	8b 04 8d 60 e8 3f 08 	mov    0x83fe860(,%ecx,4),%eax
 805387e:	8b 15 60 57 05 08    	mov    0x8055760,%edx
 8053884:	89 10                	mov    %edx,(%eax)
 8053886:	8b 15 64 57 05 08    	mov    0x8055764,%edx
 805388c:	89 50 04             	mov    %edx,0x4(%eax)
 805388f:	8b 15 68 57 05 08    	mov    0x8055768,%edx
 8053895:	89 50 08             	mov    %edx,0x8(%eax)
 8053898:	8b 15 6c 57 05 08    	mov    0x805576c,%edx
 805389e:	89 50 0c             	mov    %edx,0xc(%eax)
 80538a1:	c7 05 70 e8 5f 08 bb 	movl   $0xcc0003bb,0x85fe870
 80538a8:	03 00 cc 
 80538ab:	a1 48 e8 3f 08       	mov    0x83fe848,%eax
 80538b0:	8b 04 85 40 e8 3f 08 	mov    0x83fe840(,%eax,4),%eax
 80538b7:	c7 00 00 00 00 00    	movl   $0x0,(%eax)
 80538bd:	c7 05 70 e8 5f 08 bc 	movl   $0xcc0003bc,0x85fe870
 80538c4:	03 00 cc 
 80538c7:	a1 58 e8 3f 08       	mov    0x83fe858,%eax
 80538cc:	ba c7 38 05 88       	mov    $0x880538c7,%edx
 80538d1:	c7 05 70 e8 5f 08 bd 	movl   $0xcc0003bd,0x85fe870
 80538d8:	03 00 cc 
 80538db:	a3 e0 e6 1f 08       	mov    %eax,0x81fe6e0
 80538e0:	89 15 e4 e6 1f 08    	mov    %edx,0x81fe6e4
 80538e6:	b8 00 00 00 00       	mov    $0x0,%eax
 80538eb:	b9 00 00 00 00       	mov    $0x0,%ecx
 80538f0:	ba 00 00 00 00       	mov    $0x0,%edx
 80538f5:	a0 e0 e6 1f 08       	mov    0x81fe6e0,%al
 80538fa:	8b 0c 85 f0 8c 05 08 	mov    0x8058cf0(,%eax,4),%ecx
 8053901:	8a 15 e4 e6 1f 08    	mov    0x81fe6e4,%dl
 8053907:	8a 14 11             	mov    (%ecx,%edx,1),%dl
 805390a:	89 15 d0 e6 1f 08    	mov    %edx,0x81fe6d0
 8053910:	a0 e1 e6 1f 08       	mov    0x81fe6e1,%al
 8053915:	8b 0c 85 f0 8c 05 08 	mov    0x8058cf0(,%eax,4),%ecx
 805391c:	8a 15 e5 e6 1f 08    	mov    0x81fe6e5,%dl
 8053922:	8a 14 11             	mov    (%ecx,%edx,1),%dl
 8053925:	89 15 d4 e6 1f 08    	mov    %edx,0x81fe6d4
 805392b:	a0 e2 e6 1f 08       	mov    0x81fe6e2,%al
 8053930:	8b 0c 85 f0 8c 05 08 	mov    0x8058cf0(,%eax,4),%ecx
 8053937:	8a 15 e6 e6 1f 08    	mov    0x81fe6e6,%dl
 805393d:	8a 14 11             	mov    (%ecx,%edx,1),%dl
 8053940:	89 15 d8 e6 1f 08    	mov    %edx,0x81fe6d8
 8053946:	a0 e3 e6 1f 08       	mov    0x81fe6e3,%al
 805394b:	8b 0c 85 f0 8c 05 08 	mov    0x8058cf0(,%eax,4),%ecx
 8053952:	8a 15 e7 e6 1f 08    	mov    0x81fe6e7,%dl
 8053958:	8a 14 11             	mov    (%ecx,%edx,1),%dl
 805395b:	89 15 dc e6 1f 08    	mov    %edx,0x81fe6dc
 8053961:	c7 05 70 e8 5f 08 be 	movl   $0xcc0003be,0x85fe870
 8053968:	03 00 cc 
 805396b:	a1 d0 e6 1f 08       	mov    0x81fe6d0,%eax
 8053970:	8b 15 d4 e6 1f 08    	mov    0x81fe6d4,%edx
 8053976:	8b 04 85 90 57 05 08 	mov    0x8055790(,%eax,4),%eax
 805397d:	8b 04 90             	mov    (%eax,%edx,4),%eax
 8053980:	a3 d0 e6 1f 08       	mov    %eax,0x81fe6d0
 8053985:	c7 05 70 e8 5f 08 bf 	movl   $0xcc0003bf,0x85fe870
 805398c:	03 00 cc 
 805398f:	a1 d0 e6 1f 08       	mov    0x81fe6d0,%eax
 8053994:	8b 15 d8 e6 1f 08    	mov    0x81fe6d8,%edx
 805399a:	8b 04 85 90 57 05 08 	mov    0x8055790(,%eax,4),%eax
 80539a1:	8b 04 90             	mov    (%eax,%edx,4),%eax
 80539a4:	a3 d0 e6 1f 08       	mov    %eax,0x81fe6d0
 80539a9:	c7 05 70 e8 5f 08 c0 	movl   $0xcc0003c0,0x85fe870
 80539b0:	03 00 cc 
 80539b3:	a1 d0 e6 1f 08       	mov    0x81fe6d0,%eax
 80539b8:	8b 15 dc e6 1f 08    	mov    0x81fe6dc,%edx
 80539be:	8b 04 85 90 57 05 08 	mov    0x8055790(,%eax,4),%eax
 80539c5:	8b 04 90             	mov    (%eax,%edx,4),%eax
 80539c8:	a3 d0 e6 1f 08       	mov    %eax,0x81fe6d0
 80539cd:	a1 d0 e6 1f 08       	mov    0x81fe6d0,%eax
 80539d2:	a3 d0 e6 1f 08       	mov    %eax,0x81fe6d0
 80539d7:	c7 05 70 e8 5f 08 c1 	movl   $0xcc0003c1,0x85fe870
 80539de:	03 00 cc 
 80539e1:	8b 0d d0 e6 1f 08    	mov    0x81fe6d0,%ecx
 80539e7:	c7 05 64 e8 3f 08 40 	movl   $0x8055740,0x83fe864
 80539ee:	57 05 08 
 80539f1:	8b 04 8d 60 e8 3f 08 	mov    0x83fe860(,%ecx,4),%eax
 80539f8:	8b 15 80 e8 5f 08    	mov    0x85fe880,%edx
 80539fe:	89 10                	mov    %edx,(%eax)
 8053a00:	c7 05 64 e8 3f 08 44 	movl   $0x8055744,0x83fe864
 8053a07:	57 05 08 
 8053a0a:	8b 04 8d 60 e8 3f 08 	mov    0x83fe860(,%ecx,4),%eax
 8053a11:	8b 15 84 e8 5f 08    	mov    0x85fe884,%edx
 8053a17:	89 10                	mov    %edx,(%eax)
 8053a19:	c7 05 64 e8 3f 08 48 	movl   $0x8055748,0x83fe864
 8053a20:	57 05 08 
 8053a23:	8b 04 8d 60 e8 3f 08 	mov    0x83fe860(,%ecx,4),%eax
 8053a2a:	8b 15 88 e8 5f 08    	mov    0x85fe888,%edx
 8053a30:	89 10                	mov    %edx,(%eax)
 8053a32:	c7 05 64 e8 3f 08 4c 	movl   $0x805574c,0x83fe864
 8053a39:	57 05 08 
 8053a3c:	8b 04 8d 60 e8 3f 08 	mov    0x83fe860(,%ecx,4),%eax
 8053a43:	8b 15 8c e8 5f 08    	mov    0x85fe88c,%edx
 8053a49:	89 10                	mov    %edx,(%eax)
 8053a4b:	c7 05 64 e8 3f 08 50 	movl   $0x8055750,0x83fe864
 8053a52:	57 05 08 
 8053a55:	8b 04 8d 60 e8 3f 08 	mov    0x83fe860(,%ecx,4),%eax
 8053a5c:	8b 15 90 e8 5f 08    	mov    0x85fe890,%edx
 8053a62:	89 10                	mov    %edx,(%eax)
 8053a64:	c7 05 64 e8 3f 08 54 	movl   $0x8055754,0x83fe864
 8053a6b:	57 05 08 
 8053a6e:	8b 04 8d 60 e8 3f 08 	mov    0x83fe860(,%ecx,4),%eax
 8053a75:	8b 15 94 e8 5f 08    	mov    0x85fe894,%edx
 8053a7b:	89 10                	mov    %edx,(%eax)
 8053a7d:	c7 05 64 e8 3f 08 60 	movl   $0x8055760,0x83fe864
 8053a84:	57 05 08 
 8053a87:	8b 04 8d 60 e8 3f 08 	mov    0x83fe860(,%ecx,4),%eax
 8053a8e:	8b 15 98 e8 5f 08    	mov    0x85fe898,%edx
 8053a94:	89 10                	mov    %edx,(%eax)
 8053a96:	8b 15 9c e8 5f 08    	mov    0x85fe89c,%edx
 8053a9c:	89 50 04             	mov    %edx,0x4(%eax)
 8053a9f:	c7 05 64 e8 3f 08 68 	movl   $0x8055768,0x83fe864
 8053aa6:	57 05 08 
 8053aa9:	8b 04 8d 60 e8 3f 08 	mov    0x83fe860(,%ecx,4),%eax
 8053ab0:	8b 15 a0 e8 5f 08    	mov    0x85fe8a0,%edx
 8053ab6:	89 10                	mov    %edx,(%eax)
 8053ab8:	8b 15 a4 e8 5f 08    	mov    0x85fe8a4,%edx
 8053abe:	89 50 04             	mov    %edx,0x4(%eax)
 8053ac1:	c7 05 70 e8 5f 08 c2 	movl   $0xcc0003c2,0x85fe870
 8053ac8:	03 00 cc 
 8053acb:	a1 d0 e6 1f 08       	mov    0x81fe6d0,%eax
 8053ad0:	8b 04 85 40 e8 3f 08 	mov    0x83fe840(,%eax,4),%eax
 8053ad7:	c7 00 01 00 00 00    	movl   $0x1,(%eax)
 8053add:	c7 05 70 e8 5f 08 c3 	movl   $0xcc0003c3,0x85fe870
 8053ae4:	03 00 cc 
 8053ae7:	b8 10 57 05 08       	mov    $0x8055710,%eax
 8053aec:	a3 4c 57 05 08       	mov    %eax,0x805574c
 8053af1:	c7 05 70 e8 5f 08 c4 	movl   $0xcc0003c4,0x85fe870
 8053af8:	03 00 cc 
 8053afb:	a1 4c 57 05 08       	mov    0x805574c,%eax
 8053b00:	c7 05 70 e8 5f 08 c5 	movl   $0xcc0003c5,0x85fe870
 8053b07:	03 00 cc 
 8053b0a:	89 c0                	mov    %eax,%eax
 8053b0c:	a3 00 e8 1f 08       	mov    %eax,0x81fe800
 8053b11:	b8 20 e8 3f 08       	mov    $0x83fe820,%eax
 8053b16:	8b 15 48 e8 3f 08    	mov    0x83fe848,%edx
 8053b1c:	c7 05 70 e8 5f 08 c6 	movl   $0xcc0003c6,0x85fe870
 8053b23:	03 00 cc 
 8053b26:	a3 64 e8 3f 08       	mov    %eax,0x83fe864
 8053b2b:	8b 04 95 60 e8 3f 08 	mov    0x83fe860(,%edx,4),%eax
 8053b32:	8b 15 20 e8 3f 08    	mov    0x83fe820,%edx
 8053b38:	8b 92 98 ff df ff    	mov    -0x200068(%edx),%edx
 8053b3e:	89 10                	mov    %edx,(%eax)
 8053b40:	a1 20 e8 3f 08       	mov    0x83fe820,%eax
 8053b45:	8b 15 48 e8 3f 08    	mov    0x83fe848,%edx
 8053b4b:	c7 05 70 e8 5f 08 c7 	movl   $0xcc0003c7,0x85fe870
 8053b52:	03 00 cc 
 8053b55:	a3 64 e8 3f 08       	mov    %eax,0x83fe864
 8053b5a:	8b 04 95 60 e8 3f 08 	mov    0x83fe860(,%edx,4),%eax
 8053b61:	8b 15 00 e8 1f 08    	mov    0x81fe800,%edx
 8053b67:	89 10                	mov    %edx,(%eax)
 8053b69:	c7 05 70 e8 5f 08 c8 	movl   $0xcc0003c8,0x85fe870
 8053b70:	03 00 cc 
 8053b73:	c7 05 70 e8 5f 08 c9 	movl   $0xcc0003c9,0x85fe870
 8053b7a:	03 00 cc 
 8053b7d:	b8 b8 3c 05 88       	mov    $0x88053cb8,%eax
 8053b82:	c7 05 70 e8 5f 08 ca 	movl   $0xcc0003ca,0x85fe870
 8053b89:	03 00 cc 
 8053b8c:	a3 e0 e6 1f 08       	mov    %eax,0x81fe6e0
 8053b91:	c7 05 e4 e6 1f 08 00 	movl   $0x80000000,0x81fe6e4
 8053b98:	00 00 80 
 8053b9b:	c7 05 70 e8 5f 08 cb 	movl   $0xcc0003cb,0x85fe870
 8053ba2:	03 00 cc 
 8053ba5:	b8 00 00 00 00       	mov    $0x0,%eax
 8053baa:	b9 00 00 00 00       	mov    $0x0,%ecx
 8053baf:	c7 05 f0 e6 1f 08 00 	movl   $0x0,0x81fe6f0
 8053bb6:	00 00 00 
 8053bb9:	c7 05 70 e8 5f 08 cc 	movl   $0xcc0003cc,0x85fe870
 8053bc0:	03 00 cc 
 8053bc3:	66 a1 e0 e6 1f 08    	mov    0x81fe6e0,%ax
 8053bc9:	66 8b 0d e4 e6 1f 08 	mov    0x81fe6e4,%cx
 8053bd0:	8b 14 85 20 96 06 08 	mov    0x8069620(,%eax,4),%edx
 8053bd7:	8b 14 8a             	mov    (%edx,%ecx,4),%edx
 8053bda:	66 8b 0d f2 e6 1f 08 	mov    0x81fe6f2,%cx
 8053be1:	8b 14 95 20 96 06 08 	mov    0x8069620(,%edx,4),%edx
 8053be8:	8b 14 8a             	mov    (%edx,%ecx,4),%edx
 8053beb:	66 89 15 e8 e6 1f 08 	mov    %dx,0x81fe6e8
 8053bf2:	89 15 f0 e6 1f 08    	mov    %edx,0x81fe6f0
 8053bf8:	c7 05 70 e8 5f 08 cd 	movl   $0xcc0003cd,0x85fe870
 8053bff:	03 00 cc 
 8053c02:	66 a1 e2 e6 1f 08    	mov    0x81fe6e2,%ax
 8053c08:	66 8b 0d e6 e6 1f 08 	mov    0x81fe6e6,%cx
 8053c0f:	8b 14 85 20 96 06 08 	mov    0x8069620(,%eax,4),%edx
 8053c16:	8b 14 8a             	mov    (%edx,%ecx,4),%edx
 8053c19:	66 8b 0d f2 e6 1f 08 	mov    0x81fe6f2,%cx
 8053c20:	8b 14 95 20 96 06 08 	mov    0x8069620(,%edx,4),%edx
 8053c27:	8b 14 8a             	mov    (%edx,%ecx,4),%edx
 8053c2a:	66 89 15 ea e6 1f 08 	mov    %dx,0x81fe6ea
 8053c31:	89 15 f0 e6 1f 08    	mov    %edx,0x81fe6f0
 8053c37:	a1 e8 e6 1f 08       	mov    0x81fe6e8,%eax
 8053c3c:	c7 05 70 e8 5f 08 ce 	movl   $0xcc0003ce,0x85fe870
 8053c43:	03 00 cc 
 8053c46:	89 c0                	mov    %eax,%eax
 8053c48:	a3 00 e8 1f 08       	mov    %eax,0x81fe800
 8053c4d:	b8 20 e8 3f 08       	mov    $0x83fe820,%eax
 8053c52:	8b 15 48 e8 3f 08    	mov    0x83fe848,%edx
 8053c58:	c7 05 70 e8 5f 08 cf 	movl   $0xcc0003cf,0x85fe870
 8053c5f:	03 00 cc 
 8053c62:	a3 64 e8 3f 08       	mov    %eax,0x83fe864
 8053c67:	8b 04 95 60 e8 3f 08 	mov    0x83fe860(,%edx,4),%eax
 8053c6e:	8b 15 20 e8 3f 08    	mov    0x83fe820,%edx
 8053c74:	8b 92 98 ff df ff    	mov    -0x200068(%edx),%edx
 8053c7a:	89 10                	mov    %edx,(%eax)
 8053c7c:	a1 20 e8 3f 08       	mov    0x83fe820,%eax
 8053c81:	8b 15 48 e8 3f 08    	mov    0x83fe848,%edx
 8053c87:	c7 05 70 e8 5f 08 d0 	movl   $0xcc0003d0,0x85fe870
 8053c8e:	03 00 cc 
 8053c91:	a3 64 e8 3f 08       	mov    %eax,0x83fe864
 8053c96:	8b 04 95 60 e8 3f 08 	mov    0x83fe860(,%edx,4),%eax
 8053c9d:	8b 15 00 e8 1f 08    	mov    0x81fe800,%edx
 8053ca3:	89 10                	mov    %edx,(%eax)
 8053ca5:	8b 25 20 e8 3f 08    	mov    0x83fe820,%esp
 8053cab:	83 3d 48 e8 3f 08 01 	cmpl   $0x1,0x83fe848
 8053cb2:	0f 84 d8 45 ff ff    	je     8048290 <puts@plt>
 8053cb8:	a3 40 57 05 08       	mov    %eax,0x8055740
 8053cbd:	c7 05 70 e8 5f 08 d1 	movl   $0xcc0003d1,0x85fe870
 8053cc4:	03 00 cc 
 8053cc7:	a1 20 e8 3f 08       	mov    0x83fe820,%eax
 8053ccc:	8b 10                	mov    (%eax),%edx
 8053cce:	89 15 00 e8 1f 08    	mov    %edx,0x81fe800
 8053cd4:	b8 20 e8 3f 08       	mov    $0x83fe820,%eax
 8053cd9:	8b 15 48 e8 3f 08    	mov    0x83fe848,%edx
 8053cdf:	c7 05 70 e8 5f 08 d2 	movl   $0xcc0003d2,0x85fe870
 8053ce6:	03 00 cc 
 8053ce9:	a3 64 e8 3f 08       	mov    %eax,0x83fe864
 8053cee:	8b 04 95 60 e8 3f 08 	mov    0x83fe860(,%edx,4),%eax
 8053cf5:	8b 15 20 e8 3f 08    	mov    0x83fe820,%edx
 8053cfb:	8b 92 a0 ff df ff    	mov    -0x200060(%edx),%edx
 8053d01:	89 10                	mov    %edx,(%eax)
 8053d03:	8b 15 00 e8 1f 08    	mov    0x81fe800,%edx
 8053d09:	89 d0                	mov    %edx,%eax
 8053d0b:	a1 20 e8 3f 08       	mov    0x83fe820,%eax
 8053d10:	8b 80 a0 ff df ff    	mov    -0x200060(%eax),%eax
 8053d16:	a3 00 e8 1f 08       	mov    %eax,0x81fe800
 8053d1b:	b8 20 e8 3f 08       	mov    $0x83fe820,%eax
 8053d20:	8b 15 48 e8 3f 08    	mov    0x83fe848,%edx
 8053d26:	c7 05 70 e8 5f 08 d3 	movl   $0xcc0003d3,0x85fe870
 8053d2d:	03 00 cc 
 8053d30:	a3 64 e8 3f 08       	mov    %eax,0x83fe864
 8053d35:	8b 04 95 60 e8 3f 08 	mov    0x83fe860(,%edx,4),%eax
 8053d3c:	8b 15 00 e8 1f 08    	mov    0x81fe800,%edx
 8053d42:	89 10                	mov    %edx,(%eax)
 8053d44:	c7 05 70 e8 5f 08 d4 	movl   $0xcc0003d4,0x85fe870
 8053d4b:	03 00 cc 
 8053d4e:	a1 58 e8 3f 08       	mov    0x83fe858,%eax
 8053d53:	ba 4e 3d 05 88       	mov    $0x88053d4e,%edx
 8053d58:	c7 05 70 e8 5f 08 d5 	movl   $0xcc0003d5,0x85fe870
 8053d5f:	03 00 cc 
 8053d62:	a3 e0 e6 1f 08       	mov    %eax,0x81fe6e0
 8053d67:	89 15 e4 e6 1f 08    	mov    %edx,0x81fe6e4
 8053d6d:	b8 00 00 00 00       	mov    $0x0,%eax
 8053d72:	b9 00 00 00 00       	mov    $0x0,%ecx
 8053d77:	ba 00 00 00 00       	mov    $0x0,%edx
 8053d7c:	a0 e0 e6 1f 08       	mov    0x81fe6e0,%al
 8053d81:	8b 0c 85 f0 8c 05 08 	mov    0x8058cf0(,%eax,4),%ecx
 8053d88:	8a 15 e4 e6 1f 08    	mov    0x81fe6e4,%dl
 8053d8e:	8a 14 11             	mov    (%ecx,%edx,1),%dl
 8053d91:	89 15 d0 e6 1f 08    	mov    %edx,0x81fe6d0
 8053d97:	a0 e1 e6 1f 08       	mov    0x81fe6e1,%al
 8053d9c:	8b 0c 85 f0 8c 05 08 	mov    0x8058cf0(,%eax,4),%ecx
 8053da3:	8a 15 e5 e6 1f 08    	mov    0x81fe6e5,%dl
 8053da9:	8a 14 11             	mov    (%ecx,%edx,1),%dl
 8053dac:	89 15 d4 e6 1f 08    	mov    %edx,0x81fe6d4
 8053db2:	a0 e2 e6 1f 08       	mov    0x81fe6e2,%al
 8053db7:	8b 0c 85 f0 8c 05 08 	mov    0x8058cf0(,%eax,4),%ecx
 8053dbe:	8a 15 e6 e6 1f 08    	mov    0x81fe6e6,%dl
 8053dc4:	8a 14 11             	mov    (%ecx,%edx,1),%dl
 8053dc7:	89 15 d8 e6 1f 08    	mov    %edx,0x81fe6d8
 8053dcd:	a0 e3 e6 1f 08       	mov    0x81fe6e3,%al
 8053dd2:	8b 0c 85 f0 8c 05 08 	mov    0x8058cf0(,%eax,4),%ecx
 8053dd9:	8a 15 e7 e6 1f 08    	mov    0x81fe6e7,%dl
 8053ddf:	8a 14 11             	mov    (%ecx,%edx,1),%dl
 8053de2:	89 15 dc e6 1f 08    	mov    %edx,0x81fe6dc
 8053de8:	c7 05 70 e8 5f 08 d6 	movl   $0xcc0003d6,0x85fe870
 8053def:	03 00 cc 
 8053df2:	a1 d0 e6 1f 08       	mov    0x81fe6d0,%eax
 8053df7:	8b 15 d4 e6 1f 08    	mov    0x81fe6d4,%edx
 8053dfd:	8b 04 85 90 57 05 08 	mov    0x8055790(,%eax,4),%eax
 8053e04:	8b 04 90             	mov    (%eax,%edx,4),%eax
 8053e07:	a3 d0 e6 1f 08       	mov    %eax,0x81fe6d0
 8053e0c:	c7 05 70 e8 5f 08 d7 	movl   $0xcc0003d7,0x85fe870
 8053e13:	03 00 cc 
 8053e16:	a1 d0 e6 1f 08       	mov    0x81fe6d0,%eax
 8053e1b:	8b 15 d8 e6 1f 08    	mov    0x81fe6d8,%edx
 8053e21:	8b 04 85 90 57 05 08 	mov    0x8055790(,%eax,4),%eax
 8053e28:	8b 04 90             	mov    (%eax,%edx,4),%eax
 8053e2b:	a3 d0 e6 1f 08       	mov    %eax,0x81fe6d0
 8053e30:	c7 05 70 e8 5f 08 d8 	movl   $0xcc0003d8,0x85fe870
 8053e37:	03 00 cc 
 8053e3a:	a1 d0 e6 1f 08       	mov    0x81fe6d0,%eax
 8053e3f:	8b 15 dc e6 1f 08    	mov    0x81fe6dc,%edx
 8053e45:	8b 04 85 90 57 05 08 	mov    0x8055790(,%eax,4),%eax
 8053e4c:	8b 04 90             	mov    (%eax,%edx,4),%eax
 8053e4f:	a3 d0 e6 1f 08       	mov    %eax,0x81fe6d0
 8053e54:	a1 d0 e6 1f 08       	mov    0x81fe6d0,%eax
 8053e59:	a3 d0 e6 1f 08       	mov    %eax,0x81fe6d0
 8053e5e:	c7 05 70 e8 5f 08 d9 	movl   $0xcc0003d9,0x85fe870
 8053e65:	03 00 cc 
 8053e68:	8b 0d d0 e6 1f 08    	mov    0x81fe6d0,%ecx
 8053e6e:	c7 05 64 e8 3f 08 40 	movl   $0x8055740,0x83fe864
 8053e75:	57 05 08 
 8053e78:	8b 04 8d 60 e8 3f 08 	mov    0x83fe860(,%ecx,4),%eax
 8053e7f:	8b 15 80 e8 5f 08    	mov    0x85fe880,%edx
 8053e85:	89 10                	mov    %edx,(%eax)
 8053e87:	c7 05 64 e8 3f 08 44 	movl   $0x8055744,0x83fe864
 8053e8e:	57 05 08 
 8053e91:	8b 04 8d 60 e8 3f 08 	mov    0x83fe860(,%ecx,4),%eax
 8053e98:	8b 15 84 e8 5f 08    	mov    0x85fe884,%edx
 8053e9e:	89 10                	mov    %edx,(%eax)
 8053ea0:	c7 05 64 e8 3f 08 48 	movl   $0x8055748,0x83fe864
 8053ea7:	57 05 08 
 8053eaa:	8b 04 8d 60 e8 3f 08 	mov    0x83fe860(,%ecx,4),%eax
 8053eb1:	8b 15 88 e8 5f 08    	mov    0x85fe888,%edx
 8053eb7:	89 10                	mov    %edx,(%eax)
 8053eb9:	c7 05 64 e8 3f 08 4c 	movl   $0x805574c,0x83fe864
 8053ec0:	57 05 08 
 8053ec3:	8b 04 8d 60 e8 3f 08 	mov    0x83fe860(,%ecx,4),%eax
 8053eca:	8b 15 8c e8 5f 08    	mov    0x85fe88c,%edx
 8053ed0:	89 10                	mov    %edx,(%eax)
 8053ed2:	c7 05 64 e8 3f 08 50 	movl   $0x8055750,0x83fe864
 8053ed9:	57 05 08 
 8053edc:	8b 04 8d 60 e8 3f 08 	mov    0x83fe860(,%ecx,4),%eax
 8053ee3:	8b 15 90 e8 5f 08    	mov    0x85fe890,%edx
 8053ee9:	89 10                	mov    %edx,(%eax)
 8053eeb:	c7 05 64 e8 3f 08 54 	movl   $0x8055754,0x83fe864
 8053ef2:	57 05 08 
 8053ef5:	8b 04 8d 60 e8 3f 08 	mov    0x83fe860(,%ecx,4),%eax
 8053efc:	8b 15 94 e8 5f 08    	mov    0x85fe894,%edx
 8053f02:	89 10                	mov    %edx,(%eax)
 8053f04:	c7 05 64 e8 3f 08 60 	movl   $0x8055760,0x83fe864
 8053f0b:	57 05 08 
 8053f0e:	8b 04 8d 60 e8 3f 08 	mov    0x83fe860(,%ecx,4),%eax
 8053f15:	8b 15 98 e8 5f 08    	mov    0x85fe898,%edx
 8053f1b:	89 10                	mov    %edx,(%eax)
 8053f1d:	8b 15 9c e8 5f 08    	mov    0x85fe89c,%edx
 8053f23:	89 50 04             	mov    %edx,0x4(%eax)
 8053f26:	c7 05 64 e8 3f 08 68 	movl   $0x8055768,0x83fe864
 8053f2d:	57 05 08 
 8053f30:	8b 04 8d 60 e8 3f 08 	mov    0x83fe860(,%ecx,4),%eax
 8053f37:	8b 15 a0 e8 5f 08    	mov    0x85fe8a0,%edx
 8053f3d:	89 10                	mov    %edx,(%eax)
 8053f3f:	8b 15 a4 e8 5f 08    	mov    0x85fe8a4,%edx
 8053f45:	89 50 04             	mov    %edx,0x4(%eax)
 8053f48:	c7 05 70 e8 5f 08 da 	movl   $0xcc0003da,0x85fe870
 8053f4f:	03 00 cc 
 8053f52:	a1 d0 e6 1f 08       	mov    0x81fe6d0,%eax
 8053f57:	8b 04 85 40 e8 3f 08 	mov    0x83fe840(,%eax,4),%eax
 8053f5e:	c7 00 01 00 00 00    	movl   $0x1,(%eax)
 8053f64:	c7 05 40 57 05 08 00 	movl   $0x0,0x8055740
 8053f6b:	00 00 00 
 8053f6e:	c7 05 70 e8 5f 08 db 	movl   $0xcc0003db,0x85fe870
 8053f75:	03 00 cc 
 8053f78:	c7 05 70 e8 5f 08 dc 	movl   $0xcc0003dc,0x85fe870
 8053f7f:	03 00 cc 
 8053f82:	a1 58 e8 3f 08       	mov    0x83fe858,%eax
 8053f87:	ba 82 3f 05 88       	mov    $0x88053f82,%edx
 8053f8c:	c7 05 70 e8 5f 08 dd 	movl   $0xcc0003dd,0x85fe870
 8053f93:	03 00 cc 
 8053f96:	a3 e0 e6 1f 08       	mov    %eax,0x81fe6e0
 8053f9b:	89 15 e4 e6 1f 08    	mov    %edx,0x81fe6e4
 8053fa1:	b8 00 00 00 00       	mov    $0x0,%eax
 8053fa6:	b9 00 00 00 00       	mov    $0x0,%ecx
 8053fab:	ba 00 00 00 00       	mov    $0x0,%edx
 8053fb0:	a0 e0 e6 1f 08       	mov    0x81fe6e0,%al
 8053fb5:	8b 0c 85 f0 8c 05 08 	mov    0x8058cf0(,%eax,4),%ecx
 8053fbc:	8a 15 e4 e6 1f 08    	mov    0x81fe6e4,%dl
 8053fc2:	8a 14 11             	mov    (%ecx,%edx,1),%dl
 8053fc5:	89 15 d0 e6 1f 08    	mov    %edx,0x81fe6d0
 8053fcb:	a0 e1 e6 1f 08       	mov    0x81fe6e1,%al
 8053fd0:	8b 0c 85 f0 8c 05 08 	mov    0x8058cf0(,%eax,4),%ecx
 8053fd7:	8a 15 e5 e6 1f 08    	mov    0x81fe6e5,%dl
 8053fdd:	8a 14 11             	mov    (%ecx,%edx,1),%dl
 8053fe0:	89 15 d4 e6 1f 08    	mov    %edx,0x81fe6d4
 8053fe6:	a0 e2 e6 1f 08       	mov    0x81fe6e2,%al
 8053feb:	8b 0c 85 f0 8c 05 08 	mov    0x8058cf0(,%eax,4),%ecx
 8053ff2:	8a 15 e6 e6 1f 08    	mov    0x81fe6e6,%dl
 8053ff8:	8a 14 11             	mov    (%ecx,%edx,1),%dl
 8053ffb:	89 15 d8 e6 1f 08    	mov    %edx,0x81fe6d8
 8054001:	a0 e3 e6 1f 08       	mov    0x81fe6e3,%al
 8054006:	8b 0c 85 f0 8c 05 08 	mov    0x8058cf0(,%eax,4),%ecx
 805400d:	8a 15 e7 e6 1f 08    	mov    0x81fe6e7,%dl
 8054013:	8a 14 11             	mov    (%ecx,%edx,1),%dl
 8054016:	89 15 dc e6 1f 08    	mov    %edx,0x81fe6dc
 805401c:	c7 05 70 e8 5f 08 de 	movl   $0xcc0003de,0x85fe870
 8054023:	03 00 cc 
 8054026:	a1 d0 e6 1f 08       	mov    0x81fe6d0,%eax
 805402b:	8b 15 d4 e6 1f 08    	mov    0x81fe6d4,%edx
 8054031:	8b 04 85 90 57 05 08 	mov    0x8055790(,%eax,4),%eax
 8054038:	8b 04 90             	mov    (%eax,%edx,4),%eax
 805403b:	a3 d0 e6 1f 08       	mov    %eax,0x81fe6d0
 8054040:	c7 05 70 e8 5f 08 df 	movl   $0xcc0003df,0x85fe870
 8054047:	03 00 cc 
 805404a:	a1 d0 e6 1f 08       	mov    0x81fe6d0,%eax
 805404f:	8b 15 d8 e6 1f 08    	mov    0x81fe6d8,%edx
 8054055:	8b 04 85 90 57 05 08 	mov    0x8055790(,%eax,4),%eax
 805405c:	8b 04 90             	mov    (%eax,%edx,4),%eax
 805405f:	a3 d0 e6 1f 08       	mov    %eax,0x81fe6d0
 8054064:	c7 05 70 e8 5f 08 e0 	movl   $0xcc0003e0,0x85fe870
 805406b:	03 00 cc 
 805406e:	a1 d0 e6 1f 08       	mov    0x81fe6d0,%eax
 8054073:	8b 15 dc e6 1f 08    	mov    0x81fe6dc,%edx
 8054079:	8b 04 85 90 57 05 08 	mov    0x8055790(,%eax,4),%eax
 8054080:	8b 04 90             	mov    (%eax,%edx,4),%eax
 8054083:	a3 d0 e6 1f 08       	mov    %eax,0x81fe6d0
 8054088:	a1 d0 e6 1f 08       	mov    0x81fe6d0,%eax
 805408d:	a3 d0 e6 1f 08       	mov    %eax,0x81fe6d0
 8054092:	c7 05 70 e8 5f 08 e1 	movl   $0xcc0003e1,0x85fe870
 8054099:	03 00 cc 
 805409c:	8b 0d d0 e6 1f 08    	mov    0x81fe6d0,%ecx
 80540a2:	c7 05 64 e8 3f 08 40 	movl   $0x8055740,0x83fe864
 80540a9:	57 05 08 
 80540ac:	8b 04 8d 60 e8 3f 08 	mov    0x83fe860(,%ecx,4),%eax
 80540b3:	8b 15 80 e8 5f 08    	mov    0x85fe880,%edx
 80540b9:	89 10                	mov    %edx,(%eax)
 80540bb:	c7 05 64 e8 3f 08 44 	movl   $0x8055744,0x83fe864
 80540c2:	57 05 08 
 80540c5:	8b 04 8d 60 e8 3f 08 	mov    0x83fe860(,%ecx,4),%eax
 80540cc:	8b 15 84 e8 5f 08    	mov    0x85fe884,%edx
 80540d2:	89 10                	mov    %edx,(%eax)
 80540d4:	c7 05 64 e8 3f 08 48 	movl   $0x8055748,0x83fe864
 80540db:	57 05 08 
 80540de:	8b 04 8d 60 e8 3f 08 	mov    0x83fe860(,%ecx,4),%eax
 80540e5:	8b 15 88 e8 5f 08    	mov    0x85fe888,%edx
 80540eb:	89 10                	mov    %edx,(%eax)
 80540ed:	c7 05 64 e8 3f 08 4c 	movl   $0x805574c,0x83fe864
 80540f4:	57 05 08 
 80540f7:	8b 04 8d 60 e8 3f 08 	mov    0x83fe860(,%ecx,4),%eax
 80540fe:	8b 15 8c e8 5f 08    	mov    0x85fe88c,%edx
 8054104:	89 10                	mov    %edx,(%eax)
 8054106:	c7 05 64 e8 3f 08 50 	movl   $0x8055750,0x83fe864
 805410d:	57 05 08 
 8054110:	8b 04 8d 60 e8 3f 08 	mov    0x83fe860(,%ecx,4),%eax
 8054117:	8b 15 90 e8 5f 08    	mov    0x85fe890,%edx
 805411d:	89 10                	mov    %edx,(%eax)
 805411f:	c7 05 64 e8 3f 08 54 	movl   $0x8055754,0x83fe864
 8054126:	57 05 08 
 8054129:	8b 04 8d 60 e8 3f 08 	mov    0x83fe860(,%ecx,4),%eax
 8054130:	8b 15 94 e8 5f 08    	mov    0x85fe894,%edx
 8054136:	89 10                	mov    %edx,(%eax)
 8054138:	c7 05 64 e8 3f 08 60 	movl   $0x8055760,0x83fe864
 805413f:	57 05 08 
 8054142:	8b 04 8d 60 e8 3f 08 	mov    0x83fe860(,%ecx,4),%eax
 8054149:	8b 15 98 e8 5f 08    	mov    0x85fe898,%edx
 805414f:	89 10                	mov    %edx,(%eax)
 8054151:	8b 15 9c e8 5f 08    	mov    0x85fe89c,%edx
 8054157:	89 50 04             	mov    %edx,0x4(%eax)
 805415a:	c7 05 64 e8 3f 08 68 	movl   $0x8055768,0x83fe864
 8054161:	57 05 08 
 8054164:	8b 04 8d 60 e8 3f 08 	mov    0x83fe860(,%ecx,4),%eax
 805416b:	8b 15 a0 e8 5f 08    	mov    0x85fe8a0,%edx
 8054171:	89 10                	mov    %edx,(%eax)
 8054173:	8b 15 a4 e8 5f 08    	mov    0x85fe8a4,%edx
 8054179:	89 50 04             	mov    %edx,0x4(%eax)
 805417c:	c7 05 70 e8 5f 08 e2 	movl   $0xcc0003e2,0x85fe870
 8054183:	03 00 cc 
 8054186:	a1 d0 e6 1f 08       	mov    0x81fe6d0,%eax
 805418b:	8b 04 85 40 e8 3f 08 	mov    0x83fe840(,%eax,4),%eax
 8054192:	c7 00 01 00 00 00    	movl   $0x1,(%eax)
 8054198:	b8 20 e8 3f 08       	mov    $0x83fe820,%eax
 805419d:	8b 15 48 e8 3f 08    	mov    0x83fe848,%edx
 80541a3:	c7 05 70 e8 5f 08 e3 	movl   $0xcc0003e3,0x85fe870
 80541aa:	03 00 cc 
 80541ad:	a3 64 e8 3f 08       	mov    %eax,0x83fe864
 80541b2:	8b 04 95 60 e8 3f 08 	mov    0x83fe860(,%edx,4),%eax
 80541b9:	8b 15 24 e8 3f 08    	mov    0x83fe824,%edx
 80541bf:	89 10                	mov    %edx,(%eax)
 80541c1:	c7 05 70 e8 5f 08 e4 	movl   $0xcc0003e4,0x85fe870
 80541c8:	03 00 cc 
 80541cb:	a1 20 e8 3f 08       	mov    0x83fe820,%eax
 80541d0:	8b 10                	mov    (%eax),%edx
 80541d2:	89 15 00 e8 1f 08    	mov    %edx,0x81fe800
 80541d8:	8b 50 04             	mov    0x4(%eax),%edx
 80541db:	89 15 04 e8 1f 08    	mov    %edx,0x81fe804
 80541e1:	b8 20 e8 3f 08       	mov    $0x83fe820,%eax
 80541e6:	8b 15 48 e8 3f 08    	mov    0x83fe848,%edx
 80541ec:	c7 05 70 e8 5f 08 e5 	movl   $0xcc0003e5,0x85fe870
 80541f3:	03 00 cc 
 80541f6:	a3 64 e8 3f 08       	mov    %eax,0x83fe864
 80541fb:	8b 04 95 60 e8 3f 08 	mov    0x83fe860(,%edx,4),%eax
 8054202:	8b 15 20 e8 3f 08    	mov    0x83fe820,%edx
 8054208:	8b 92 a0 ff df ff    	mov    -0x200060(%edx),%edx
 805420e:	8b 92 a0 ff df ff    	mov    -0x200060(%edx),%edx
 8054214:	89 10                	mov    %edx,(%eax)
 8054216:	b8 68 57 05 08       	mov    $0x8055768,%eax
 805421b:	8b 15 48 e8 3f 08    	mov    0x83fe848,%edx
 8054221:	c7 05 70 e8 5f 08 e6 	movl   $0xcc0003e6,0x85fe870
 8054228:	03 00 cc 
 805422b:	a3 64 e8 3f 08       	mov    %eax,0x83fe864
 8054230:	8b 04 95 60 e8 3f 08 	mov    0x83fe860(,%edx,4),%eax
 8054237:	8b 15 00 e8 1f 08    	mov    0x81fe800,%edx
 805423d:	89 10                	mov    %edx,(%eax)
 805423f:	8b 15 04 e8 1f 08    	mov    0x81fe804,%edx
 8054245:	89 50 04             	mov    %edx,0x4(%eax)
 8054248:	c7 05 70 e8 5f 08 e7 	movl   $0xcc0003e7,0x85fe870
 805424f:	03 00 cc 
 8054252:	a1 20 e8 3f 08       	mov    0x83fe820,%eax
 8054257:	8b 10                	mov    (%eax),%edx
 8054259:	89 15 00 e8 1f 08    	mov    %edx,0x81fe800
 805425f:	b8 20 e8 3f 08       	mov    $0x83fe820,%eax
 8054264:	8b 15 48 e8 3f 08    	mov    0x83fe848,%edx
 805426a:	c7 05 70 e8 5f 08 e8 	movl   $0xcc0003e8,0x85fe870
 8054271:	03 00 cc 
 8054274:	a3 64 e8 3f 08       	mov    %eax,0x83fe864
 8054279:	8b 04 95 60 e8 3f 08 	mov    0x83fe860(,%edx,4),%eax
 8054280:	8b 15 20 e8 3f 08    	mov    0x83fe820,%edx
 8054286:	8b 92 a0 ff df ff    	mov    -0x200060(%edx),%edx
 805428c:	89 10                	mov    %edx,(%eax)
 805428e:	b8 54 57 05 08       	mov    $0x8055754,%eax
 8054293:	8b 15 48 e8 3f 08    	mov    0x83fe848,%edx
 8054299:	c7 05 70 e8 5f 08 e9 	movl   $0xcc0003e9,0x85fe870
 80542a0:	03 00 cc 
 80542a3:	a3 64 e8 3f 08       	mov    %eax,0x83fe864
 80542a8:	8b 04 95 60 e8 3f 08 	mov    0x83fe860(,%edx,4),%eax
 80542af:	8b 15 00 e8 1f 08    	mov    0x81fe800,%edx
 80542b5:	89 10                	mov    %edx,(%eax)
 80542b7:	c7 05 70 e8 5f 08 ea 	movl   $0xcc0003ea,0x85fe870
 80542be:	03 00 cc 
 80542c1:	a1 20 e8 3f 08       	mov    0x83fe820,%eax
 80542c6:	8b 10                	mov    (%eax),%edx
 80542c8:	89 15 00 e8 1f 08    	mov    %edx,0x81fe800
 80542ce:	b8 20 e8 3f 08       	mov    $0x83fe820,%eax
 80542d3:	8b 15 48 e8 3f 08    	mov    0x83fe848,%edx
 80542d9:	c7 05 70 e8 5f 08 eb 	movl   $0xcc0003eb,0x85fe870
 80542e0:	03 00 cc 
 80542e3:	a3 64 e8 3f 08       	mov    %eax,0x83fe864
 80542e8:	8b 04 95 60 e8 3f 08 	mov    0x83fe860(,%edx,4),%eax
 80542ef:	8b 15 20 e8 3f 08    	mov    0x83fe820,%edx
 80542f5:	8b 92 a0 ff df ff    	mov    -0x200060(%edx),%edx
 80542fb:	89 10                	mov    %edx,(%eax)
 80542fd:	b8 4c 57 05 08       	mov    $0x805574c,%eax
 8054302:	8b 15 48 e8 3f 08    	mov    0x83fe848,%edx
 8054308:	c7 05 70 e8 5f 08 ec 	movl   $0xcc0003ec,0x85fe870
 805430f:	03 00 cc 
 8054312:	a3 64 e8 3f 08       	mov    %eax,0x83fe864
 8054317:	8b 04 95 60 e8 3f 08 	mov    0x83fe860(,%edx,4),%eax
 805431e:	8b 15 00 e8 1f 08    	mov    0x81fe800,%edx
 8054324:	89 10                	mov    %edx,(%eax)
 8054326:	c7 05 70 e8 5f 08 ed 	movl   $0xcc0003ed,0x85fe870
 805432d:	03 00 cc 
 8054330:	a1 20 e8 3f 08       	mov    0x83fe820,%eax
 8054335:	8b 10                	mov    (%eax),%edx
 8054337:	89 15 00 e8 1f 08    	mov    %edx,0x81fe800
 805433d:	b8 20 e8 3f 08       	mov    $0x83fe820,%eax
 8054342:	8b 15 48 e8 3f 08    	mov    0x83fe848,%edx
 8054348:	c7 05 70 e8 5f 08 ee 	movl   $0xcc0003ee,0x85fe870
 805434f:	03 00 cc 
 8054352:	a3 64 e8 3f 08       	mov    %eax,0x83fe864
 8054357:	8b 04 95 60 e8 3f 08 	mov    0x83fe860(,%edx,4),%eax
 805435e:	8b 15 20 e8 3f 08    	mov    0x83fe820,%edx
 8054364:	8b 92 a0 ff df ff    	mov    -0x200060(%edx),%edx
 805436a:	89 10                	mov    %edx,(%eax)
 805436c:	b8 48 57 05 08       	mov    $0x8055748,%eax
 8054371:	8b 15 48 e8 3f 08    	mov    0x83fe848,%edx
 8054377:	c7 05 70 e8 5f 08 ef 	movl   $0xcc0003ef,0x85fe870
 805437e:	03 00 cc 
 8054381:	a3 64 e8 3f 08       	mov    %eax,0x83fe864
 8054386:	8b 04 95 60 e8 3f 08 	mov    0x83fe860(,%edx,4),%eax
 805438d:	8b 15 00 e8 1f 08    	mov    0x81fe800,%edx
 8054393:	89 10                	mov    %edx,(%eax)
 8054395:	c7 05 70 e8 5f 08 f0 	movl   $0xcc0003f0,0x85fe870
 805439c:	03 00 cc 
 805439f:	a1 20 e8 3f 08       	mov    0x83fe820,%eax
 80543a4:	8b 10                	mov    (%eax),%edx
 80543a6:	89 15 00 e8 1f 08    	mov    %edx,0x81fe800
 80543ac:	b8 20 e8 3f 08       	mov    $0x83fe820,%eax
 80543b1:	8b 15 48 e8 3f 08    	mov    0x83fe848,%edx
 80543b7:	c7 05 70 e8 5f 08 f1 	movl   $0xcc0003f1,0x85fe870
 80543be:	03 00 cc 
 80543c1:	a3 64 e8 3f 08       	mov    %eax,0x83fe864
 80543c6:	8b 04 95 60 e8 3f 08 	mov    0x83fe860(,%edx,4),%eax
 80543cd:	8b 15 20 e8 3f 08    	mov    0x83fe820,%edx
 80543d3:	8b 92 a0 ff df ff    	mov    -0x200060(%edx),%edx
 80543d9:	89 10                	mov    %edx,(%eax)
 80543db:	b8 44 57 05 08       	mov    $0x8055744,%eax
 80543e0:	8b 15 48 e8 3f 08    	mov    0x83fe848,%edx
 80543e6:	c7 05 70 e8 5f 08 f2 	movl   $0xcc0003f2,0x85fe870
 80543ed:	03 00 cc 
 80543f0:	a3 64 e8 3f 08       	mov    %eax,0x83fe864
 80543f5:	8b 04 95 60 e8 3f 08 	mov    0x83fe860(,%edx,4),%eax
 80543fc:	8b 15 00 e8 1f 08    	mov    0x81fe800,%edx
 8054402:	89 10                	mov    %edx,(%eax)
 8054404:	c7 05 70 e8 5f 08 f3 	movl   $0xcc0003f3,0x85fe870
 805440b:	03 00 cc 
 805440e:	a1 20 e8 3f 08       	mov    0x83fe820,%eax
 8054413:	8b 10                	mov    (%eax),%edx
 8054415:	89 15 00 e8 1f 08    	mov    %edx,0x81fe800
 805441b:	b8 20 e8 3f 08       	mov    $0x83fe820,%eax
 8054420:	8b 15 48 e8 3f 08    	mov    0x83fe848,%edx
 8054426:	c7 05 70 e8 5f 08 f4 	movl   $0xcc0003f4,0x85fe870
 805442d:	03 00 cc 
 8054430:	a3 64 e8 3f 08       	mov    %eax,0x83fe864
 8054435:	8b 04 95 60 e8 3f 08 	mov    0x83fe860(,%edx,4),%eax
 805443c:	8b 15 20 e8 3f 08    	mov    0x83fe820,%edx
 8054442:	8b 92 a0 ff df ff    	mov    -0x200060(%edx),%edx
 8054448:	89 10                	mov    %edx,(%eax)
 805444a:	b8 24 e8 3f 08       	mov    $0x83fe824,%eax
 805444f:	8b 15 48 e8 3f 08    	mov    0x83fe848,%edx
 8054455:	c7 05 70 e8 5f 08 f5 	movl   $0xcc0003f5,0x85fe870
 805445c:	03 00 cc 
 805445f:	a3 64 e8 3f 08       	mov    %eax,0x83fe864
 8054464:	8b 04 95 60 e8 3f 08 	mov    0x83fe860(,%edx,4),%eax
 805446b:	8b 15 00 e8 1f 08    	mov    0x81fe800,%edx
 8054471:	89 10                	mov    %edx,(%eax)
 8054473:	c7 05 70 e8 5f 08 f6 	movl   $0xcc0003f6,0x85fe870
 805447a:	03 00 cc 
 805447d:	a1 20 e8 3f 08       	mov    0x83fe820,%eax
 8054482:	8b 10                	mov    (%eax),%edx
 8054484:	89 15 00 e8 1f 08    	mov    %edx,0x81fe800
 805448a:	b8 20 e8 3f 08       	mov    $0x83fe820,%eax
 805448f:	8b 15 48 e8 3f 08    	mov    0x83fe848,%edx
 8054495:	c7 05 70 e8 5f 08 f7 	movl   $0xcc0003f7,0x85fe870
 805449c:	03 00 cc 
 805449f:	a3 64 e8 3f 08       	mov    %eax,0x83fe864
 80544a4:	8b 04 95 60 e8 3f 08 	mov    0x83fe860(,%edx,4),%eax
 80544ab:	8b 15 20 e8 3f 08    	mov    0x83fe820,%edx
 80544b1:	8b 92 a0 ff df ff    	mov    -0x200060(%edx),%edx
 80544b7:	89 10                	mov    %edx,(%eax)
 80544b9:	8b 15 00 e8 1f 08    	mov    0x81fe800,%edx
 80544bf:	89 d0                	mov    %edx,%eax
 80544c1:	c7 05 70 e8 5f 08 f8 	movl   $0xcc0003f8,0x85fe870
 80544c8:	03 00 cc 
 80544cb:	a3 f0 e7 1f 08       	mov    %eax,0x81fe7f0
 80544d0:	c7 05 70 e8 5f 08 f9 	movl   $0xcc0003f9,0x85fe870
 80544d7:	03 00 cc 
 80544da:	a1 48 e8 3f 08       	mov    0x83fe848,%eax
 80544df:	8b 04 85 50 e8 3f 08 	mov    0x83fe850(,%eax,4),%eax
 80544e6:	8b 15 f0 e7 1f 08    	mov    0x81fe7f0,%edx
 80544ec:	89 10                	mov    %edx,(%eax)
 80544ee:	c7 05 70 e8 5f 08 fa 	movl   $0xcc0003fa,0x85fe870
 80544f5:	03 00 cc 
 80544f8:	8b 0d 48 e8 3f 08    	mov    0x83fe848,%ecx
 80544fe:	c7 05 64 e8 3f 08 80 	movl   $0x85fe880,0x83fe864
 8054505:	e8 5f 08 
 8054508:	8b 04 8d 60 e8 3f 08 	mov    0x83fe860(,%ecx,4),%eax
 805450f:	8b 15 40 57 05 08    	mov    0x8055740,%edx
 8054515:	89 10                	mov    %edx,(%eax)
 8054517:	8b 15 44 57 05 08    	mov    0x8055744,%edx
 805451d:	89 50 04             	mov    %edx,0x4(%eax)
 8054520:	8b 15 48 57 05 08    	mov    0x8055748,%edx
 8054526:	89 50 08             	mov    %edx,0x8(%eax)
 8054529:	8b 15 4c 57 05 08    	mov    0x805574c,%edx
 805452f:	89 50 0c             	mov    %edx,0xc(%eax)
 8054532:	c7 05 64 e8 3f 08 90 	movl   $0x85fe890,0x83fe864
 8054539:	e8 5f 08 
 805453c:	8b 04 8d 60 e8 3f 08 	mov    0x83fe860(,%ecx,4),%eax
 8054543:	8b 15 50 57 05 08    	mov    0x8055750,%edx
 8054549:	89 10                	mov    %edx,(%eax)
 805454b:	8b 15 54 57 05 08    	mov    0x8055754,%edx
 8054551:	89 50 04             	mov    %edx,0x4(%eax)
 8054554:	c7 05 64 e8 3f 08 98 	movl   $0x85fe898,0x83fe864
 805455b:	e8 5f 08 
 805455e:	8b 04 8d 60 e8 3f 08 	mov    0x83fe860(,%ecx,4),%eax
 8054565:	8b 15 60 57 05 08    	mov    0x8055760,%edx
 805456b:	89 10                	mov    %edx,(%eax)
 805456d:	8b 15 64 57 05 08    	mov    0x8055764,%edx
 8054573:	89 50 04             	mov    %edx,0x4(%eax)
 8054576:	8b 15 68 57 05 08    	mov    0x8055768,%edx
 805457c:	89 50 08             	mov    %edx,0x8(%eax)
 805457f:	8b 15 6c 57 05 08    	mov    0x805576c,%edx
 8054585:	89 50 0c             	mov    %edx,0xc(%eax)
 8054588:	c7 05 70 e8 5f 08 fb 	movl   $0xcc0003fb,0x85fe870
 805458f:	03 00 cc 
 8054592:	a1 48 e8 3f 08       	mov    0x83fe848,%eax
 8054597:	8b 04 85 40 e8 3f 08 	mov    0x83fe840(,%eax,4),%eax
 805459e:	c7 00 00 00 00 00    	movl   $0x0,(%eax)
 80545a4:	8b 25 20 e8 3f 08    	mov    0x83fe820,%esp
 80545aa:	8e c8                	mov    %eax,%cs
