
momo:     file format elf32-i386


Disassembly of section .plt:

08048260 <printf@plt-0x10>:
 8048260:	ff 35 70 56 05 08    	pushl  0x8055670
 8048266:	ff 25 74 56 05 08    	jmp    *0x8055674
 804826c:	00 00                	add    %al,(%eax)
	...

08048270 <printf@plt>:
 8048270:	ff 25 78 56 05 08    	jmp    *0x8055678
 8048276:	68 00 00 00 00       	push   $0x0
 804827b:	e9 e0 ff ff ff       	jmp    8048260 <printf@plt-0x10>

08048280 <fgets@plt>:
 8048280:	ff 25 7c 56 05 08    	jmp    *0x805567c
 8048286:	68 08 00 00 00       	push   $0x8
 804828b:	e9 d0 ff ff ff       	jmp    8048260 <printf@plt-0x10>

08048290 <puts@plt>:
 8048290:	ff 25 80 56 05 08    	jmp    *0x8055680
 8048296:	68 10 00 00 00       	push   $0x10
 804829b:	e9 c0 ff ff ff       	jmp    8048260 <printf@plt-0x10>

080482a0 <exit@plt>:
 80482a0:	ff 25 84 56 05 08    	jmp    *0x8055684
 80482a6:	68 18 00 00 00       	push   $0x18
 80482ab:	e9 b0 ff ff ff       	jmp    8048260 <printf@plt-0x10>

080482b0 <strlen@plt>:
 80482b0:	ff 25 88 56 05 08    	jmp    *0x8055688
 80482b6:	68 20 00 00 00       	push   $0x20
 80482bb:	e9 a0 ff ff ff       	jmp    8048260 <printf@plt-0x10>

080482c0 <sigaction@plt>:
 80482c0:	ff 25 8c 56 05 08    	jmp    *0x805568c
 80482c6:	68 28 00 00 00       	push   $0x28
 80482cb:	e9 90 ff ff ff       	jmp    8048260 <printf@plt-0x10>
 80482d0:	8b 25 20 e8 3f 08    	mov    0x83fe820,%esp
 80482d6:	ff 25 b4 e8 5f 08    	jmp    *0x85fe8b4

Disassembly of section .text:

080482dc <.text>:
 80482dc:	89 25 30 e8 3f 08    	mov    %esp,0x83fe830
 80482e2:	8b 25 20 e8 3f 08    	mov    0x83fe820,%esp
 80482e8:	8b a4 24 98 ff df ff 	mov    -0x200068(%esp),%esp
 80482ef:	8b a4 24 98 ff df ff 	mov    -0x200068(%esp),%esp
 80482f6:	8b a4 24 98 ff df ff 	mov    -0x200068(%esp),%esp
 80482fd:	8b a4 24 98 ff df ff 	mov    -0x200068(%esp),%esp
 8048304:	c7 04 24 0b 00 00 00 	movl   $0xb,(%esp)
 804830b:	c7 44 24 04 c4 e8 5f 	movl   $0x85fe8c4,0x4(%esp)
 8048312:	08 
 8048313:	c7 44 24 08 00 00 00 	movl   $0x0,0x8(%esp)
 804831a:	00 
 804831b:	e8 a0 ff ff ff       	call   80482c0 <sigaction@plt>
 8048320:	8b 25 20 e8 3f 08    	mov    0x83fe820,%esp
 8048326:	8b a4 24 98 ff df ff 	mov    -0x200068(%esp),%esp
 804832d:	8b a4 24 98 ff df ff 	mov    -0x200068(%esp),%esp
 8048334:	8b a4 24 98 ff df ff 	mov    -0x200068(%esp),%esp
 804833b:	c7 04 24 04 00 00 00 	movl   $0x4,(%esp)
 8048342:	c7 44 24 04 50 e9 5f 	movl   $0x85fe950,0x4(%esp)
 8048349:	08 
 804834a:	c7 44 24 08 00 00 00 	movl   $0x0,0x8(%esp)
 8048351:	00 
 8048352:	e8 69 ff ff ff       	call   80482c0 <sigaction@plt>
 8048357:	8b 25 20 e8 3f 08    	mov    0x83fe820,%esp
 804835d:	a1 4c e8 3f 08       	mov    0x83fe84c,%eax
 8048362:	8b 04 85 40 e8 3f 08 	mov    0x83fe840(,%eax,4),%eax
 8048369:	c7 00 01 00 00 00    	movl   $0x1,(%eax)
 804836f:	c7 05 4c e8 3f 08 00 	movl   $0x0,0x83fe84c
 8048376:	00 00 00 
 8048379:	a1 30 e8 3f 08       	mov    0x83fe830,%eax
 804837e:	ba 04 00 00 00       	mov    $0x4,%edx
 8048383:	a3 e0 e6 1f 08       	mov    %eax,0x81fe6e0
 8048388:	89 15 e4 e6 1f 08    	mov    %edx,0x81fe6e4
 804838e:	b8 00 00 00 00       	mov    $0x0,%eax
 8048393:	b9 00 00 00 00       	mov    $0x0,%ecx
 8048398:	c7 05 f0 e6 1f 08 00 	movl   $0x0,0x81fe6f0
 804839f:	00 00 00 
 80483a2:	66 a1 e0 e6 1f 08    	mov    0x81fe6e0,%ax
 80483a8:	66 8b 0d e4 e6 1f 08 	mov    0x81fe6e4,%cx
 80483af:	8b 14 85 20 96 06 08 	mov    0x8069620(,%eax,4),%edx
 80483b6:	8b 14 8a             	mov    (%edx,%ecx,4),%edx
 80483b9:	66 8b 0d f2 e6 1f 08 	mov    0x81fe6f2,%cx
 80483c0:	8b 14 95 20 96 06 08 	mov    0x8069620(,%edx,4),%edx
 80483c7:	8b 14 8a             	mov    (%edx,%ecx,4),%edx
 80483ca:	66 89 15 e8 e6 1f 08 	mov    %dx,0x81fe6e8
 80483d1:	89 15 f0 e6 1f 08    	mov    %edx,0x81fe6f0
 80483d7:	66 a1 e2 e6 1f 08    	mov    0x81fe6e2,%ax
 80483dd:	66 8b 0d e6 e6 1f 08 	mov    0x81fe6e6,%cx
 80483e4:	8b 14 85 20 96 06 08 	mov    0x8069620(,%eax,4),%edx
 80483eb:	8b 14 8a             	mov    (%edx,%ecx,4),%edx
 80483ee:	66 8b 0d f2 e6 1f 08 	mov    0x81fe6f2,%cx
 80483f5:	8b 14 95 20 96 06 08 	mov    0x8069620(,%edx,4),%edx
 80483fc:	8b 14 8a             	mov    (%edx,%ecx,4),%edx
 80483ff:	66 89 15 ea e6 1f 08 	mov    %dx,0x81fe6ea
 8048406:	89 15 f0 e6 1f 08    	mov    %edx,0x81fe6f0
 804840c:	a1 e8 e6 1f 08       	mov    0x81fe6e8,%eax
 8048411:	89 c0                	mov    %eax,%eax
 8048413:	a3 00 e8 1f 08       	mov    %eax,0x81fe800
 8048418:	b8 20 e8 3f 08       	mov    $0x83fe820,%eax
 804841d:	8b 15 48 e8 3f 08    	mov    0x83fe848,%edx
 8048423:	a3 64 e8 3f 08       	mov    %eax,0x83fe864
 8048428:	8b 04 95 60 e8 3f 08 	mov    0x83fe860(,%edx,4),%eax
 804842f:	8b 15 20 e8 3f 08    	mov    0x83fe820,%edx
 8048435:	8b 92 98 ff df ff    	mov    -0x200068(%edx),%edx
 804843b:	89 10                	mov    %edx,(%eax)
 804843d:	a1 20 e8 3f 08       	mov    0x83fe820,%eax
 8048442:	8b 15 48 e8 3f 08    	mov    0x83fe848,%edx
 8048448:	a3 64 e8 3f 08       	mov    %eax,0x83fe864
 804844d:	8b 04 95 60 e8 3f 08 	mov    0x83fe860(,%edx,4),%eax
 8048454:	8b 15 00 e8 1f 08    	mov    0x81fe800,%edx
 804845a:	89 10                	mov    %edx,(%eax)
 804845c:	a1 30 e8 3f 08       	mov    0x83fe830,%eax
 8048461:	8b 00                	mov    (%eax),%eax
 8048463:	89 c0                	mov    %eax,%eax
 8048465:	a3 00 e8 1f 08       	mov    %eax,0x81fe800
 804846a:	b8 20 e8 3f 08       	mov    $0x83fe820,%eax
 804846f:	8b 15 48 e8 3f 08    	mov    0x83fe848,%edx
 8048475:	a3 64 e8 3f 08       	mov    %eax,0x83fe864
 804847a:	8b 04 95 60 e8 3f 08 	mov    0x83fe860(,%edx,4),%eax
 8048481:	8b 15 20 e8 3f 08    	mov    0x83fe820,%edx
 8048487:	8b 92 98 ff df ff    	mov    -0x200068(%edx),%edx
 804848d:	89 10                	mov    %edx,(%eax)
 804848f:	a1 20 e8 3f 08       	mov    0x83fe820,%eax
 8048494:	8b 15 48 e8 3f 08    	mov    0x83fe848,%edx
 804849a:	a3 64 e8 3f 08       	mov    %eax,0x83fe864
 804849f:	8b 04 95 60 e8 3f 08 	mov    0x83fe860(,%edx,4),%eax
 80484a6:	8b 15 00 e8 1f 08    	mov    0x81fe800,%edx
 80484ac:	89 10                	mov    %edx,(%eax)
 80484ae:	b8 be 85 04 88       	mov    $0x880485be,%eax
 80484b3:	89 c0                	mov    %eax,%eax
 80484b5:	a3 00 e8 1f 08       	mov    %eax,0x81fe800
 80484ba:	b8 20 e8 3f 08       	mov    $0x83fe820,%eax
 80484bf:	8b 15 48 e8 3f 08    	mov    0x83fe848,%edx
 80484c5:	a3 64 e8 3f 08       	mov    %eax,0x83fe864
 80484ca:	8b 04 95 60 e8 3f 08 	mov    0x83fe860(,%edx,4),%eax
 80484d1:	8b 15 20 e8 3f 08    	mov    0x83fe820,%edx
 80484d7:	8b 92 98 ff df ff    	mov    -0x200068(%edx),%edx
 80484dd:	89 10                	mov    %edx,(%eax)
 80484df:	a1 20 e8 3f 08       	mov    0x83fe820,%eax
 80484e4:	8b 15 48 e8 3f 08    	mov    0x83fe848,%edx
 80484ea:	a3 64 e8 3f 08       	mov    %eax,0x83fe864
 80484ef:	8b 04 95 60 e8 3f 08 	mov    0x83fe860(,%edx,4),%eax
 80484f6:	8b 15 00 e8 1f 08    	mov    0x81fe800,%edx
 80484fc:	89 10                	mov    %edx,(%eax)
 80484fe:	b8 04 88 04 88       	mov    $0x88048804,%eax
 8048503:	a3 f0 e7 1f 08       	mov    %eax,0x81fe7f0
 8048508:	a1 48 e8 3f 08       	mov    0x83fe848,%eax
 804850d:	8b 04 85 50 e8 3f 08 	mov    0x83fe850(,%eax,4),%eax
 8048514:	8b 15 f0 e7 1f 08    	mov    0x81fe7f0,%edx
 804851a:	89 10                	mov    %edx,(%eax)
 804851c:	8b 0d 48 e8 3f 08    	mov    0x83fe848,%ecx
 8048522:	c7 05 64 e8 3f 08 80 	movl   $0x85fe880,0x83fe864
 8048529:	e8 5f 08 
 804852c:	8b 04 8d 60 e8 3f 08 	mov    0x83fe860(,%ecx,4),%eax
 8048533:	8b 15 40 57 05 08    	mov    0x8055740,%edx
 8048539:	89 10                	mov    %edx,(%eax)
 804853b:	8b 15 44 57 05 08    	mov    0x8055744,%edx
 8048541:	89 50 04             	mov    %edx,0x4(%eax)
 8048544:	8b 15 48 57 05 08    	mov    0x8055748,%edx
 804854a:	89 50 08             	mov    %edx,0x8(%eax)
 804854d:	8b 15 4c 57 05 08    	mov    0x805574c,%edx
 8048553:	89 50 0c             	mov    %edx,0xc(%eax)
 8048556:	c7 05 64 e8 3f 08 90 	movl   $0x85fe890,0x83fe864
 804855d:	e8 5f 08 
 8048560:	8b 04 8d 60 e8 3f 08 	mov    0x83fe860(,%ecx,4),%eax
 8048567:	8b 15 50 57 05 08    	mov    0x8055750,%edx
 804856d:	89 10                	mov    %edx,(%eax)
 804856f:	8b 15 54 57 05 08    	mov    0x8055754,%edx
 8048575:	89 50 04             	mov    %edx,0x4(%eax)
 8048578:	c7 05 64 e8 3f 08 98 	movl   $0x85fe898,0x83fe864
 804857f:	e8 5f 08 
 8048582:	8b 04 8d 60 e8 3f 08 	mov    0x83fe860(,%ecx,4),%eax
 8048589:	8b 15 60 57 05 08    	mov    0x8055760,%edx
 804858f:	89 10                	mov    %edx,(%eax)
 8048591:	8b 15 64 57 05 08    	mov    0x8055764,%edx
 8048597:	89 50 04             	mov    %edx,0x4(%eax)
 804859a:	8b 15 68 57 05 08    	mov    0x8055768,%edx
 80485a0:	89 50 08             	mov    %edx,0x8(%eax)
 80485a3:	8b 15 6c 57 05 08    	mov    0x805576c,%edx
 80485a9:	89 50 0c             	mov    %edx,0xc(%eax)
 80485ac:	a1 48 e8 3f 08       	mov    0x83fe848,%eax
 80485b1:	8b 04 85 40 e8 3f 08 	mov    0x83fe840(,%eax,4),%eax
 80485b8:	c7 00 00 00 00 00    	movl   $0x0,(%eax)
 80485be:	a1 58 e8 3f 08       	mov    0x83fe858,%eax
 80485c3:	ba be 85 04 88       	mov    $0x880485be,%edx
 80485c8:	a3 e0 e6 1f 08       	mov    %eax,0x81fe6e0
 80485cd:	89 15 e4 e6 1f 08    	mov    %edx,0x81fe6e4
 80485d3:	b8 00 00 00 00       	mov    $0x0,%eax
 80485d8:	b9 00 00 00 00       	mov    $0x0,%ecx
 80485dd:	ba 00 00 00 00       	mov    $0x0,%edx
 80485e2:	a0 e0 e6 1f 08       	mov    0x81fe6e0,%al
 80485e7:	8b 0c 85 f0 8c 05 08 	mov    0x8058cf0(,%eax,4),%ecx
 80485ee:	8a 15 e4 e6 1f 08    	mov    0x81fe6e4,%dl
 80485f4:	8a 14 11             	mov    (%ecx,%edx,1),%dl
 80485f7:	89 15 d0 e6 1f 08    	mov    %edx,0x81fe6d0
 80485fd:	a0 e1 e6 1f 08       	mov    0x81fe6e1,%al
 8048602:	8b 0c 85 f0 8c 05 08 	mov    0x8058cf0(,%eax,4),%ecx
 8048609:	8a 15 e5 e6 1f 08    	mov    0x81fe6e5,%dl
 804860f:	8a 14 11             	mov    (%ecx,%edx,1),%dl
 8048612:	89 15 d4 e6 1f 08    	mov    %edx,0x81fe6d4
 8048618:	a0 e2 e6 1f 08       	mov    0x81fe6e2,%al
 804861d:	8b 0c 85 f0 8c 05 08 	mov    0x8058cf0(,%eax,4),%ecx
 8048624:	8a 15 e6 e6 1f 08    	mov    0x81fe6e6,%dl
 804862a:	8a 14 11             	mov    (%ecx,%edx,1),%dl
 804862d:	89 15 d8 e6 1f 08    	mov    %edx,0x81fe6d8
 8048633:	a0 e3 e6 1f 08       	mov    0x81fe6e3,%al
 8048638:	8b 0c 85 f0 8c 05 08 	mov    0x8058cf0(,%eax,4),%ecx
 804863f:	8a 15 e7 e6 1f 08    	mov    0x81fe6e7,%dl
 8048645:	8a 14 11             	mov    (%ecx,%edx,1),%dl
 8048648:	89 15 dc e6 1f 08    	mov    %edx,0x81fe6dc
 804864e:	a1 d0 e6 1f 08       	mov    0x81fe6d0,%eax
 8048653:	8b 15 d4 e6 1f 08    	mov    0x81fe6d4,%edx
 8048659:	8b 04 85 90 57 05 08 	mov    0x8055790(,%eax,4),%eax
 8048660:	8b 04 90             	mov    (%eax,%edx,4),%eax
 8048663:	a3 d0 e6 1f 08       	mov    %eax,0x81fe6d0
 8048668:	a1 d0 e6 1f 08       	mov    0x81fe6d0,%eax
 804866d:	8b 15 d8 e6 1f 08    	mov    0x81fe6d8,%edx
 8048673:	8b 04 85 90 57 05 08 	mov    0x8055790(,%eax,4),%eax
 804867a:	8b 04 90             	mov    (%eax,%edx,4),%eax
 804867d:	a3 d0 e6 1f 08       	mov    %eax,0x81fe6d0
 8048682:	a1 d0 e6 1f 08       	mov    0x81fe6d0,%eax
 8048687:	8b 15 dc e6 1f 08    	mov    0x81fe6dc,%edx
 804868d:	8b 04 85 90 57 05 08 	mov    0x8055790(,%eax,4),%eax
 8048694:	8b 04 90             	mov    (%eax,%edx,4),%eax
 8048697:	a3 d0 e6 1f 08       	mov    %eax,0x81fe6d0
 804869c:	a1 d0 e6 1f 08       	mov    0x81fe6d0,%eax
 80486a1:	a3 d0 e6 1f 08       	mov    %eax,0x81fe6d0
 80486a6:	8b 0d d0 e6 1f 08    	mov    0x81fe6d0,%ecx
 80486ac:	c7 05 64 e8 3f 08 40 	movl   $0x8055740,0x83fe864
 80486b3:	57 05 08 
 80486b6:	8b 04 8d 60 e8 3f 08 	mov    0x83fe860(,%ecx,4),%eax
 80486bd:	8b 15 80 e8 5f 08    	mov    0x85fe880,%edx
 80486c3:	89 10                	mov    %edx,(%eax)
 80486c5:	c7 05 64 e8 3f 08 44 	movl   $0x8055744,0x83fe864
 80486cc:	57 05 08 
 80486cf:	8b 04 8d 60 e8 3f 08 	mov    0x83fe860(,%ecx,4),%eax
 80486d6:	8b 15 84 e8 5f 08    	mov    0x85fe884,%edx
 80486dc:	89 10                	mov    %edx,(%eax)
 80486de:	c7 05 64 e8 3f 08 48 	movl   $0x8055748,0x83fe864
 80486e5:	57 05 08 
 80486e8:	8b 04 8d 60 e8 3f 08 	mov    0x83fe860(,%ecx,4),%eax
 80486ef:	8b 15 88 e8 5f 08    	mov    0x85fe888,%edx
 80486f5:	89 10                	mov    %edx,(%eax)
 80486f7:	c7 05 64 e8 3f 08 4c 	movl   $0x805574c,0x83fe864
 80486fe:	57 05 08 
 8048701:	8b 04 8d 60 e8 3f 08 	mov    0x83fe860(,%ecx,4),%eax
 8048708:	8b 15 8c e8 5f 08    	mov    0x85fe88c,%edx
 804870e:	89 10                	mov    %edx,(%eax)
 8048710:	c7 05 64 e8 3f 08 50 	movl   $0x8055750,0x83fe864
 8048717:	57 05 08 
 804871a:	8b 04 8d 60 e8 3f 08 	mov    0x83fe860(,%ecx,4),%eax
 8048721:	8b 15 90 e8 5f 08    	mov    0x85fe890,%edx
 8048727:	89 10                	mov    %edx,(%eax)
 8048729:	c7 05 64 e8 3f 08 54 	movl   $0x8055754,0x83fe864
 8048730:	57 05 08 
 8048733:	8b 04 8d 60 e8 3f 08 	mov    0x83fe860(,%ecx,4),%eax
 804873a:	8b 15 94 e8 5f 08    	mov    0x85fe894,%edx
 8048740:	89 10                	mov    %edx,(%eax)
 8048742:	c7 05 64 e8 3f 08 60 	movl   $0x8055760,0x83fe864
 8048749:	57 05 08 
 804874c:	8b 04 8d 60 e8 3f 08 	mov    0x83fe860(,%ecx,4),%eax
 8048753:	8b 15 98 e8 5f 08    	mov    0x85fe898,%edx
 8048759:	89 10                	mov    %edx,(%eax)
 804875b:	8b 15 9c e8 5f 08    	mov    0x85fe89c,%edx
 8048761:	89 50 04             	mov    %edx,0x4(%eax)
 8048764:	c7 05 64 e8 3f 08 68 	movl   $0x8055768,0x83fe864
 804876b:	57 05 08 
 804876e:	8b 04 8d 60 e8 3f 08 	mov    0x83fe860(,%ecx,4),%eax
 8048775:	8b 15 a0 e8 5f 08    	mov    0x85fe8a0,%edx
 804877b:	89 10                	mov    %edx,(%eax)
 804877d:	8b 15 a4 e8 5f 08    	mov    0x85fe8a4,%edx
 8048783:	89 50 04             	mov    %edx,0x4(%eax)
 8048786:	a1 d0 e6 1f 08       	mov    0x81fe6d0,%eax
 804878b:	8b 04 85 40 e8 3f 08 	mov    0x83fe840(,%eax,4),%eax
 8048792:	c7 00 01 00 00 00    	movl   $0x1,(%eax)
 8048798:	b8 00 00 00 00       	mov    $0x0,%eax
 804879d:	a3 00 e8 1f 08       	mov    %eax,0x81fe800
 80487a2:	b8 20 e8 3f 08       	mov    $0x83fe820,%eax
 80487a7:	8b 15 48 e8 3f 08    	mov    0x83fe848,%edx
 80487ad:	a3 64 e8 3f 08       	mov    %eax,0x83fe864
 80487b2:	8b 04 95 60 e8 3f 08 	mov    0x83fe860(,%edx,4),%eax
 80487b9:	8b 15 20 e8 3f 08    	mov    0x83fe820,%edx
 80487bf:	8b 92 98 ff df ff    	mov    -0x200068(%edx),%edx
 80487c5:	89 10                	mov    %edx,(%eax)
 80487c7:	a1 20 e8 3f 08       	mov    0x83fe820,%eax
 80487cc:	8b 15 48 e8 3f 08    	mov    0x83fe848,%edx
 80487d2:	a3 64 e8 3f 08       	mov    %eax,0x83fe864
 80487d7:	8b 04 95 60 e8 3f 08 	mov    0x83fe860(,%edx,4),%eax
 80487de:	8b 15 00 e8 1f 08    	mov    0x81fe800,%edx
 80487e4:	89 10                	mov    %edx,(%eax)
 80487e6:	8b 25 20 e8 3f 08    	mov    0x83fe820,%esp
 80487ec:	c7 05 b4 e8 5f 08 a0 	movl   $0x80482a0,0x85fe8b4
 80487f3:	82 04 08 
 80487f6:	a1 48 e8 3f 08       	mov    0x83fe848,%eax
 80487fb:	8b 04 85 b8 e8 5f 08 	mov    0x85fe8b8(,%eax,4),%eax
 8048802:	8b 00                	mov    (%eax),%eax
 8048804:	a1 58 e8 3f 08       	mov    0x83fe858,%eax
 8048809:	ba 04 88 04 88       	mov    $0x88048804,%edx
 804880e:	c7 05 70 e8 5f 08 01 	movl   $0xcc000001,0x85fe870
 8048815:	00 00 cc 
 8048818:	a3 e0 e6 1f 08       	mov    %eax,0x81fe6e0
 804881d:	89 15 e4 e6 1f 08    	mov    %edx,0x81fe6e4
 8048823:	b8 00 00 00 00       	mov    $0x0,%eax
 8048828:	b9 00 00 00 00       	mov    $0x0,%ecx
 804882d:	ba 00 00 00 00       	mov    $0x0,%edx
 8048832:	a0 e0 e6 1f 08       	mov    0x81fe6e0,%al
 8048837:	8b 0c 85 f0 8c 05 08 	mov    0x8058cf0(,%eax,4),%ecx
 804883e:	8a 15 e4 e6 1f 08    	mov    0x81fe6e4,%dl
 8048844:	8a 14 11             	mov    (%ecx,%edx,1),%dl
 8048847:	89 15 d0 e6 1f 08    	mov    %edx,0x81fe6d0
 804884d:	a0 e1 e6 1f 08       	mov    0x81fe6e1,%al
 8048852:	8b 0c 85 f0 8c 05 08 	mov    0x8058cf0(,%eax,4),%ecx
 8048859:	8a 15 e5 e6 1f 08    	mov    0x81fe6e5,%dl
 804885f:	8a 14 11             	mov    (%ecx,%edx,1),%dl
 8048862:	89 15 d4 e6 1f 08    	mov    %edx,0x81fe6d4
 8048868:	a0 e2 e6 1f 08       	mov    0x81fe6e2,%al
 804886d:	8b 0c 85 f0 8c 05 08 	mov    0x8058cf0(,%eax,4),%ecx
 8048874:	8a 15 e6 e6 1f 08    	mov    0x81fe6e6,%dl
 804887a:	8a 14 11             	mov    (%ecx,%edx,1),%dl
 804887d:	89 15 d8 e6 1f 08    	mov    %edx,0x81fe6d8
 8048883:	a0 e3 e6 1f 08       	mov    0x81fe6e3,%al
 8048888:	8b 0c 85 f0 8c 05 08 	mov    0x8058cf0(,%eax,4),%ecx
 804888f:	8a 15 e7 e6 1f 08    	mov    0x81fe6e7,%dl
 8048895:	8a 14 11             	mov    (%ecx,%edx,1),%dl
 8048898:	89 15 dc e6 1f 08    	mov    %edx,0x81fe6dc
 804889e:	c7 05 70 e8 5f 08 02 	movl   $0xcc000002,0x85fe870
 80488a5:	00 00 cc 
 80488a8:	a1 d0 e6 1f 08       	mov    0x81fe6d0,%eax
 80488ad:	8b 15 d4 e6 1f 08    	mov    0x81fe6d4,%edx
 80488b3:	8b 04 85 90 57 05 08 	mov    0x8055790(,%eax,4),%eax
 80488ba:	8b 04 90             	mov    (%eax,%edx,4),%eax
 80488bd:	a3 d0 e6 1f 08       	mov    %eax,0x81fe6d0
 80488c2:	c7 05 70 e8 5f 08 03 	movl   $0xcc000003,0x85fe870
 80488c9:	00 00 cc 
 80488cc:	a1 d0 e6 1f 08       	mov    0x81fe6d0,%eax
 80488d1:	8b 15 d8 e6 1f 08    	mov    0x81fe6d8,%edx
 80488d7:	8b 04 85 90 57 05 08 	mov    0x8055790(,%eax,4),%eax
 80488de:	8b 04 90             	mov    (%eax,%edx,4),%eax
 80488e1:	a3 d0 e6 1f 08       	mov    %eax,0x81fe6d0
 80488e6:	c7 05 70 e8 5f 08 04 	movl   $0xcc000004,0x85fe870
 80488ed:	00 00 cc 
 80488f0:	a1 d0 e6 1f 08       	mov    0x81fe6d0,%eax
 80488f5:	8b 15 dc e6 1f 08    	mov    0x81fe6dc,%edx
 80488fb:	8b 04 85 90 57 05 08 	mov    0x8055790(,%eax,4),%eax
 8048902:	8b 04 90             	mov    (%eax,%edx,4),%eax
 8048905:	a3 d0 e6 1f 08       	mov    %eax,0x81fe6d0
 804890a:	a1 d0 e6 1f 08       	mov    0x81fe6d0,%eax
 804890f:	a3 d0 e6 1f 08       	mov    %eax,0x81fe6d0
 8048914:	c7 05 70 e8 5f 08 05 	movl   $0xcc000005,0x85fe870
 804891b:	00 00 cc 
 804891e:	8b 0d d0 e6 1f 08    	mov    0x81fe6d0,%ecx
 8048924:	c7 05 64 e8 3f 08 40 	movl   $0x8055740,0x83fe864
 804892b:	57 05 08 
 804892e:	8b 04 8d 60 e8 3f 08 	mov    0x83fe860(,%ecx,4),%eax
 8048935:	8b 15 80 e8 5f 08    	mov    0x85fe880,%edx
 804893b:	89 10                	mov    %edx,(%eax)
 804893d:	c7 05 64 e8 3f 08 44 	movl   $0x8055744,0x83fe864
 8048944:	57 05 08 
 8048947:	8b 04 8d 60 e8 3f 08 	mov    0x83fe860(,%ecx,4),%eax
 804894e:	8b 15 84 e8 5f 08    	mov    0x85fe884,%edx
 8048954:	89 10                	mov    %edx,(%eax)
 8048956:	c7 05 64 e8 3f 08 48 	movl   $0x8055748,0x83fe864
 804895d:	57 05 08 
 8048960:	8b 04 8d 60 e8 3f 08 	mov    0x83fe860(,%ecx,4),%eax
 8048967:	8b 15 88 e8 5f 08    	mov    0x85fe888,%edx
 804896d:	89 10                	mov    %edx,(%eax)
 804896f:	c7 05 64 e8 3f 08 4c 	movl   $0x805574c,0x83fe864
 8048976:	57 05 08 
 8048979:	8b 04 8d 60 e8 3f 08 	mov    0x83fe860(,%ecx,4),%eax
 8048980:	8b 15 8c e8 5f 08    	mov    0x85fe88c,%edx
 8048986:	89 10                	mov    %edx,(%eax)
 8048988:	c7 05 64 e8 3f 08 50 	movl   $0x8055750,0x83fe864
 804898f:	57 05 08 
 8048992:	8b 04 8d 60 e8 3f 08 	mov    0x83fe860(,%ecx,4),%eax
 8048999:	8b 15 90 e8 5f 08    	mov    0x85fe890,%edx
 804899f:	89 10                	mov    %edx,(%eax)
 80489a1:	c7 05 64 e8 3f 08 54 	movl   $0x8055754,0x83fe864
 80489a8:	57 05 08 
 80489ab:	8b 04 8d 60 e8 3f 08 	mov    0x83fe860(,%ecx,4),%eax
 80489b2:	8b 15 94 e8 5f 08    	mov    0x85fe894,%edx
 80489b8:	89 10                	mov    %edx,(%eax)
 80489ba:	c7 05 64 e8 3f 08 60 	movl   $0x8055760,0x83fe864
 80489c1:	57 05 08 
 80489c4:	8b 04 8d 60 e8 3f 08 	mov    0x83fe860(,%ecx,4),%eax
 80489cb:	8b 15 98 e8 5f 08    	mov    0x85fe898,%edx
 80489d1:	89 10                	mov    %edx,(%eax)
 80489d3:	8b 15 9c e8 5f 08    	mov    0x85fe89c,%edx
 80489d9:	89 50 04             	mov    %edx,0x4(%eax)
 80489dc:	c7 05 64 e8 3f 08 68 	movl   $0x8055768,0x83fe864
 80489e3:	57 05 08 
 80489e6:	8b 04 8d 60 e8 3f 08 	mov    0x83fe860(,%ecx,4),%eax
 80489ed:	8b 15 a0 e8 5f 08    	mov    0x85fe8a0,%edx
 80489f3:	89 10                	mov    %edx,(%eax)
 80489f5:	8b 15 a4 e8 5f 08    	mov    0x85fe8a4,%edx
 80489fb:	89 50 04             	mov    %edx,0x4(%eax)
 80489fe:	c7 05 70 e8 5f 08 06 	movl   $0xcc000006,0x85fe870
 8048a05:	00 00 cc 
 8048a08:	a1 d0 e6 1f 08       	mov    0x81fe6d0,%eax
 8048a0d:	8b 04 85 40 e8 3f 08 	mov    0x83fe840(,%eax,4),%eax
 8048a14:	c7 00 01 00 00 00    	movl   $0x1,(%eax)
 8048a1a:	c7 05 70 e8 5f 08 07 	movl   $0xcc000007,0x85fe870
 8048a21:	00 00 cc 
 8048a24:	a1 24 e8 3f 08       	mov    0x83fe824,%eax
 8048a29:	a3 00 e8 1f 08       	mov    %eax,0x81fe800
 8048a2e:	b8 20 e8 3f 08       	mov    $0x83fe820,%eax
 8048a33:	8b 15 48 e8 3f 08    	mov    0x83fe848,%edx
 8048a39:	c7 05 70 e8 5f 08 08 	movl   $0xcc000008,0x85fe870
 8048a40:	00 00 cc 
 8048a43:	a3 64 e8 3f 08       	mov    %eax,0x83fe864
 8048a48:	8b 04 95 60 e8 3f 08 	mov    0x83fe860(,%edx,4),%eax
 8048a4f:	8b 15 20 e8 3f 08    	mov    0x83fe820,%edx
 8048a55:	8b 92 98 ff df ff    	mov    -0x200068(%edx),%edx
 8048a5b:	89 10                	mov    %edx,(%eax)
 8048a5d:	a1 20 e8 3f 08       	mov    0x83fe820,%eax
 8048a62:	8b 15 48 e8 3f 08    	mov    0x83fe848,%edx
 8048a68:	c7 05 70 e8 5f 08 09 	movl   $0xcc000009,0x85fe870
 8048a6f:	00 00 cc 
 8048a72:	a3 64 e8 3f 08       	mov    %eax,0x83fe864
 8048a77:	8b 04 95 60 e8 3f 08 	mov    0x83fe860(,%edx,4),%eax
 8048a7e:	8b 15 00 e8 1f 08    	mov    0x81fe800,%edx
 8048a84:	89 10                	mov    %edx,(%eax)
 8048a86:	c7 05 70 e8 5f 08 0a 	movl   $0xcc00000a,0x85fe870
 8048a8d:	00 00 cc 
 8048a90:	a1 44 57 05 08       	mov    0x8055744,%eax
 8048a95:	a3 00 e8 1f 08       	mov    %eax,0x81fe800
 8048a9a:	b8 20 e8 3f 08       	mov    $0x83fe820,%eax
 8048a9f:	8b 15 48 e8 3f 08    	mov    0x83fe848,%edx
 8048aa5:	c7 05 70 e8 5f 08 0b 	movl   $0xcc00000b,0x85fe870
 8048aac:	00 00 cc 
 8048aaf:	a3 64 e8 3f 08       	mov    %eax,0x83fe864
 8048ab4:	8b 04 95 60 e8 3f 08 	mov    0x83fe860(,%edx,4),%eax
 8048abb:	8b 15 20 e8 3f 08    	mov    0x83fe820,%edx
 8048ac1:	8b 92 98 ff df ff    	mov    -0x200068(%edx),%edx
 8048ac7:	89 10                	mov    %edx,(%eax)
 8048ac9:	a1 20 e8 3f 08       	mov    0x83fe820,%eax
 8048ace:	8b 15 48 e8 3f 08    	mov    0x83fe848,%edx
 8048ad4:	c7 05 70 e8 5f 08 0c 	movl   $0xcc00000c,0x85fe870
 8048adb:	00 00 cc 
 8048ade:	a3 64 e8 3f 08       	mov    %eax,0x83fe864
 8048ae3:	8b 04 95 60 e8 3f 08 	mov    0x83fe860(,%edx,4),%eax
 8048aea:	8b 15 00 e8 1f 08    	mov    0x81fe800,%edx
 8048af0:	89 10                	mov    %edx,(%eax)
 8048af2:	c7 05 70 e8 5f 08 0d 	movl   $0xcc00000d,0x85fe870
 8048af9:	00 00 cc 
 8048afc:	a1 48 57 05 08       	mov    0x8055748,%eax
 8048b01:	a3 00 e8 1f 08       	mov    %eax,0x81fe800
 8048b06:	b8 20 e8 3f 08       	mov    $0x83fe820,%eax
 8048b0b:	8b 15 48 e8 3f 08    	mov    0x83fe848,%edx
 8048b11:	c7 05 70 e8 5f 08 0e 	movl   $0xcc00000e,0x85fe870
 8048b18:	00 00 cc 
 8048b1b:	a3 64 e8 3f 08       	mov    %eax,0x83fe864
 8048b20:	8b 04 95 60 e8 3f 08 	mov    0x83fe860(,%edx,4),%eax
 8048b27:	8b 15 20 e8 3f 08    	mov    0x83fe820,%edx
 8048b2d:	8b 92 98 ff df ff    	mov    -0x200068(%edx),%edx
 8048b33:	89 10                	mov    %edx,(%eax)
 8048b35:	a1 20 e8 3f 08       	mov    0x83fe820,%eax
 8048b3a:	8b 15 48 e8 3f 08    	mov    0x83fe848,%edx
 8048b40:	c7 05 70 e8 5f 08 0f 	movl   $0xcc00000f,0x85fe870
 8048b47:	00 00 cc 
 8048b4a:	a3 64 e8 3f 08       	mov    %eax,0x83fe864
 8048b4f:	8b 04 95 60 e8 3f 08 	mov    0x83fe860(,%edx,4),%eax
 8048b56:	8b 15 00 e8 1f 08    	mov    0x81fe800,%edx
 8048b5c:	89 10                	mov    %edx,(%eax)
 8048b5e:	c7 05 70 e8 5f 08 10 	movl   $0xcc000010,0x85fe870
 8048b65:	00 00 cc 
 8048b68:	a1 4c 57 05 08       	mov    0x805574c,%eax
 8048b6d:	a3 00 e8 1f 08       	mov    %eax,0x81fe800
 8048b72:	b8 20 e8 3f 08       	mov    $0x83fe820,%eax
 8048b77:	8b 15 48 e8 3f 08    	mov    0x83fe848,%edx
 8048b7d:	c7 05 70 e8 5f 08 11 	movl   $0xcc000011,0x85fe870
 8048b84:	00 00 cc 
 8048b87:	a3 64 e8 3f 08       	mov    %eax,0x83fe864
 8048b8c:	8b 04 95 60 e8 3f 08 	mov    0x83fe860(,%edx,4),%eax
 8048b93:	8b 15 20 e8 3f 08    	mov    0x83fe820,%edx
 8048b99:	8b 92 98 ff df ff    	mov    -0x200068(%edx),%edx
 8048b9f:	89 10                	mov    %edx,(%eax)
 8048ba1:	a1 20 e8 3f 08       	mov    0x83fe820,%eax
 8048ba6:	8b 15 48 e8 3f 08    	mov    0x83fe848,%edx
 8048bac:	c7 05 70 e8 5f 08 12 	movl   $0xcc000012,0x85fe870
 8048bb3:	00 00 cc 
 8048bb6:	a3 64 e8 3f 08       	mov    %eax,0x83fe864
 8048bbb:	8b 04 95 60 e8 3f 08 	mov    0x83fe860(,%edx,4),%eax
 8048bc2:	8b 15 00 e8 1f 08    	mov    0x81fe800,%edx
 8048bc8:	89 10                	mov    %edx,(%eax)
 8048bca:	c7 05 70 e8 5f 08 13 	movl   $0xcc000013,0x85fe870
 8048bd1:	00 00 cc 
 8048bd4:	a1 54 57 05 08       	mov    0x8055754,%eax
 8048bd9:	a3 00 e8 1f 08       	mov    %eax,0x81fe800
 8048bde:	b8 20 e8 3f 08       	mov    $0x83fe820,%eax
 8048be3:	8b 15 48 e8 3f 08    	mov    0x83fe848,%edx
 8048be9:	c7 05 70 e8 5f 08 14 	movl   $0xcc000014,0x85fe870
 8048bf0:	00 00 cc 
 8048bf3:	a3 64 e8 3f 08       	mov    %eax,0x83fe864
 8048bf8:	8b 04 95 60 e8 3f 08 	mov    0x83fe860(,%edx,4),%eax
 8048bff:	8b 15 20 e8 3f 08    	mov    0x83fe820,%edx
 8048c05:	8b 92 98 ff df ff    	mov    -0x200068(%edx),%edx
 8048c0b:	89 10                	mov    %edx,(%eax)
 8048c0d:	a1 20 e8 3f 08       	mov    0x83fe820,%eax
 8048c12:	8b 15 48 e8 3f 08    	mov    0x83fe848,%edx
 8048c18:	c7 05 70 e8 5f 08 15 	movl   $0xcc000015,0x85fe870
 8048c1f:	00 00 cc 
 8048c22:	a3 64 e8 3f 08       	mov    %eax,0x83fe864
 8048c27:	8b 04 95 60 e8 3f 08 	mov    0x83fe860(,%edx,4),%eax
 8048c2e:	8b 15 00 e8 1f 08    	mov    0x81fe800,%edx
 8048c34:	89 10                	mov    %edx,(%eax)
 8048c36:	c7 05 70 e8 5f 08 16 	movl   $0xcc000016,0x85fe870
 8048c3d:	00 00 cc 
 8048c40:	a1 68 57 05 08       	mov    0x8055768,%eax
 8048c45:	a3 00 e8 1f 08       	mov    %eax,0x81fe800
 8048c4a:	a1 6c 57 05 08       	mov    0x805576c,%eax
 8048c4f:	a3 04 e8 1f 08       	mov    %eax,0x81fe804
 8048c54:	b8 20 e8 3f 08       	mov    $0x83fe820,%eax
 8048c59:	8b 15 48 e8 3f 08    	mov    0x83fe848,%edx
 8048c5f:	c7 05 70 e8 5f 08 17 	movl   $0xcc000017,0x85fe870
 8048c66:	00 00 cc 
 8048c69:	a3 64 e8 3f 08       	mov    %eax,0x83fe864
 8048c6e:	8b 04 95 60 e8 3f 08 	mov    0x83fe860(,%edx,4),%eax
 8048c75:	8b 15 20 e8 3f 08    	mov    0x83fe820,%edx
 8048c7b:	8b 92 98 ff df ff    	mov    -0x200068(%edx),%edx
 8048c81:	8b 92 98 ff df ff    	mov    -0x200068(%edx),%edx
 8048c87:	89 10                	mov    %edx,(%eax)
 8048c89:	a1 20 e8 3f 08       	mov    0x83fe820,%eax
 8048c8e:	8b 15 48 e8 3f 08    	mov    0x83fe848,%edx
 8048c94:	c7 05 70 e8 5f 08 18 	movl   $0xcc000018,0x85fe870
 8048c9b:	00 00 cc 
 8048c9e:	a3 64 e8 3f 08       	mov    %eax,0x83fe864
 8048ca3:	8b 04 95 60 e8 3f 08 	mov    0x83fe860(,%edx,4),%eax
 8048caa:	8b 15 00 e8 1f 08    	mov    0x81fe800,%edx
 8048cb0:	89 10                	mov    %edx,(%eax)
 8048cb2:	8b 15 04 e8 1f 08    	mov    0x81fe804,%edx
 8048cb8:	89 50 04             	mov    %edx,0x4(%eax)
 8048cbb:	b8 24 e8 3f 08       	mov    $0x83fe824,%eax
 8048cc0:	8b 15 48 e8 3f 08    	mov    0x83fe848,%edx
 8048cc6:	c7 05 70 e8 5f 08 19 	movl   $0xcc000019,0x85fe870
 8048ccd:	00 00 cc 
 8048cd0:	a3 64 e8 3f 08       	mov    %eax,0x83fe864
 8048cd5:	8b 04 95 60 e8 3f 08 	mov    0x83fe860(,%edx,4),%eax
 8048cdc:	8b 15 20 e8 3f 08    	mov    0x83fe820,%edx
 8048ce2:	89 10                	mov    %edx,(%eax)
 8048ce4:	a1 20 e8 3f 08       	mov    0x83fe820,%eax
 8048ce9:	8b 80 98 ff df ff    	mov    -0x200068(%eax),%eax
 8048cef:	8b 80 98 ff df ff    	mov    -0x200068(%eax),%eax
 8048cf5:	8b 80 98 ff df ff    	mov    -0x200068(%eax),%eax
 8048cfb:	8b 80 98 ff df ff    	mov    -0x200068(%eax),%eax
 8048d01:	8b 80 98 ff df ff    	mov    -0x200068(%eax),%eax
 8048d07:	8b 80 98 ff df ff    	mov    -0x200068(%eax),%eax
 8048d0d:	8b 80 98 ff df ff    	mov    -0x200068(%eax),%eax
 8048d13:	8b 80 98 ff df ff    	mov    -0x200068(%eax),%eax
 8048d19:	8b 80 98 ff df ff    	mov    -0x200068(%eax),%eax
 8048d1f:	8b 80 98 ff df ff    	mov    -0x200068(%eax),%eax
 8048d25:	8b 80 98 ff df ff    	mov    -0x200068(%eax),%eax
 8048d2b:	8b 80 98 ff df ff    	mov    -0x200068(%eax),%eax
 8048d31:	8b 80 98 ff df ff    	mov    -0x200068(%eax),%eax
 8048d37:	8b 80 98 ff df ff    	mov    -0x200068(%eax),%eax
 8048d3d:	8b 80 98 ff df ff    	mov    -0x200068(%eax),%eax
 8048d43:	8b 80 98 ff df ff    	mov    -0x200068(%eax),%eax
 8048d49:	8b 80 98 ff df ff    	mov    -0x200068(%eax),%eax
 8048d4f:	8b 80 98 ff df ff    	mov    -0x200068(%eax),%eax
 8048d55:	8b 80 98 ff df ff    	mov    -0x200068(%eax),%eax
 8048d5b:	8b 80 98 ff df ff    	mov    -0x200068(%eax),%eax
 8048d61:	8b 80 98 ff df ff    	mov    -0x200068(%eax),%eax
 8048d67:	8b 80 98 ff df ff    	mov    -0x200068(%eax),%eax
 8048d6d:	8b 80 98 ff df ff    	mov    -0x200068(%eax),%eax
 8048d73:	8b 80 98 ff df ff    	mov    -0x200068(%eax),%eax
 8048d79:	8b 80 98 ff df ff    	mov    -0x200068(%eax),%eax
 8048d7f:	8b 80 98 ff df ff    	mov    -0x200068(%eax),%eax
 8048d85:	8b 80 98 ff df ff    	mov    -0x200068(%eax),%eax
 8048d8b:	8b 80 98 ff df ff    	mov    -0x200068(%eax),%eax
 8048d91:	8b 80 98 ff df ff    	mov    -0x200068(%eax),%eax
 8048d97:	8b 80 98 ff df ff    	mov    -0x200068(%eax),%eax
 8048d9d:	8b 80 98 ff df ff    	mov    -0x200068(%eax),%eax
 8048da3:	8b 80 98 ff df ff    	mov    -0x200068(%eax),%eax
 8048da9:	8b 80 98 ff df ff    	mov    -0x200068(%eax),%eax
 8048daf:	8b 80 98 ff df ff    	mov    -0x200068(%eax),%eax
 8048db5:	8b 80 98 ff df ff    	mov    -0x200068(%eax),%eax
 8048dbb:	8b 80 98 ff df ff    	mov    -0x200068(%eax),%eax
 8048dc1:	8b 80 98 ff df ff    	mov    -0x200068(%eax),%eax
 8048dc7:	8b 80 98 ff df ff    	mov    -0x200068(%eax),%eax
 8048dcd:	8b 80 98 ff df ff    	mov    -0x200068(%eax),%eax
 8048dd3:	8b 80 98 ff df ff    	mov    -0x200068(%eax),%eax
 8048dd9:	8b 80 98 ff df ff    	mov    -0x200068(%eax),%eax
 8048ddf:	8b 80 98 ff df ff    	mov    -0x200068(%eax),%eax
 8048de5:	a3 00 e8 1f 08       	mov    %eax,0x81fe800
 8048dea:	b8 20 e8 3f 08       	mov    $0x83fe820,%eax
 8048def:	8b 15 48 e8 3f 08    	mov    0x83fe848,%edx
 8048df5:	c7 05 70 e8 5f 08 1a 	movl   $0xcc00001a,0x85fe870
 8048dfc:	00 00 cc 
 8048dff:	a3 64 e8 3f 08       	mov    %eax,0x83fe864
 8048e04:	8b 04 95 60 e8 3f 08 	mov    0x83fe860(,%edx,4),%eax
 8048e0b:	8b 15 00 e8 1f 08    	mov    0x81fe800,%edx
 8048e11:	89 10                	mov    %edx,(%eax)
 8048e13:	c7 05 70 e8 5f 08 1b 	movl   $0xcc00001b,0x85fe870
 8048e1a:	00 00 cc 
 8048e1d:	a1 24 e8 3f 08       	mov    0x83fe824,%eax
 8048e22:	8b 80 98 ff df ff    	mov    -0x200068(%eax),%eax
 8048e28:	8b 80 98 ff df ff    	mov    -0x200068(%eax),%eax
 8048e2e:	8b 80 98 ff df ff    	mov    -0x200068(%eax),%eax
 8048e34:	8b 80 98 ff df ff    	mov    -0x200068(%eax),%eax
 8048e3a:	8b 80 98 ff df ff    	mov    -0x200068(%eax),%eax
 8048e40:	8b 80 98 ff df ff    	mov    -0x200068(%eax),%eax
 8048e46:	8b 80 98 ff df ff    	mov    -0x200068(%eax),%eax
 8048e4c:	8b 80 98 ff df ff    	mov    -0x200068(%eax),%eax
 8048e52:	8b 80 98 ff df ff    	mov    -0x200068(%eax),%eax
 8048e58:	8b 80 98 ff df ff    	mov    -0x200068(%eax),%eax
 8048e5e:	8b 80 98 ff df ff    	mov    -0x200068(%eax),%eax
 8048e64:	8b 80 98 ff df ff    	mov    -0x200068(%eax),%eax
 8048e6a:	8b 80 98 ff df ff    	mov    -0x200068(%eax),%eax
 8048e70:	8b 80 98 ff df ff    	mov    -0x200068(%eax),%eax
 8048e76:	8b 80 98 ff df ff    	mov    -0x200068(%eax),%eax
 8048e7c:	8b 80 98 ff df ff    	mov    -0x200068(%eax),%eax
 8048e82:	8b 80 98 ff df ff    	mov    -0x200068(%eax),%eax
 8048e88:	8b 80 98 ff df ff    	mov    -0x200068(%eax),%eax
 8048e8e:	8b 80 98 ff df ff    	mov    -0x200068(%eax),%eax
 8048e94:	8b 80 98 ff df ff    	mov    -0x200068(%eax),%eax
 8048e9a:	8b 80 98 ff df ff    	mov    -0x200068(%eax),%eax
 8048ea0:	8b 80 98 ff df ff    	mov    -0x200068(%eax),%eax
 8048ea6:	8b 80 98 ff df ff    	mov    -0x200068(%eax),%eax
 8048eac:	8b 80 98 ff df ff    	mov    -0x200068(%eax),%eax
 8048eb2:	8b 80 98 ff df ff    	mov    -0x200068(%eax),%eax
 8048eb8:	8b 80 98 ff df ff    	mov    -0x200068(%eax),%eax
 8048ebe:	8b 80 98 ff df ff    	mov    -0x200068(%eax),%eax
 8048ec4:	8b 80 98 ff df ff    	mov    -0x200068(%eax),%eax
 8048eca:	8b 80 98 ff df ff    	mov    -0x200068(%eax),%eax
 8048ed0:	8b 80 98 ff df ff    	mov    -0x200068(%eax),%eax
 8048ed6:	8b 80 98 ff df ff    	mov    -0x200068(%eax),%eax
 8048edc:	8b 80 98 ff df ff    	mov    -0x200068(%eax),%eax
 8048ee2:	a3 4c 57 05 08       	mov    %eax,0x805574c
 8048ee7:	c7 05 70 e8 5f 08 1c 	movl   $0xcc00001c,0x85fe870
 8048eee:	00 00 cc 
 8048ef1:	b8 90 56 05 08       	mov    $0x8055690,%eax
 8048ef6:	a3 48 57 05 08       	mov    %eax,0x8055748
 8048efb:	c7 05 70 e8 5f 08 1d 	movl   $0xcc00001d,0x85fe870
 8048f02:	00 00 cc 
 8048f05:	c7 05 70 e8 5f 08 1e 	movl   $0xcc00001e,0x85fe870
 8048f0c:	00 00 cc 
 8048f0f:	a1 4c 57 05 08       	mov    0x805574c,%eax
 8048f14:	8b 0d 48 e8 3f 08    	mov    0x83fe848,%ecx
 8048f1a:	c7 05 70 e8 5f 08 1f 	movl   $0xcc00001f,0x85fe870
 8048f21:	00 00 cc 
 8048f24:	a3 64 e8 3f 08       	mov    %eax,0x83fe864
 8048f29:	8b 04 8d 60 e8 3f 08 	mov    0x83fe860(,%ecx,4),%eax
 8048f30:	8b 15 48 57 05 08    	mov    0x8055748,%edx
 8048f36:	8b 0d 48 e8 3f 08    	mov    0x83fe848,%ecx
 8048f3c:	c7 05 70 e8 5f 08 20 	movl   $0xcc000020,0x85fe870
 8048f43:	00 00 cc 
 8048f46:	89 15 64 e8 3f 08    	mov    %edx,0x83fe864
 8048f4c:	8b 14 8d 60 e8 3f 08 	mov    0x83fe860(,%ecx,4),%edx
 8048f53:	8b 0a                	mov    (%edx),%ecx
 8048f55:	89 08                	mov    %ecx,(%eax)
 8048f57:	8b 4a 04             	mov    0x4(%edx),%ecx
 8048f5a:	89 48 04             	mov    %ecx,0x4(%eax)
 8048f5d:	8b 4a 08             	mov    0x8(%edx),%ecx
 8048f60:	89 48 08             	mov    %ecx,0x8(%eax)
 8048f63:	8b 4a 0c             	mov    0xc(%edx),%ecx
 8048f66:	89 48 0c             	mov    %ecx,0xc(%eax)
 8048f69:	8b 4a 10             	mov    0x10(%edx),%ecx
 8048f6c:	89 48 10             	mov    %ecx,0x10(%eax)
 8048f6f:	8b 4a 14             	mov    0x14(%edx),%ecx
 8048f72:	89 48 14             	mov    %ecx,0x14(%eax)
 8048f75:	8b 4a 18             	mov    0x18(%edx),%ecx
 8048f78:	89 48 18             	mov    %ecx,0x18(%eax)
 8048f7b:	8b 4a 1c             	mov    0x1c(%edx),%ecx
 8048f7e:	89 48 1c             	mov    %ecx,0x1c(%eax)
 8048f81:	8b 4a 20             	mov    0x20(%edx),%ecx
 8048f84:	89 48 20             	mov    %ecx,0x20(%eax)
 8048f87:	8b 4a 24             	mov    0x24(%edx),%ecx
 8048f8a:	89 48 24             	mov    %ecx,0x24(%eax)
 8048f8d:	8b 4a 28             	mov    0x28(%edx),%ecx
 8048f90:	89 48 28             	mov    %ecx,0x28(%eax)
 8048f93:	8b 4a 2c             	mov    0x2c(%edx),%ecx
 8048f96:	89 48 2c             	mov    %ecx,0x2c(%eax)
 8048f99:	8b 4a 30             	mov    0x30(%edx),%ecx
 8048f9c:	89 48 30             	mov    %ecx,0x30(%eax)
 8048f9f:	8b 4a 34             	mov    0x34(%edx),%ecx
 8048fa2:	89 48 34             	mov    %ecx,0x34(%eax)
 8048fa5:	8b 4a 38             	mov    0x38(%edx),%ecx
 8048fa8:	89 48 38             	mov    %ecx,0x38(%eax)
 8048fab:	8b 4a 3c             	mov    0x3c(%edx),%ecx
 8048fae:	89 48 3c             	mov    %ecx,0x3c(%eax)
 8048fb1:	8b 4a 40             	mov    0x40(%edx),%ecx
 8048fb4:	89 48 40             	mov    %ecx,0x40(%eax)
 8048fb7:	8b 4a 44             	mov    0x44(%edx),%ecx
 8048fba:	89 48 44             	mov    %ecx,0x44(%eax)
 8048fbd:	8b 4a 48             	mov    0x48(%edx),%ecx
 8048fc0:	89 48 48             	mov    %ecx,0x48(%eax)
 8048fc3:	8b 4a 4c             	mov    0x4c(%edx),%ecx
 8048fc6:	89 48 4c             	mov    %ecx,0x4c(%eax)
 8048fc9:	8b 4a 50             	mov    0x50(%edx),%ecx
 8048fcc:	89 48 50             	mov    %ecx,0x50(%eax)
 8048fcf:	8b 4a 54             	mov    0x54(%edx),%ecx
 8048fd2:	89 48 54             	mov    %ecx,0x54(%eax)
 8048fd5:	8b 4a 58             	mov    0x58(%edx),%ecx
 8048fd8:	89 48 58             	mov    %ecx,0x58(%eax)
 8048fdb:	8b 4a 5c             	mov    0x5c(%edx),%ecx
 8048fde:	89 48 5c             	mov    %ecx,0x5c(%eax)
 8048fe1:	8b 4a 60             	mov    0x60(%edx),%ecx
 8048fe4:	89 48 60             	mov    %ecx,0x60(%eax)
 8048fe7:	8b 4a 64             	mov    0x64(%edx),%ecx
 8048fea:	89 48 64             	mov    %ecx,0x64(%eax)
 8048fed:	8b 4a 68             	mov    0x68(%edx),%ecx
 8048ff0:	89 48 68             	mov    %ecx,0x68(%eax)
 8048ff3:	8b 4a 6c             	mov    0x6c(%edx),%ecx
 8048ff6:	89 48 6c             	mov    %ecx,0x6c(%eax)
 8048ff9:	8b 4a 70             	mov    0x70(%edx),%ecx
 8048ffc:	89 48 70             	mov    %ecx,0x70(%eax)
 8048fff:	8b 4a 74             	mov    0x74(%edx),%ecx
 8049002:	89 48 74             	mov    %ecx,0x74(%eax)
 8049005:	8b 4a 78             	mov    0x78(%edx),%ecx
 8049008:	89 48 78             	mov    %ecx,0x78(%eax)
 804900b:	8b 4a 7c             	mov    0x7c(%edx),%ecx
 804900e:	89 48 7c             	mov    %ecx,0x7c(%eax)
 8049011:	c7 05 70 e8 5f 08 21 	movl   $0xcc000021,0x85fe870
 8049018:	00 00 cc 
 804901b:	b8 34 57 05 08       	mov    $0x8055734,%eax
 8049020:	a3 4c 57 05 08       	mov    %eax,0x805574c
 8049025:	c7 05 70 e8 5f 08 22 	movl   $0xcc000022,0x85fe870
 804902c:	00 00 cc 
 804902f:	a1 4c 57 05 08       	mov    0x805574c,%eax
 8049034:	c7 05 70 e8 5f 08 23 	movl   $0xcc000023,0x85fe870
 804903b:	00 00 cc 
 804903e:	89 c0                	mov    %eax,%eax
 8049040:	a3 00 e8 1f 08       	mov    %eax,0x81fe800
 8049045:	b8 20 e8 3f 08       	mov    $0x83fe820,%eax
 804904a:	8b 15 48 e8 3f 08    	mov    0x83fe848,%edx
 8049050:	c7 05 70 e8 5f 08 24 	movl   $0xcc000024,0x85fe870
 8049057:	00 00 cc 
 804905a:	a3 64 e8 3f 08       	mov    %eax,0x83fe864
 804905f:	8b 04 95 60 e8 3f 08 	mov    0x83fe860(,%edx,4),%eax
 8049066:	8b 15 20 e8 3f 08    	mov    0x83fe820,%edx
 804906c:	8b 92 98 ff df ff    	mov    -0x200068(%edx),%edx
 8049072:	89 10                	mov    %edx,(%eax)
 8049074:	a1 20 e8 3f 08       	mov    0x83fe820,%eax
 8049079:	8b 15 48 e8 3f 08    	mov    0x83fe848,%edx
 804907f:	c7 05 70 e8 5f 08 25 	movl   $0xcc000025,0x85fe870
 8049086:	00 00 cc 
 8049089:	a3 64 e8 3f 08       	mov    %eax,0x83fe864
 804908e:	8b 04 95 60 e8 3f 08 	mov    0x83fe860(,%edx,4),%eax
 8049095:	8b 15 00 e8 1f 08    	mov    0x81fe800,%edx
 804909b:	89 10                	mov    %edx,(%eax)
 804909d:	c7 05 70 e8 5f 08 26 	movl   $0xcc000026,0x85fe870
 80490a4:	00 00 cc 
 80490a7:	c7 05 70 e8 5f 08 27 	movl   $0xcc000027,0x85fe870
 80490ae:	00 00 cc 
 80490b1:	b8 ec 91 04 88       	mov    $0x880491ec,%eax
 80490b6:	c7 05 70 e8 5f 08 28 	movl   $0xcc000028,0x85fe870
 80490bd:	00 00 cc 
 80490c0:	a3 e0 e6 1f 08       	mov    %eax,0x81fe6e0
 80490c5:	c7 05 e4 e6 1f 08 00 	movl   $0x80000000,0x81fe6e4
 80490cc:	00 00 80 
 80490cf:	c7 05 70 e8 5f 08 29 	movl   $0xcc000029,0x85fe870
 80490d6:	00 00 cc 
 80490d9:	b8 00 00 00 00       	mov    $0x0,%eax
 80490de:	b9 00 00 00 00       	mov    $0x0,%ecx
 80490e3:	c7 05 f0 e6 1f 08 00 	movl   $0x0,0x81fe6f0
 80490ea:	00 00 00 
 80490ed:	c7 05 70 e8 5f 08 2a 	movl   $0xcc00002a,0x85fe870
 80490f4:	00 00 cc 
 80490f7:	66 a1 e0 e6 1f 08    	mov    0x81fe6e0,%ax
 80490fd:	66 8b 0d e4 e6 1f 08 	mov    0x81fe6e4,%cx
 8049104:	8b 14 85 20 96 06 08 	mov    0x8069620(,%eax,4),%edx
 804910b:	8b 14 8a             	mov    (%edx,%ecx,4),%edx
 804910e:	66 8b 0d f2 e6 1f 08 	mov    0x81fe6f2,%cx
 8049115:	8b 14 95 20 96 06 08 	mov    0x8069620(,%edx,4),%edx
 804911c:	8b 14 8a             	mov    (%edx,%ecx,4),%edx
 804911f:	66 89 15 e8 e6 1f 08 	mov    %dx,0x81fe6e8
 8049126:	89 15 f0 e6 1f 08    	mov    %edx,0x81fe6f0
 804912c:	c7 05 70 e8 5f 08 2b 	movl   $0xcc00002b,0x85fe870
 8049133:	00 00 cc 
 8049136:	66 a1 e2 e6 1f 08    	mov    0x81fe6e2,%ax
 804913c:	66 8b 0d e6 e6 1f 08 	mov    0x81fe6e6,%cx
 8049143:	8b 14 85 20 96 06 08 	mov    0x8069620(,%eax,4),%edx
 804914a:	8b 14 8a             	mov    (%edx,%ecx,4),%edx
 804914d:	66 8b 0d f2 e6 1f 08 	mov    0x81fe6f2,%cx
 8049154:	8b 14 95 20 96 06 08 	mov    0x8069620(,%edx,4),%edx
 804915b:	8b 14 8a             	mov    (%edx,%ecx,4),%edx
 804915e:	66 89 15 ea e6 1f 08 	mov    %dx,0x81fe6ea
 8049165:	89 15 f0 e6 1f 08    	mov    %edx,0x81fe6f0
 804916b:	a1 e8 e6 1f 08       	mov    0x81fe6e8,%eax
 8049170:	c7 05 70 e8 5f 08 2c 	movl   $0xcc00002c,0x85fe870
 8049177:	00 00 cc 
 804917a:	89 c0                	mov    %eax,%eax
 804917c:	a3 00 e8 1f 08       	mov    %eax,0x81fe800
 8049181:	b8 20 e8 3f 08       	mov    $0x83fe820,%eax
 8049186:	8b 15 48 e8 3f 08    	mov    0x83fe848,%edx
 804918c:	c7 05 70 e8 5f 08 2d 	movl   $0xcc00002d,0x85fe870
 8049193:	00 00 cc 
 8049196:	a3 64 e8 3f 08       	mov    %eax,0x83fe864
 804919b:	8b 04 95 60 e8 3f 08 	mov    0x83fe860(,%edx,4),%eax
 80491a2:	8b 15 20 e8 3f 08    	mov    0x83fe820,%edx
 80491a8:	8b 92 98 ff df ff    	mov    -0x200068(%edx),%edx
 80491ae:	89 10                	mov    %edx,(%eax)
 80491b0:	a1 20 e8 3f 08       	mov    0x83fe820,%eax
 80491b5:	8b 15 48 e8 3f 08    	mov    0x83fe848,%edx
 80491bb:	c7 05 70 e8 5f 08 2e 	movl   $0xcc00002e,0x85fe870
 80491c2:	00 00 cc 
 80491c5:	a3 64 e8 3f 08       	mov    %eax,0x83fe864
 80491ca:	8b 04 95 60 e8 3f 08 	mov    0x83fe860(,%edx,4),%eax
 80491d1:	8b 15 00 e8 1f 08    	mov    0x81fe800,%edx
 80491d7:	89 10                	mov    %edx,(%eax)
 80491d9:	8b 25 20 e8 3f 08    	mov    0x83fe820,%esp
 80491df:	83 3d 48 e8 3f 08 01 	cmpl   $0x1,0x83fe848
 80491e6:	0f 84 84 f0 ff ff    	je     8048270 <printf@plt>
 80491ec:	a3 40 57 05 08       	mov    %eax,0x8055740
 80491f1:	c7 05 70 e8 5f 08 2f 	movl   $0xcc00002f,0x85fe870
 80491f8:	00 00 cc 
 80491fb:	a1 20 e8 3f 08       	mov    0x83fe820,%eax
 8049200:	8b 10                	mov    (%eax),%edx
 8049202:	89 15 00 e8 1f 08    	mov    %edx,0x81fe800
 8049208:	b8 20 e8 3f 08       	mov    $0x83fe820,%eax
 804920d:	8b 15 48 e8 3f 08    	mov    0x83fe848,%edx
 8049213:	c7 05 70 e8 5f 08 30 	movl   $0xcc000030,0x85fe870
 804921a:	00 00 cc 
 804921d:	a3 64 e8 3f 08       	mov    %eax,0x83fe864
 8049222:	8b 04 95 60 e8 3f 08 	mov    0x83fe860(,%edx,4),%eax
 8049229:	8b 15 20 e8 3f 08    	mov    0x83fe820,%edx
 804922f:	8b 92 a0 ff df ff    	mov    -0x200060(%edx),%edx
 8049235:	89 10                	mov    %edx,(%eax)
 8049237:	8b 15 00 e8 1f 08    	mov    0x81fe800,%edx
 804923d:	89 d0                	mov    %edx,%eax
 804923f:	a1 20 e8 3f 08       	mov    0x83fe820,%eax
 8049244:	8b 80 a0 ff df ff    	mov    -0x200060(%eax),%eax
 804924a:	a3 00 e8 1f 08       	mov    %eax,0x81fe800
 804924f:	b8 20 e8 3f 08       	mov    $0x83fe820,%eax
 8049254:	8b 15 48 e8 3f 08    	mov    0x83fe848,%edx
 804925a:	c7 05 70 e8 5f 08 31 	movl   $0xcc000031,0x85fe870
 8049261:	00 00 cc 
 8049264:	a3 64 e8 3f 08       	mov    %eax,0x83fe864
 8049269:	8b 04 95 60 e8 3f 08 	mov    0x83fe860(,%edx,4),%eax
 8049270:	8b 15 00 e8 1f 08    	mov    0x81fe800,%edx
 8049276:	89 10                	mov    %edx,(%eax)
 8049278:	c7 05 70 e8 5f 08 32 	movl   $0xcc000032,0x85fe870
 804927f:	00 00 cc 
 8049282:	b8 e0 e9 5f 08       	mov    $0x85fe9e0,%eax
 8049287:	a3 4c 57 05 08       	mov    %eax,0x805574c
 804928c:	c7 05 70 e8 5f 08 33 	movl   $0xcc000033,0x85fe870
 8049293:	00 00 cc 
 8049296:	a1 4c 57 05 08       	mov    0x805574c,%eax
 804929b:	8b 15 48 e8 3f 08    	mov    0x83fe848,%edx
 80492a1:	c7 05 70 e8 5f 08 34 	movl   $0xcc000034,0x85fe870
 80492a8:	00 00 cc 
 80492ab:	a3 64 e8 3f 08       	mov    %eax,0x83fe864
 80492b0:	8b 04 95 60 e8 3f 08 	mov    0x83fe860(,%edx,4),%eax
 80492b7:	8b 00                	mov    (%eax),%eax
 80492b9:	a3 4c 57 05 08       	mov    %eax,0x805574c
 80492be:	c7 05 70 e8 5f 08 35 	movl   $0xcc000035,0x85fe870
 80492c5:	00 00 cc 
 80492c8:	a1 4c 57 05 08       	mov    0x805574c,%eax
 80492cd:	c7 05 70 e8 5f 08 36 	movl   $0xcc000036,0x85fe870
 80492d4:	00 00 cc 
 80492d7:	89 c0                	mov    %eax,%eax
 80492d9:	a3 00 e8 1f 08       	mov    %eax,0x81fe800
 80492de:	b8 20 e8 3f 08       	mov    $0x83fe820,%eax
 80492e3:	8b 15 48 e8 3f 08    	mov    0x83fe848,%edx
 80492e9:	c7 05 70 e8 5f 08 37 	movl   $0xcc000037,0x85fe870
 80492f0:	00 00 cc 
 80492f3:	a3 64 e8 3f 08       	mov    %eax,0x83fe864
 80492f8:	8b 04 95 60 e8 3f 08 	mov    0x83fe860(,%edx,4),%eax
 80492ff:	8b 15 20 e8 3f 08    	mov    0x83fe820,%edx
 8049305:	8b 92 98 ff df ff    	mov    -0x200068(%edx),%edx
 804930b:	89 10                	mov    %edx,(%eax)
 804930d:	a1 20 e8 3f 08       	mov    0x83fe820,%eax
 8049312:	8b 15 48 e8 3f 08    	mov    0x83fe848,%edx
 8049318:	c7 05 70 e8 5f 08 38 	movl   $0xcc000038,0x85fe870
 804931f:	00 00 cc 
 8049322:	a3 64 e8 3f 08       	mov    %eax,0x83fe864
 8049327:	8b 04 95 60 e8 3f 08 	mov    0x83fe860(,%edx,4),%eax
 804932e:	8b 15 00 e8 1f 08    	mov    0x81fe800,%edx
 8049334:	89 10                	mov    %edx,(%eax)
 8049336:	c7 05 4c 57 05 08 40 	movl   $0x40,0x805574c
 804933d:	00 00 00 
 8049340:	c7 05 70 e8 5f 08 39 	movl   $0xcc000039,0x85fe870
 8049347:	00 00 cc 
 804934a:	a1 4c 57 05 08       	mov    0x805574c,%eax
 804934f:	c7 05 70 e8 5f 08 3a 	movl   $0xcc00003a,0x85fe870
 8049356:	00 00 cc 
 8049359:	89 c0                	mov    %eax,%eax
 804935b:	a3 00 e8 1f 08       	mov    %eax,0x81fe800
 8049360:	b8 20 e8 3f 08       	mov    $0x83fe820,%eax
 8049365:	8b 15 48 e8 3f 08    	mov    0x83fe848,%edx
 804936b:	c7 05 70 e8 5f 08 3b 	movl   $0xcc00003b,0x85fe870
 8049372:	00 00 cc 
 8049375:	a3 64 e8 3f 08       	mov    %eax,0x83fe864
 804937a:	8b 04 95 60 e8 3f 08 	mov    0x83fe860(,%edx,4),%eax
 8049381:	8b 15 20 e8 3f 08    	mov    0x83fe820,%edx
 8049387:	8b 92 98 ff df ff    	mov    -0x200068(%edx),%edx
 804938d:	89 10                	mov    %edx,(%eax)
 804938f:	a1 20 e8 3f 08       	mov    0x83fe820,%eax
 8049394:	8b 15 48 e8 3f 08    	mov    0x83fe848,%edx
 804939a:	c7 05 70 e8 5f 08 3c 	movl   $0xcc00003c,0x85fe870
 80493a1:	00 00 cc 
 80493a4:	a3 64 e8 3f 08       	mov    %eax,0x83fe864
 80493a9:	8b 04 95 60 e8 3f 08 	mov    0x83fe860(,%edx,4),%eax
 80493b0:	8b 15 00 e8 1f 08    	mov    0x81fe800,%edx
 80493b6:	89 10                	mov    %edx,(%eax)
 80493b8:	c7 05 70 e8 5f 08 3d 	movl   $0xcc00003d,0x85fe870
 80493bf:	00 00 cc 
 80493c2:	a1 24 e8 3f 08       	mov    0x83fe824,%eax
 80493c7:	8b 80 98 ff df ff    	mov    -0x200068(%eax),%eax
 80493cd:	8b 80 98 ff df ff    	mov    -0x200068(%eax),%eax
 80493d3:	8b 80 98 ff df ff    	mov    -0x200068(%eax),%eax
 80493d9:	8b 80 98 ff df ff    	mov    -0x200068(%eax),%eax
 80493df:	8b 80 98 ff df ff    	mov    -0x200068(%eax),%eax
 80493e5:	8b 80 98 ff df ff    	mov    -0x200068(%eax),%eax
 80493eb:	8b 80 98 ff df ff    	mov    -0x200068(%eax),%eax
 80493f1:	8b 80 98 ff df ff    	mov    -0x200068(%eax),%eax
 80493f7:	8b 80 98 ff df ff    	mov    -0x200068(%eax),%eax
 80493fd:	8b 80 98 ff df ff    	mov    -0x200068(%eax),%eax
 8049403:	8b 80 98 ff df ff    	mov    -0x200068(%eax),%eax
 8049409:	8b 80 98 ff df ff    	mov    -0x200068(%eax),%eax
 804940f:	8b 80 98 ff df ff    	mov    -0x200068(%eax),%eax
 8049415:	8b 80 98 ff df ff    	mov    -0x200068(%eax),%eax
 804941b:	8b 80 98 ff df ff    	mov    -0x200068(%eax),%eax
 8049421:	8b 80 98 ff df ff    	mov    -0x200068(%eax),%eax
 8049427:	8b 80 98 ff df ff    	mov    -0x200068(%eax),%eax
 804942d:	8b 80 98 ff df ff    	mov    -0x200068(%eax),%eax
 8049433:	8b 80 98 ff df ff    	mov    -0x200068(%eax),%eax
 8049439:	8b 80 98 ff df ff    	mov    -0x200068(%eax),%eax
 804943f:	8b 80 98 ff df ff    	mov    -0x200068(%eax),%eax
 8049445:	8b 80 98 ff df ff    	mov    -0x200068(%eax),%eax
 804944b:	8b 80 98 ff df ff    	mov    -0x200068(%eax),%eax
 8049451:	8b 80 98 ff df ff    	mov    -0x200068(%eax),%eax
 8049457:	8b 80 98 ff df ff    	mov    -0x200068(%eax),%eax
 804945d:	8b 80 98 ff df ff    	mov    -0x200068(%eax),%eax
 8049463:	8b 80 98 ff df ff    	mov    -0x200068(%eax),%eax
 8049469:	8b 80 98 ff df ff    	mov    -0x200068(%eax),%eax
 804946f:	8b 80 98 ff df ff    	mov    -0x200068(%eax),%eax
 8049475:	8b 80 98 ff df ff    	mov    -0x200068(%eax),%eax
 804947b:	8b 80 98 ff df ff    	mov    -0x200068(%eax),%eax
 8049481:	8b 80 98 ff df ff    	mov    -0x200068(%eax),%eax
 8049487:	a3 4c 57 05 08       	mov    %eax,0x805574c
 804948c:	c7 05 70 e8 5f 08 3e 	movl   $0xcc00003e,0x85fe870
 8049493:	00 00 cc 
 8049496:	a1 4c 57 05 08       	mov    0x805574c,%eax
 804949b:	c7 05 70 e8 5f 08 3f 	movl   $0xcc00003f,0x85fe870
 80494a2:	00 00 cc 
 80494a5:	89 c0                	mov    %eax,%eax
 80494a7:	a3 00 e8 1f 08       	mov    %eax,0x81fe800
 80494ac:	b8 20 e8 3f 08       	mov    $0x83fe820,%eax
 80494b1:	8b 15 48 e8 3f 08    	mov    0x83fe848,%edx
 80494b7:	c7 05 70 e8 5f 08 40 	movl   $0xcc000040,0x85fe870
 80494be:	00 00 cc 
 80494c1:	a3 64 e8 3f 08       	mov    %eax,0x83fe864
 80494c6:	8b 04 95 60 e8 3f 08 	mov    0x83fe860(,%edx,4),%eax
 80494cd:	8b 15 20 e8 3f 08    	mov    0x83fe820,%edx
 80494d3:	8b 92 98 ff df ff    	mov    -0x200068(%edx),%edx
 80494d9:	89 10                	mov    %edx,(%eax)
 80494db:	a1 20 e8 3f 08       	mov    0x83fe820,%eax
 80494e0:	8b 15 48 e8 3f 08    	mov    0x83fe848,%edx
 80494e6:	c7 05 70 e8 5f 08 41 	movl   $0xcc000041,0x85fe870
 80494ed:	00 00 cc 
 80494f0:	a3 64 e8 3f 08       	mov    %eax,0x83fe864
 80494f5:	8b 04 95 60 e8 3f 08 	mov    0x83fe860(,%edx,4),%eax
 80494fc:	8b 15 00 e8 1f 08    	mov    0x81fe800,%edx
 8049502:	89 10                	mov    %edx,(%eax)
 8049504:	c7 05 70 e8 5f 08 42 	movl   $0xcc000042,0x85fe870
 804950b:	00 00 cc 
 804950e:	c7 05 70 e8 5f 08 43 	movl   $0xcc000043,0x85fe870
 8049515:	00 00 cc 
 8049518:	b8 53 96 04 88       	mov    $0x88049653,%eax
 804951d:	c7 05 70 e8 5f 08 44 	movl   $0xcc000044,0x85fe870
 8049524:	00 00 cc 
 8049527:	a3 e0 e6 1f 08       	mov    %eax,0x81fe6e0
 804952c:	c7 05 e4 e6 1f 08 00 	movl   $0x80000000,0x81fe6e4
 8049533:	00 00 80 
 8049536:	c7 05 70 e8 5f 08 45 	movl   $0xcc000045,0x85fe870
 804953d:	00 00 cc 
 8049540:	b8 00 00 00 00       	mov    $0x0,%eax
 8049545:	b9 00 00 00 00       	mov    $0x0,%ecx
 804954a:	c7 05 f0 e6 1f 08 00 	movl   $0x0,0x81fe6f0
 8049551:	00 00 00 
 8049554:	c7 05 70 e8 5f 08 46 	movl   $0xcc000046,0x85fe870
 804955b:	00 00 cc 
 804955e:	66 a1 e0 e6 1f 08    	mov    0x81fe6e0,%ax
 8049564:	66 8b 0d e4 e6 1f 08 	mov    0x81fe6e4,%cx
 804956b:	8b 14 85 20 96 06 08 	mov    0x8069620(,%eax,4),%edx
 8049572:	8b 14 8a             	mov    (%edx,%ecx,4),%edx
 8049575:	66 8b 0d f2 e6 1f 08 	mov    0x81fe6f2,%cx
 804957c:	8b 14 95 20 96 06 08 	mov    0x8069620(,%edx,4),%edx
 8049583:	8b 14 8a             	mov    (%edx,%ecx,4),%edx
 8049586:	66 89 15 e8 e6 1f 08 	mov    %dx,0x81fe6e8
 804958d:	89 15 f0 e6 1f 08    	mov    %edx,0x81fe6f0
 8049593:	c7 05 70 e8 5f 08 47 	movl   $0xcc000047,0x85fe870
 804959a:	00 00 cc 
 804959d:	66 a1 e2 e6 1f 08    	mov    0x81fe6e2,%ax
 80495a3:	66 8b 0d e6 e6 1f 08 	mov    0x81fe6e6,%cx
 80495aa:	8b 14 85 20 96 06 08 	mov    0x8069620(,%eax,4),%edx
 80495b1:	8b 14 8a             	mov    (%edx,%ecx,4),%edx
 80495b4:	66 8b 0d f2 e6 1f 08 	mov    0x81fe6f2,%cx
 80495bb:	8b 14 95 20 96 06 08 	mov    0x8069620(,%edx,4),%edx
 80495c2:	8b 14 8a             	mov    (%edx,%ecx,4),%edx
 80495c5:	66 89 15 ea e6 1f 08 	mov    %dx,0x81fe6ea
 80495cc:	89 15 f0 e6 1f 08    	mov    %edx,0x81fe6f0
 80495d2:	a1 e8 e6 1f 08       	mov    0x81fe6e8,%eax
 80495d7:	c7 05 70 e8 5f 08 48 	movl   $0xcc000048,0x85fe870
 80495de:	00 00 cc 
 80495e1:	89 c0                	mov    %eax,%eax
 80495e3:	a3 00 e8 1f 08       	mov    %eax,0x81fe800
 80495e8:	b8 20 e8 3f 08       	mov    $0x83fe820,%eax
 80495ed:	8b 15 48 e8 3f 08    	mov    0x83fe848,%edx
 80495f3:	c7 05 70 e8 5f 08 49 	movl   $0xcc000049,0x85fe870
 80495fa:	00 00 cc 
 80495fd:	a3 64 e8 3f 08       	mov    %eax,0x83fe864
 8049602:	8b 04 95 60 e8 3f 08 	mov    0x83fe860(,%edx,4),%eax
 8049609:	8b 15 20 e8 3f 08    	mov    0x83fe820,%edx
 804960f:	8b 92 98 ff df ff    	mov    -0x200068(%edx),%edx
 8049615:	89 10                	mov    %edx,(%eax)
 8049617:	a1 20 e8 3f 08       	mov    0x83fe820,%eax
 804961c:	8b 15 48 e8 3f 08    	mov    0x83fe848,%edx
 8049622:	c7 05 70 e8 5f 08 4a 	movl   $0xcc00004a,0x85fe870
 8049629:	00 00 cc 
 804962c:	a3 64 e8 3f 08       	mov    %eax,0x83fe864
 8049631:	8b 04 95 60 e8 3f 08 	mov    0x83fe860(,%edx,4),%eax
 8049638:	8b 15 00 e8 1f 08    	mov    0x81fe800,%edx
 804963e:	89 10                	mov    %edx,(%eax)
 8049640:	8b 25 20 e8 3f 08    	mov    0x83fe820,%esp
 8049646:	83 3d 48 e8 3f 08 01 	cmpl   $0x1,0x83fe848
 804964d:	0f 84 2d ec ff ff    	je     8048280 <fgets@plt>
 8049653:	a3 40 57 05 08       	mov    %eax,0x8055740
 8049658:	c7 05 70 e8 5f 08 4b 	movl   $0xcc00004b,0x85fe870
 804965f:	00 00 cc 
 8049662:	a1 20 e8 3f 08       	mov    0x83fe820,%eax
 8049667:	8b 10                	mov    (%eax),%edx
 8049669:	89 15 00 e8 1f 08    	mov    %edx,0x81fe800
 804966f:	b8 20 e8 3f 08       	mov    $0x83fe820,%eax
 8049674:	8b 15 48 e8 3f 08    	mov    0x83fe848,%edx
 804967a:	c7 05 70 e8 5f 08 4c 	movl   $0xcc00004c,0x85fe870
 8049681:	00 00 cc 
 8049684:	a3 64 e8 3f 08       	mov    %eax,0x83fe864
 8049689:	8b 04 95 60 e8 3f 08 	mov    0x83fe860(,%edx,4),%eax
 8049690:	8b 15 20 e8 3f 08    	mov    0x83fe820,%edx
 8049696:	8b 92 a0 ff df ff    	mov    -0x200060(%edx),%edx
 804969c:	89 10                	mov    %edx,(%eax)
 804969e:	8b 15 00 e8 1f 08    	mov    0x81fe800,%edx
 80496a4:	89 d0                	mov    %edx,%eax
 80496a6:	a1 20 e8 3f 08       	mov    0x83fe820,%eax
 80496ab:	8b 80 a0 ff df ff    	mov    -0x200060(%eax),%eax
 80496b1:	8b 80 a0 ff df ff    	mov    -0x200060(%eax),%eax
 80496b7:	8b 80 a0 ff df ff    	mov    -0x200060(%eax),%eax
 80496bd:	a3 00 e8 1f 08       	mov    %eax,0x81fe800
 80496c2:	b8 20 e8 3f 08       	mov    $0x83fe820,%eax
 80496c7:	8b 15 48 e8 3f 08    	mov    0x83fe848,%edx
 80496cd:	c7 05 70 e8 5f 08 4d 	movl   $0xcc00004d,0x85fe870
 80496d4:	00 00 cc 
 80496d7:	a3 64 e8 3f 08       	mov    %eax,0x83fe864
 80496dc:	8b 04 95 60 e8 3f 08 	mov    0x83fe860(,%edx,4),%eax
 80496e3:	8b 15 00 e8 1f 08    	mov    0x81fe800,%edx
 80496e9:	89 10                	mov    %edx,(%eax)
 80496eb:	c7 05 70 e8 5f 08 4e 	movl   $0xcc00004e,0x85fe870
 80496f2:	00 00 cc 
 80496f5:	a1 24 e8 3f 08       	mov    0x83fe824,%eax
 80496fa:	8b 80 98 ff df ff    	mov    -0x200068(%eax),%eax
 8049700:	8b 80 98 ff df ff    	mov    -0x200068(%eax),%eax
 8049706:	8b 80 98 ff df ff    	mov    -0x200068(%eax),%eax
 804970c:	8b 80 98 ff df ff    	mov    -0x200068(%eax),%eax
 8049712:	8b 80 98 ff df ff    	mov    -0x200068(%eax),%eax
 8049718:	8b 80 98 ff df ff    	mov    -0x200068(%eax),%eax
 804971e:	8b 80 98 ff df ff    	mov    -0x200068(%eax),%eax
 8049724:	8b 80 98 ff df ff    	mov    -0x200068(%eax),%eax
 804972a:	8b 80 98 ff df ff    	mov    -0x200068(%eax),%eax
 8049730:	8b 80 98 ff df ff    	mov    -0x200068(%eax),%eax
 8049736:	8b 80 98 ff df ff    	mov    -0x200068(%eax),%eax
 804973c:	8b 80 98 ff df ff    	mov    -0x200068(%eax),%eax
 8049742:	8b 80 98 ff df ff    	mov    -0x200068(%eax),%eax
 8049748:	8b 80 98 ff df ff    	mov    -0x200068(%eax),%eax
 804974e:	8b 80 98 ff df ff    	mov    -0x200068(%eax),%eax
 8049754:	8b 80 98 ff df ff    	mov    -0x200068(%eax),%eax
 804975a:	8b 80 98 ff df ff    	mov    -0x200068(%eax),%eax
 8049760:	8b 80 98 ff df ff    	mov    -0x200068(%eax),%eax
 8049766:	8b 80 98 ff df ff    	mov    -0x200068(%eax),%eax
 804976c:	8b 80 98 ff df ff    	mov    -0x200068(%eax),%eax
 8049772:	8b 80 98 ff df ff    	mov    -0x200068(%eax),%eax
 8049778:	8b 80 98 ff df ff    	mov    -0x200068(%eax),%eax
 804977e:	8b 80 98 ff df ff    	mov    -0x200068(%eax),%eax
 8049784:	8b 80 98 ff df ff    	mov    -0x200068(%eax),%eax
 804978a:	8b 80 98 ff df ff    	mov    -0x200068(%eax),%eax
 8049790:	8b 80 98 ff df ff    	mov    -0x200068(%eax),%eax
 8049796:	8b 80 98 ff df ff    	mov    -0x200068(%eax),%eax
 804979c:	8b 80 98 ff df ff    	mov    -0x200068(%eax),%eax
 80497a2:	8b 80 98 ff df ff    	mov    -0x200068(%eax),%eax
 80497a8:	8b 80 98 ff df ff    	mov    -0x200068(%eax),%eax
 80497ae:	8b 80 98 ff df ff    	mov    -0x200068(%eax),%eax
 80497b4:	8b 80 98 ff df ff    	mov    -0x200068(%eax),%eax
 80497ba:	a3 4c 57 05 08       	mov    %eax,0x805574c
 80497bf:	c7 05 70 e8 5f 08 4f 	movl   $0xcc00004f,0x85fe870
 80497c6:	00 00 cc 
 80497c9:	a1 4c 57 05 08       	mov    0x805574c,%eax
 80497ce:	c7 05 70 e8 5f 08 50 	movl   $0xcc000050,0x85fe870
 80497d5:	00 00 cc 
 80497d8:	89 c0                	mov    %eax,%eax
 80497da:	a3 00 e8 1f 08       	mov    %eax,0x81fe800
 80497df:	b8 20 e8 3f 08       	mov    $0x83fe820,%eax
 80497e4:	8b 15 48 e8 3f 08    	mov    0x83fe848,%edx
 80497ea:	c7 05 70 e8 5f 08 51 	movl   $0xcc000051,0x85fe870
 80497f1:	00 00 cc 
 80497f4:	a3 64 e8 3f 08       	mov    %eax,0x83fe864
 80497f9:	8b 04 95 60 e8 3f 08 	mov    0x83fe860(,%edx,4),%eax
 8049800:	8b 15 20 e8 3f 08    	mov    0x83fe820,%edx
 8049806:	8b 92 98 ff df ff    	mov    -0x200068(%edx),%edx
 804980c:	89 10                	mov    %edx,(%eax)
 804980e:	a1 20 e8 3f 08       	mov    0x83fe820,%eax
 8049813:	8b 15 48 e8 3f 08    	mov    0x83fe848,%edx
 8049819:	c7 05 70 e8 5f 08 52 	movl   $0xcc000052,0x85fe870
 8049820:	00 00 cc 
 8049823:	a3 64 e8 3f 08       	mov    %eax,0x83fe864
 8049828:	8b 04 95 60 e8 3f 08 	mov    0x83fe860(,%edx,4),%eax
 804982f:	8b 15 00 e8 1f 08    	mov    0x81fe800,%edx
 8049835:	89 10                	mov    %edx,(%eax)
 8049837:	c7 05 70 e8 5f 08 53 	movl   $0xcc000053,0x85fe870
 804983e:	00 00 cc 
 8049841:	c7 05 70 e8 5f 08 54 	movl   $0xcc000054,0x85fe870
 8049848:	00 00 cc 
 804984b:	b8 86 99 04 88       	mov    $0x88049986,%eax
 8049850:	c7 05 70 e8 5f 08 55 	movl   $0xcc000055,0x85fe870
 8049857:	00 00 cc 
 804985a:	a3 e0 e6 1f 08       	mov    %eax,0x81fe6e0
 804985f:	c7 05 e4 e6 1f 08 00 	movl   $0x80000000,0x81fe6e4
 8049866:	00 00 80 
 8049869:	c7 05 70 e8 5f 08 56 	movl   $0xcc000056,0x85fe870
 8049870:	00 00 cc 
 8049873:	b8 00 00 00 00       	mov    $0x0,%eax
 8049878:	b9 00 00 00 00       	mov    $0x0,%ecx
 804987d:	c7 05 f0 e6 1f 08 00 	movl   $0x0,0x81fe6f0
 8049884:	00 00 00 
 8049887:	c7 05 70 e8 5f 08 57 	movl   $0xcc000057,0x85fe870
 804988e:	00 00 cc 
 8049891:	66 a1 e0 e6 1f 08    	mov    0x81fe6e0,%ax
 8049897:	66 8b 0d e4 e6 1f 08 	mov    0x81fe6e4,%cx
 804989e:	8b 14 85 20 96 06 08 	mov    0x8069620(,%eax,4),%edx
 80498a5:	8b 14 8a             	mov    (%edx,%ecx,4),%edx
 80498a8:	66 8b 0d f2 e6 1f 08 	mov    0x81fe6f2,%cx
 80498af:	8b 14 95 20 96 06 08 	mov    0x8069620(,%edx,4),%edx
 80498b6:	8b 14 8a             	mov    (%edx,%ecx,4),%edx
 80498b9:	66 89 15 e8 e6 1f 08 	mov    %dx,0x81fe6e8
 80498c0:	89 15 f0 e6 1f 08    	mov    %edx,0x81fe6f0
 80498c6:	c7 05 70 e8 5f 08 58 	movl   $0xcc000058,0x85fe870
 80498cd:	00 00 cc 
 80498d0:	66 a1 e2 e6 1f 08    	mov    0x81fe6e2,%ax
 80498d6:	66 8b 0d e6 e6 1f 08 	mov    0x81fe6e6,%cx
 80498dd:	8b 14 85 20 96 06 08 	mov    0x8069620(,%eax,4),%edx
 80498e4:	8b 14 8a             	mov    (%edx,%ecx,4),%edx
 80498e7:	66 8b 0d f2 e6 1f 08 	mov    0x81fe6f2,%cx
 80498ee:	8b 14 95 20 96 06 08 	mov    0x8069620(,%edx,4),%edx
 80498f5:	8b 14 8a             	mov    (%edx,%ecx,4),%edx
 80498f8:	66 89 15 ea e6 1f 08 	mov    %dx,0x81fe6ea
 80498ff:	89 15 f0 e6 1f 08    	mov    %edx,0x81fe6f0
 8049905:	a1 e8 e6 1f 08       	mov    0x81fe6e8,%eax
 804990a:	c7 05 70 e8 5f 08 59 	movl   $0xcc000059,0x85fe870
 8049911:	00 00 cc 
 8049914:	89 c0                	mov    %eax,%eax
 8049916:	a3 00 e8 1f 08       	mov    %eax,0x81fe800
 804991b:	b8 20 e8 3f 08       	mov    $0x83fe820,%eax
 8049920:	8b 15 48 e8 3f 08    	mov    0x83fe848,%edx
 8049926:	c7 05 70 e8 5f 08 5a 	movl   $0xcc00005a,0x85fe870
 804992d:	00 00 cc 
 8049930:	a3 64 e8 3f 08       	mov    %eax,0x83fe864
 8049935:	8b 04 95 60 e8 3f 08 	mov    0x83fe860(,%edx,4),%eax
 804993c:	8b 15 20 e8 3f 08    	mov    0x83fe820,%edx
 8049942:	8b 92 98 ff df ff    	mov    -0x200068(%edx),%edx
 8049948:	89 10                	mov    %edx,(%eax)
 804994a:	a1 20 e8 3f 08       	mov    0x83fe820,%eax
 804994f:	8b 15 48 e8 3f 08    	mov    0x83fe848,%edx
 8049955:	c7 05 70 e8 5f 08 5b 	movl   $0xcc00005b,0x85fe870
 804995c:	00 00 cc 
 804995f:	a3 64 e8 3f 08       	mov    %eax,0x83fe864
 8049964:	8b 04 95 60 e8 3f 08 	mov    0x83fe860(,%edx,4),%eax
 804996b:	8b 15 00 e8 1f 08    	mov    0x81fe800,%edx
 8049971:	89 10                	mov    %edx,(%eax)
 8049973:	8b 25 20 e8 3f 08    	mov    0x83fe820,%esp
 8049979:	83 3d 48 e8 3f 08 01 	cmpl   $0x1,0x83fe848
 8049980:	0f 84 2a e9 ff ff    	je     80482b0 <strlen@plt>
 8049986:	a3 40 57 05 08       	mov    %eax,0x8055740
 804998b:	c7 05 70 e8 5f 08 5c 	movl   $0xcc00005c,0x85fe870
 8049992:	00 00 cc 
 8049995:	a1 20 e8 3f 08       	mov    0x83fe820,%eax
 804999a:	8b 10                	mov    (%eax),%edx
 804999c:	89 15 00 e8 1f 08    	mov    %edx,0x81fe800
 80499a2:	b8 20 e8 3f 08       	mov    $0x83fe820,%eax
 80499a7:	8b 15 48 e8 3f 08    	mov    0x83fe848,%edx
 80499ad:	c7 05 70 e8 5f 08 5d 	movl   $0xcc00005d,0x85fe870
 80499b4:	00 00 cc 
 80499b7:	a3 64 e8 3f 08       	mov    %eax,0x83fe864
 80499bc:	8b 04 95 60 e8 3f 08 	mov    0x83fe860(,%edx,4),%eax
 80499c3:	8b 15 20 e8 3f 08    	mov    0x83fe820,%edx
 80499c9:	8b 92 a0 ff df ff    	mov    -0x200060(%edx),%edx
 80499cf:	89 10                	mov    %edx,(%eax)
 80499d1:	8b 15 00 e8 1f 08    	mov    0x81fe800,%edx
 80499d7:	89 d0                	mov    %edx,%eax
 80499d9:	a1 20 e8 3f 08       	mov    0x83fe820,%eax
 80499de:	8b 80 a0 ff df ff    	mov    -0x200060(%eax),%eax
 80499e4:	a3 00 e8 1f 08       	mov    %eax,0x81fe800
 80499e9:	b8 20 e8 3f 08       	mov    $0x83fe820,%eax
 80499ee:	8b 15 48 e8 3f 08    	mov    0x83fe848,%edx
 80499f4:	c7 05 70 e8 5f 08 5e 	movl   $0xcc00005e,0x85fe870
 80499fb:	00 00 cc 
 80499fe:	a3 64 e8 3f 08       	mov    %eax,0x83fe864
 8049a03:	8b 04 95 60 e8 3f 08 	mov    0x83fe860(,%edx,4),%eax
 8049a0a:	8b 15 00 e8 1f 08    	mov    0x81fe800,%edx
 8049a10:	89 10                	mov    %edx,(%eax)
 8049a12:	c7 05 70 e8 5f 08 5f 	movl   $0xcc00005f,0x85fe870
 8049a19:	00 00 cc 
 8049a1c:	a1 40 57 05 08       	mov    0x8055740,%eax
 8049a21:	a3 4c 57 05 08       	mov    %eax,0x805574c
 8049a26:	c7 05 70 e8 5f 08 60 	movl   $0xcc000060,0x85fe870
 8049a2d:	00 00 cc 
 8049a30:	c7 05 70 e8 5f 08 61 	movl   $0xcc000061,0x85fe870
 8049a37:	00 00 cc 
 8049a3a:	a1 24 e8 3f 08       	mov    0x83fe824,%eax
 8049a3f:	ba 7f ff ff ff       	mov    $0xffffff7f,%edx
 8049a44:	c7 05 70 e8 5f 08 62 	movl   $0xcc000062,0x85fe870
 8049a4b:	00 00 cc 
 8049a4e:	a3 e0 e6 1f 08       	mov    %eax,0x81fe6e0
 8049a53:	89 15 e4 e6 1f 08    	mov    %edx,0x81fe6e4
 8049a59:	c7 05 70 e8 5f 08 63 	movl   $0xcc000063,0x85fe870
 8049a60:	00 00 cc 
 8049a63:	b8 00 00 00 00       	mov    $0x0,%eax
 8049a68:	b9 00 00 00 00       	mov    $0x0,%ecx
 8049a6d:	c7 05 f0 e6 1f 08 00 	movl   $0x0,0x81fe6f0
 8049a74:	00 00 00 
 8049a77:	c7 05 70 e8 5f 08 64 	movl   $0xcc000064,0x85fe870
 8049a7e:	00 00 cc 
 8049a81:	66 a1 e0 e6 1f 08    	mov    0x81fe6e0,%ax
 8049a87:	66 8b 0d e4 e6 1f 08 	mov    0x81fe6e4,%cx
 8049a8e:	8b 14 85 20 96 06 08 	mov    0x8069620(,%eax,4),%edx
 8049a95:	8b 14 8a             	mov    (%edx,%ecx,4),%edx
 8049a98:	66 8b 0d f2 e6 1f 08 	mov    0x81fe6f2,%cx
 8049a9f:	8b 14 95 20 96 06 08 	mov    0x8069620(,%edx,4),%edx
 8049aa6:	8b 14 8a             	mov    (%edx,%ecx,4),%edx
 8049aa9:	66 89 15 e8 e6 1f 08 	mov    %dx,0x81fe6e8
 8049ab0:	89 15 f0 e6 1f 08    	mov    %edx,0x81fe6f0
 8049ab6:	c7 05 70 e8 5f 08 65 	movl   $0xcc000065,0x85fe870
 8049abd:	00 00 cc 
 8049ac0:	66 a1 e2 e6 1f 08    	mov    0x81fe6e2,%ax
 8049ac6:	66 8b 0d e6 e6 1f 08 	mov    0x81fe6e6,%cx
 8049acd:	8b 14 85 20 96 06 08 	mov    0x8069620(,%eax,4),%edx
 8049ad4:	8b 14 8a             	mov    (%edx,%ecx,4),%edx
 8049ad7:	66 8b 0d f2 e6 1f 08 	mov    0x81fe6f2,%cx
 8049ade:	8b 14 95 20 96 06 08 	mov    0x8069620(,%edx,4),%edx
 8049ae5:	8b 14 8a             	mov    (%edx,%ecx,4),%edx
 8049ae8:	66 89 15 ea e6 1f 08 	mov    %dx,0x81fe6ea
 8049aef:	89 15 f0 e6 1f 08    	mov    %edx,0x81fe6f0
 8049af5:	a1 e8 e6 1f 08       	mov    0x81fe6e8,%eax
 8049afa:	a3 48 57 05 08       	mov    %eax,0x8055748
 8049aff:	c7 05 70 e8 5f 08 66 	movl   $0xcc000066,0x85fe870
 8049b06:	00 00 cc 
 8049b09:	a1 4c 57 05 08       	mov    0x805574c,%eax
 8049b0e:	8b 15 48 57 05 08    	mov    0x8055748,%edx
 8049b14:	c7 05 70 e8 5f 08 67 	movl   $0xcc000067,0x85fe870
 8049b1b:	00 00 cc 
 8049b1e:	a3 e0 e6 1f 08       	mov    %eax,0x81fe6e0
 8049b23:	89 15 e4 e6 1f 08    	mov    %edx,0x81fe6e4
 8049b29:	c7 05 70 e8 5f 08 68 	movl   $0xcc000068,0x85fe870
 8049b30:	00 00 cc 
 8049b33:	b8 00 00 00 00       	mov    $0x0,%eax
 8049b38:	b9 00 00 00 00       	mov    $0x0,%ecx
 8049b3d:	c7 05 f0 e6 1f 08 00 	movl   $0x0,0x81fe6f0
 8049b44:	00 00 00 
 8049b47:	c7 05 70 e8 5f 08 69 	movl   $0xcc000069,0x85fe870
 8049b4e:	00 00 cc 
 8049b51:	66 a1 e0 e6 1f 08    	mov    0x81fe6e0,%ax
 8049b57:	66 8b 0d e4 e6 1f 08 	mov    0x81fe6e4,%cx
 8049b5e:	8b 14 85 20 96 06 08 	mov    0x8069620(,%eax,4),%edx
 8049b65:	8b 14 8a             	mov    (%edx,%ecx,4),%edx
 8049b68:	66 8b 0d f2 e6 1f 08 	mov    0x81fe6f2,%cx
 8049b6f:	8b 14 95 20 96 06 08 	mov    0x8069620(,%edx,4),%edx
 8049b76:	8b 14 8a             	mov    (%edx,%ecx,4),%edx
 8049b79:	66 89 15 e8 e6 1f 08 	mov    %dx,0x81fe6e8
 8049b80:	89 15 f0 e6 1f 08    	mov    %edx,0x81fe6f0
 8049b86:	c7 05 70 e8 5f 08 6a 	movl   $0xcc00006a,0x85fe870
 8049b8d:	00 00 cc 
 8049b90:	66 a1 e2 e6 1f 08    	mov    0x81fe6e2,%ax
 8049b96:	66 8b 0d e6 e6 1f 08 	mov    0x81fe6e6,%cx
 8049b9d:	8b 14 85 20 96 06 08 	mov    0x8069620(,%eax,4),%edx
 8049ba4:	8b 14 8a             	mov    (%edx,%ecx,4),%edx
 8049ba7:	66 8b 0d f2 e6 1f 08 	mov    0x81fe6f2,%cx
 8049bae:	8b 14 95 20 96 06 08 	mov    0x8069620(,%edx,4),%edx
 8049bb5:	8b 14 8a             	mov    (%edx,%ecx,4),%edx
 8049bb8:	66 89 15 ea e6 1f 08 	mov    %dx,0x81fe6ea
 8049bbf:	89 15 f0 e6 1f 08    	mov    %edx,0x81fe6f0
 8049bc5:	a1 e8 e6 1f 08       	mov    0x81fe6e8,%eax
 8049bca:	a3 4c 57 05 08       	mov    %eax,0x805574c
 8049bcf:	c7 05 40 57 05 08 00 	movl   $0x0,0x8055740
 8049bd6:	00 00 00 
 8049bd9:	c7 05 70 e8 5f 08 6b 	movl   $0xcc00006b,0x85fe870
 8049be0:	00 00 cc 
 8049be3:	a1 4c 57 05 08       	mov    0x805574c,%eax
 8049be8:	8b 15 48 e8 3f 08    	mov    0x83fe848,%edx
 8049bee:	c7 05 70 e8 5f 08 6c 	movl   $0xcc00006c,0x85fe870
 8049bf5:	00 00 cc 
 8049bf8:	a3 64 e8 3f 08       	mov    %eax,0x83fe864
 8049bfd:	8b 04 95 60 e8 3f 08 	mov    0x83fe860(,%edx,4),%eax
 8049c04:	8a 15 40 57 05 08    	mov    0x8055740,%dl
 8049c0a:	88 10                	mov    %dl,(%eax)
 8049c0c:	c7 05 4c 57 05 08 09 	movl   $0x9,0x805574c
 8049c13:	00 00 00 
 8049c16:	c7 05 70 e8 5f 08 6d 	movl   $0xcc00006d,0x85fe870
 8049c1d:	00 00 cc 
 8049c20:	c7 05 48 57 05 08 39 	movl   $0x39,0x8055748
 8049c27:	00 00 00 
 8049c2a:	c7 05 70 e8 5f 08 6e 	movl   $0xcc00006e,0x85fe870
 8049c31:	00 00 cc 
 8049c34:	a1 24 e8 3f 08       	mov    0x83fe824,%eax
 8049c39:	8b 80 98 ff df ff    	mov    -0x200068(%eax),%eax
 8049c3f:	8b 80 98 ff df ff    	mov    -0x200068(%eax),%eax
 8049c45:	8b 80 98 ff df ff    	mov    -0x200068(%eax),%eax
 8049c4b:	8b 80 98 ff df ff    	mov    -0x200068(%eax),%eax
 8049c51:	8b 80 98 ff df ff    	mov    -0x200068(%eax),%eax
 8049c57:	8b 80 98 ff df ff    	mov    -0x200068(%eax),%eax
 8049c5d:	8b 80 98 ff df ff    	mov    -0x200068(%eax),%eax
 8049c63:	8b 80 98 ff df ff    	mov    -0x200068(%eax),%eax
 8049c69:	8b 80 98 ff df ff    	mov    -0x200068(%eax),%eax
 8049c6f:	8b 80 98 ff df ff    	mov    -0x200068(%eax),%eax
 8049c75:	8b 80 98 ff df ff    	mov    -0x200068(%eax),%eax
 8049c7b:	8b 80 98 ff df ff    	mov    -0x200068(%eax),%eax
 8049c81:	8b 80 98 ff df ff    	mov    -0x200068(%eax),%eax
 8049c87:	8b 80 98 ff df ff    	mov    -0x200068(%eax),%eax
 8049c8d:	8b 80 98 ff df ff    	mov    -0x200068(%eax),%eax
 8049c93:	8b 80 98 ff df ff    	mov    -0x200068(%eax),%eax
 8049c99:	8b 80 98 ff df ff    	mov    -0x200068(%eax),%eax
 8049c9f:	8b 80 98 ff df ff    	mov    -0x200068(%eax),%eax
 8049ca5:	8b 80 98 ff df ff    	mov    -0x200068(%eax),%eax
 8049cab:	8b 80 98 ff df ff    	mov    -0x200068(%eax),%eax
 8049cb1:	8b 80 98 ff df ff    	mov    -0x200068(%eax),%eax
 8049cb7:	8b 80 98 ff df ff    	mov    -0x200068(%eax),%eax
 8049cbd:	8b 80 98 ff df ff    	mov    -0x200068(%eax),%eax
 8049cc3:	8b 80 98 ff df ff    	mov    -0x200068(%eax),%eax
 8049cc9:	8b 80 98 ff df ff    	mov    -0x200068(%eax),%eax
 8049ccf:	8b 80 98 ff df ff    	mov    -0x200068(%eax),%eax
 8049cd5:	8b 80 98 ff df ff    	mov    -0x200068(%eax),%eax
 8049cdb:	8b 80 98 ff df ff    	mov    -0x200068(%eax),%eax
 8049ce1:	8b 80 98 ff df ff    	mov    -0x200068(%eax),%eax
 8049ce7:	8b 80 98 ff df ff    	mov    -0x200068(%eax),%eax
 8049ced:	8b 80 98 ff df ff    	mov    -0x200068(%eax),%eax
 8049cf3:	8b 80 98 ff df ff    	mov    -0x200068(%eax),%eax
 8049cf9:	8b 80 98 ff df ff    	mov    -0x200068(%eax),%eax
 8049cff:	8b 80 98 ff df ff    	mov    -0x200068(%eax),%eax
 8049d05:	8b 80 98 ff df ff    	mov    -0x200068(%eax),%eax
 8049d0b:	8b 80 98 ff df ff    	mov    -0x200068(%eax),%eax
 8049d11:	8b 80 98 ff df ff    	mov    -0x200068(%eax),%eax
 8049d17:	8b 80 98 ff df ff    	mov    -0x200068(%eax),%eax
 8049d1d:	8b 80 98 ff df ff    	mov    -0x200068(%eax),%eax
 8049d23:	8b 80 98 ff df ff    	mov    -0x200068(%eax),%eax
 8049d29:	8b 15 48 e8 3f 08    	mov    0x83fe848,%edx
 8049d2f:	c7 05 70 e8 5f 08 6f 	movl   $0xcc00006f,0x85fe870
 8049d36:	00 00 cc 
 8049d39:	a3 64 e8 3f 08       	mov    %eax,0x83fe864
 8049d3e:	8b 04 95 60 e8 3f 08 	mov    0x83fe860(,%edx,4),%eax
 8049d45:	8b 15 48 57 05 08    	mov    0x8055748,%edx
 8049d4b:	89 10                	mov    %edx,(%eax)
 8049d4d:	c7 05 70 e8 5f 08 70 	movl   $0xcc000070,0x85fe870
 8049d54:	00 00 cc 
 8049d57:	c7 05 44 57 05 08 02 	movl   $0x2,0x8055744
 8049d5e:	00 00 00 
 8049d61:	c7 05 70 e8 5f 08 71 	movl   $0xcc000071,0x85fe870
 8049d68:	00 00 cc 
 8049d6b:	a1 24 e8 3f 08       	mov    0x83fe824,%eax
 8049d70:	8b 80 98 ff df ff    	mov    -0x200068(%eax),%eax
 8049d76:	8b 80 98 ff df ff    	mov    -0x200068(%eax),%eax
 8049d7c:	8b 80 98 ff df ff    	mov    -0x200068(%eax),%eax
 8049d82:	8b 80 98 ff df ff    	mov    -0x200068(%eax),%eax
 8049d88:	8b 80 98 ff df ff    	mov    -0x200068(%eax),%eax
 8049d8e:	8b 80 98 ff df ff    	mov    -0x200068(%eax),%eax
 8049d94:	8b 80 98 ff df ff    	mov    -0x200068(%eax),%eax
 8049d9a:	8b 80 98 ff df ff    	mov    -0x200068(%eax),%eax
 8049da0:	8b 80 98 ff df ff    	mov    -0x200068(%eax),%eax
 8049da6:	8b 80 98 ff df ff    	mov    -0x200068(%eax),%eax
 8049dac:	8b 80 98 ff df ff    	mov    -0x200068(%eax),%eax
 8049db2:	8b 80 98 ff df ff    	mov    -0x200068(%eax),%eax
 8049db8:	8b 80 98 ff df ff    	mov    -0x200068(%eax),%eax
 8049dbe:	8b 80 98 ff df ff    	mov    -0x200068(%eax),%eax
 8049dc4:	8b 80 98 ff df ff    	mov    -0x200068(%eax),%eax
 8049dca:	8b 80 98 ff df ff    	mov    -0x200068(%eax),%eax
 8049dd0:	8b 80 98 ff df ff    	mov    -0x200068(%eax),%eax
 8049dd6:	8b 80 98 ff df ff    	mov    -0x200068(%eax),%eax
 8049ddc:	8b 80 98 ff df ff    	mov    -0x200068(%eax),%eax
 8049de2:	8b 80 98 ff df ff    	mov    -0x200068(%eax),%eax
 8049de8:	8b 80 98 ff df ff    	mov    -0x200068(%eax),%eax
 8049dee:	8b 80 98 ff df ff    	mov    -0x200068(%eax),%eax
 8049df4:	8b 80 98 ff df ff    	mov    -0x200068(%eax),%eax
 8049dfa:	8b 80 98 ff df ff    	mov    -0x200068(%eax),%eax
 8049e00:	8b 80 98 ff df ff    	mov    -0x200068(%eax),%eax
 8049e06:	8b 80 98 ff df ff    	mov    -0x200068(%eax),%eax
 8049e0c:	8b 80 98 ff df ff    	mov    -0x200068(%eax),%eax
 8049e12:	8b 80 98 ff df ff    	mov    -0x200068(%eax),%eax
 8049e18:	8b 80 98 ff df ff    	mov    -0x200068(%eax),%eax
 8049e1e:	8b 80 98 ff df ff    	mov    -0x200068(%eax),%eax
 8049e24:	8b 80 98 ff df ff    	mov    -0x200068(%eax),%eax
 8049e2a:	8b 80 98 ff df ff    	mov    -0x200068(%eax),%eax
 8049e30:	8b 80 98 ff df ff    	mov    -0x200068(%eax),%eax
 8049e36:	8b 80 98 ff df ff    	mov    -0x200068(%eax),%eax
 8049e3c:	8b 80 98 ff df ff    	mov    -0x200068(%eax),%eax
 8049e42:	8b 80 98 ff df ff    	mov    -0x200068(%eax),%eax
 8049e48:	8b 80 98 ff df ff    	mov    -0x200068(%eax),%eax
 8049e4e:	8b 80 98 ff df ff    	mov    -0x200068(%eax),%eax
 8049e54:	8b 80 98 ff df ff    	mov    -0x200068(%eax),%eax
 8049e5a:	8b 80 98 ff df ff    	mov    -0x200068(%eax),%eax
 8049e60:	8b 80 98 ff df ff    	mov    -0x200068(%eax),%eax
 8049e66:	8b 80 98 ff df ff    	mov    -0x200068(%eax),%eax
 8049e6c:	8b 15 48 e8 3f 08    	mov    0x83fe848,%edx
 8049e72:	c7 05 70 e8 5f 08 72 	movl   $0xcc000072,0x85fe870
 8049e79:	00 00 cc 
 8049e7c:	a3 64 e8 3f 08       	mov    %eax,0x83fe864
 8049e81:	8b 04 95 60 e8 3f 08 	mov    0x83fe860(,%edx,4),%eax
 8049e88:	8b 15 44 57 05 08    	mov    0x8055744,%edx
 8049e8e:	89 10                	mov    %edx,(%eax)
 8049e90:	c7 05 70 e8 5f 08 73 	movl   $0xcc000073,0x85fe870
 8049e97:	00 00 cc 
 8049e9a:	c7 05 40 57 05 08 07 	movl   $0x7,0x8055740
 8049ea1:	00 00 00 
 8049ea4:	c7 05 70 e8 5f 08 74 	movl   $0xcc000074,0x85fe870
 8049eab:	00 00 cc 
 8049eae:	a1 24 e8 3f 08       	mov    0x83fe824,%eax
 8049eb3:	8b 80 98 ff df ff    	mov    -0x200068(%eax),%eax
 8049eb9:	8b 80 98 ff df ff    	mov    -0x200068(%eax),%eax
 8049ebf:	8b 80 98 ff df ff    	mov    -0x200068(%eax),%eax
 8049ec5:	8b 80 98 ff df ff    	mov    -0x200068(%eax),%eax
 8049ecb:	8b 80 98 ff df ff    	mov    -0x200068(%eax),%eax
 8049ed1:	8b 80 98 ff df ff    	mov    -0x200068(%eax),%eax
 8049ed7:	8b 80 98 ff df ff    	mov    -0x200068(%eax),%eax
 8049edd:	8b 80 98 ff df ff    	mov    -0x200068(%eax),%eax
 8049ee3:	8b 80 98 ff df ff    	mov    -0x200068(%eax),%eax
 8049ee9:	8b 80 98 ff df ff    	mov    -0x200068(%eax),%eax
 8049eef:	8b 80 98 ff df ff    	mov    -0x200068(%eax),%eax
 8049ef5:	8b 80 98 ff df ff    	mov    -0x200068(%eax),%eax
 8049efb:	8b 80 98 ff df ff    	mov    -0x200068(%eax),%eax
 8049f01:	8b 80 98 ff df ff    	mov    -0x200068(%eax),%eax
 8049f07:	8b 80 98 ff df ff    	mov    -0x200068(%eax),%eax
 8049f0d:	8b 80 98 ff df ff    	mov    -0x200068(%eax),%eax
 8049f13:	8b 80 98 ff df ff    	mov    -0x200068(%eax),%eax
 8049f19:	8b 80 98 ff df ff    	mov    -0x200068(%eax),%eax
 8049f1f:	8b 80 98 ff df ff    	mov    -0x200068(%eax),%eax
 8049f25:	8b 80 98 ff df ff    	mov    -0x200068(%eax),%eax
 8049f2b:	8b 80 98 ff df ff    	mov    -0x200068(%eax),%eax
 8049f31:	8b 80 98 ff df ff    	mov    -0x200068(%eax),%eax
 8049f37:	8b 80 98 ff df ff    	mov    -0x200068(%eax),%eax
 8049f3d:	8b 80 98 ff df ff    	mov    -0x200068(%eax),%eax
 8049f43:	8b 80 98 ff df ff    	mov    -0x200068(%eax),%eax
 8049f49:	8b 80 98 ff df ff    	mov    -0x200068(%eax),%eax
 8049f4f:	8b 80 98 ff df ff    	mov    -0x200068(%eax),%eax
 8049f55:	8b 80 98 ff df ff    	mov    -0x200068(%eax),%eax
 8049f5b:	8b 80 98 ff df ff    	mov    -0x200068(%eax),%eax
 8049f61:	8b 80 98 ff df ff    	mov    -0x200068(%eax),%eax
 8049f67:	8b 80 98 ff df ff    	mov    -0x200068(%eax),%eax
 8049f6d:	8b 80 98 ff df ff    	mov    -0x200068(%eax),%eax
 8049f73:	8b 80 98 ff df ff    	mov    -0x200068(%eax),%eax
 8049f79:	8b 15 48 e8 3f 08    	mov    0x83fe848,%edx
 8049f7f:	c7 05 70 e8 5f 08 75 	movl   $0xcc000075,0x85fe870
 8049f86:	00 00 cc 
 8049f89:	a3 64 e8 3f 08       	mov    %eax,0x83fe864
 8049f8e:	8b 04 95 60 e8 3f 08 	mov    0x83fe860(,%edx,4),%eax
 8049f95:	8b 15 40 57 05 08    	mov    0x8055740,%edx
 8049f9b:	89 10                	mov    %edx,(%eax)
 8049f9d:	c7 05 70 e8 5f 08 76 	movl   $0xcc000076,0x85fe870
 8049fa4:	00 00 cc 
 8049fa7:	c7 05 40 57 05 08 6d 	movl   $0x6d,0x8055740
 8049fae:	00 00 00 
 8049fb1:	c7 05 70 e8 5f 08 77 	movl   $0xcc000077,0x85fe870
 8049fb8:	00 00 cc 
 8049fbb:	a1 24 e8 3f 08       	mov    0x83fe824,%eax
 8049fc0:	8b 80 98 ff df ff    	mov    -0x200068(%eax),%eax
 8049fc6:	8b 80 98 ff df ff    	mov    -0x200068(%eax),%eax
 8049fcc:	8b 80 98 ff df ff    	mov    -0x200068(%eax),%eax
 8049fd2:	8b 80 98 ff df ff    	mov    -0x200068(%eax),%eax
 8049fd8:	8b 80 98 ff df ff    	mov    -0x200068(%eax),%eax
 8049fde:	8b 80 98 ff df ff    	mov    -0x200068(%eax),%eax
 8049fe4:	8b 80 98 ff df ff    	mov    -0x200068(%eax),%eax
 8049fea:	8b 80 98 ff df ff    	mov    -0x200068(%eax),%eax
 8049ff0:	8b 80 98 ff df ff    	mov    -0x200068(%eax),%eax
 8049ff6:	8b 80 98 ff df ff    	mov    -0x200068(%eax),%eax
 8049ffc:	8b 80 98 ff df ff    	mov    -0x200068(%eax),%eax
 804a002:	8b 80 98 ff df ff    	mov    -0x200068(%eax),%eax
 804a008:	8b 80 98 ff df ff    	mov    -0x200068(%eax),%eax
 804a00e:	8b 80 98 ff df ff    	mov    -0x200068(%eax),%eax
 804a014:	8b 80 98 ff df ff    	mov    -0x200068(%eax),%eax
 804a01a:	8b 80 98 ff df ff    	mov    -0x200068(%eax),%eax
 804a020:	8b 80 98 ff df ff    	mov    -0x200068(%eax),%eax
 804a026:	8b 80 98 ff df ff    	mov    -0x200068(%eax),%eax
 804a02c:	8b 80 98 ff df ff    	mov    -0x200068(%eax),%eax
 804a032:	8b 80 98 ff df ff    	mov    -0x200068(%eax),%eax
 804a038:	8b 80 98 ff df ff    	mov    -0x200068(%eax),%eax
 804a03e:	8b 80 98 ff df ff    	mov    -0x200068(%eax),%eax
 804a044:	8b 80 98 ff df ff    	mov    -0x200068(%eax),%eax
 804a04a:	8b 80 98 ff df ff    	mov    -0x200068(%eax),%eax
 804a050:	8b 80 98 ff df ff    	mov    -0x200068(%eax),%eax
 804a056:	8b 80 98 ff df ff    	mov    -0x200068(%eax),%eax
 804a05c:	8b 80 98 ff df ff    	mov    -0x200068(%eax),%eax
 804a062:	8b 80 98 ff df ff    	mov    -0x200068(%eax),%eax
 804a068:	8b 80 98 ff df ff    	mov    -0x200068(%eax),%eax
 804a06e:	8b 80 98 ff df ff    	mov    -0x200068(%eax),%eax
 804a074:	8b 80 98 ff df ff    	mov    -0x200068(%eax),%eax
 804a07a:	8b 80 98 ff df ff    	mov    -0x200068(%eax),%eax
 804a080:	8b 80 98 ff df ff    	mov    -0x200068(%eax),%eax
 804a086:	8b 80 98 ff df ff    	mov    -0x200068(%eax),%eax
 804a08c:	8b 15 48 e8 3f 08    	mov    0x83fe848,%edx
 804a092:	c7 05 70 e8 5f 08 78 	movl   $0xcc000078,0x85fe870
 804a099:	00 00 cc 
 804a09c:	a3 64 e8 3f 08       	mov    %eax,0x83fe864
 804a0a1:	8b 04 95 60 e8 3f 08 	mov    0x83fe860(,%edx,4),%eax
 804a0a8:	8b 15 40 57 05 08    	mov    0x8055740,%edx
 804a0ae:	89 10                	mov    %edx,(%eax)
 804a0b0:	c7 05 70 e8 5f 08 79 	movl   $0xcc000079,0x85fe870
 804a0b7:	00 00 cc 
 804a0ba:	c7 05 40 57 05 08 75 	movl   $0x75,0x8055740
 804a0c1:	00 00 00 
 804a0c4:	c7 05 70 e8 5f 08 7a 	movl   $0xcc00007a,0x85fe870
 804a0cb:	00 00 cc 
 804a0ce:	a1 24 e8 3f 08       	mov    0x83fe824,%eax
 804a0d3:	8b 80 98 ff df ff    	mov    -0x200068(%eax),%eax
 804a0d9:	8b 80 98 ff df ff    	mov    -0x200068(%eax),%eax
 804a0df:	8b 80 98 ff df ff    	mov    -0x200068(%eax),%eax
 804a0e5:	8b 80 98 ff df ff    	mov    -0x200068(%eax),%eax
 804a0eb:	8b 80 98 ff df ff    	mov    -0x200068(%eax),%eax
 804a0f1:	8b 80 98 ff df ff    	mov    -0x200068(%eax),%eax
 804a0f7:	8b 80 98 ff df ff    	mov    -0x200068(%eax),%eax
 804a0fd:	8b 80 98 ff df ff    	mov    -0x200068(%eax),%eax
 804a103:	8b 80 98 ff df ff    	mov    -0x200068(%eax),%eax
 804a109:	8b 80 98 ff df ff    	mov    -0x200068(%eax),%eax
 804a10f:	8b 80 98 ff df ff    	mov    -0x200068(%eax),%eax
 804a115:	8b 80 98 ff df ff    	mov    -0x200068(%eax),%eax
 804a11b:	8b 80 98 ff df ff    	mov    -0x200068(%eax),%eax
 804a121:	8b 80 98 ff df ff    	mov    -0x200068(%eax),%eax
 804a127:	8b 80 98 ff df ff    	mov    -0x200068(%eax),%eax
 804a12d:	8b 80 98 ff df ff    	mov    -0x200068(%eax),%eax
 804a133:	8b 80 98 ff df ff    	mov    -0x200068(%eax),%eax
 804a139:	8b 80 98 ff df ff    	mov    -0x200068(%eax),%eax
 804a13f:	8b 80 98 ff df ff    	mov    -0x200068(%eax),%eax
 804a145:	8b 80 98 ff df ff    	mov    -0x200068(%eax),%eax
 804a14b:	8b 80 98 ff df ff    	mov    -0x200068(%eax),%eax
 804a151:	8b 80 98 ff df ff    	mov    -0x200068(%eax),%eax
 804a157:	8b 80 98 ff df ff    	mov    -0x200068(%eax),%eax
 804a15d:	8b 80 98 ff df ff    	mov    -0x200068(%eax),%eax
 804a163:	8b 80 98 ff df ff    	mov    -0x200068(%eax),%eax
 804a169:	8b 80 98 ff df ff    	mov    -0x200068(%eax),%eax
 804a16f:	8b 80 98 ff df ff    	mov    -0x200068(%eax),%eax
 804a175:	8b 80 98 ff df ff    	mov    -0x200068(%eax),%eax
 804a17b:	8b 80 98 ff df ff    	mov    -0x200068(%eax),%eax
 804a181:	8b 80 98 ff df ff    	mov    -0x200068(%eax),%eax
 804a187:	8b 80 98 ff df ff    	mov    -0x200068(%eax),%eax
 804a18d:	8b 80 98 ff df ff    	mov    -0x200068(%eax),%eax
 804a193:	8b 80 98 ff df ff    	mov    -0x200068(%eax),%eax
 804a199:	8b 80 98 ff df ff    	mov    -0x200068(%eax),%eax
 804a19f:	8b 80 98 ff df ff    	mov    -0x200068(%eax),%eax
 804a1a5:	8b 15 48 e8 3f 08    	mov    0x83fe848,%edx
 804a1ab:	c7 05 70 e8 5f 08 7b 	movl   $0xcc00007b,0x85fe870
 804a1b2:	00 00 cc 
 804a1b5:	a3 64 e8 3f 08       	mov    %eax,0x83fe864
 804a1ba:	8b 04 95 60 e8 3f 08 	mov    0x83fe860(,%edx,4),%eax
 804a1c1:	8b 15 40 57 05 08    	mov    0x8055740,%edx
 804a1c7:	89 10                	mov    %edx,(%eax)
 804a1c9:	c7 05 70 e8 5f 08 7c 	movl   $0xcc00007c,0x85fe870
 804a1d0:	00 00 cc 
 804a1d3:	c7 05 40 57 05 08 5a 	movl   $0x5a,0x8055740
 804a1da:	00 00 00 
 804a1dd:	c7 05 70 e8 5f 08 7d 	movl   $0xcc00007d,0x85fe870
 804a1e4:	00 00 cc 
 804a1e7:	a1 24 e8 3f 08       	mov    0x83fe824,%eax
 804a1ec:	8b 80 98 ff df ff    	mov    -0x200068(%eax),%eax
 804a1f2:	8b 80 98 ff df ff    	mov    -0x200068(%eax),%eax
 804a1f8:	8b 80 98 ff df ff    	mov    -0x200068(%eax),%eax
 804a1fe:	8b 80 98 ff df ff    	mov    -0x200068(%eax),%eax
 804a204:	8b 80 98 ff df ff    	mov    -0x200068(%eax),%eax
 804a20a:	8b 80 98 ff df ff    	mov    -0x200068(%eax),%eax
 804a210:	8b 80 98 ff df ff    	mov    -0x200068(%eax),%eax
 804a216:	8b 80 98 ff df ff    	mov    -0x200068(%eax),%eax
 804a21c:	8b 80 98 ff df ff    	mov    -0x200068(%eax),%eax
 804a222:	8b 80 98 ff df ff    	mov    -0x200068(%eax),%eax
 804a228:	8b 80 98 ff df ff    	mov    -0x200068(%eax),%eax
 804a22e:	8b 80 98 ff df ff    	mov    -0x200068(%eax),%eax
 804a234:	8b 80 98 ff df ff    	mov    -0x200068(%eax),%eax
 804a23a:	8b 80 98 ff df ff    	mov    -0x200068(%eax),%eax
 804a240:	8b 80 98 ff df ff    	mov    -0x200068(%eax),%eax
 804a246:	8b 80 98 ff df ff    	mov    -0x200068(%eax),%eax
 804a24c:	8b 80 98 ff df ff    	mov    -0x200068(%eax),%eax
 804a252:	8b 80 98 ff df ff    	mov    -0x200068(%eax),%eax
 804a258:	8b 80 98 ff df ff    	mov    -0x200068(%eax),%eax
 804a25e:	8b 80 98 ff df ff    	mov    -0x200068(%eax),%eax
 804a264:	8b 80 98 ff df ff    	mov    -0x200068(%eax),%eax
 804a26a:	8b 80 98 ff df ff    	mov    -0x200068(%eax),%eax
 804a270:	8b 80 98 ff df ff    	mov    -0x200068(%eax),%eax
 804a276:	8b 80 98 ff df ff    	mov    -0x200068(%eax),%eax
 804a27c:	8b 80 98 ff df ff    	mov    -0x200068(%eax),%eax
 804a282:	8b 80 98 ff df ff    	mov    -0x200068(%eax),%eax
 804a288:	8b 80 98 ff df ff    	mov    -0x200068(%eax),%eax
 804a28e:	8b 80 98 ff df ff    	mov    -0x200068(%eax),%eax
 804a294:	8b 80 98 ff df ff    	mov    -0x200068(%eax),%eax
 804a29a:	8b 80 98 ff df ff    	mov    -0x200068(%eax),%eax
 804a2a0:	8b 80 98 ff df ff    	mov    -0x200068(%eax),%eax
 804a2a6:	8b 80 98 ff df ff    	mov    -0x200068(%eax),%eax
 804a2ac:	8b 80 98 ff df ff    	mov    -0x200068(%eax),%eax
 804a2b2:	8b 80 98 ff df ff    	mov    -0x200068(%eax),%eax
 804a2b8:	8b 80 98 ff df ff    	mov    -0x200068(%eax),%eax
 804a2be:	8b 80 98 ff df ff    	mov    -0x200068(%eax),%eax
 804a2c4:	8b 15 48 e8 3f 08    	mov    0x83fe848,%edx
 804a2ca:	c7 05 70 e8 5f 08 7e 	movl   $0xcc00007e,0x85fe870
 804a2d1:	00 00 cc 
 804a2d4:	a3 64 e8 3f 08       	mov    %eax,0x83fe864
 804a2d9:	8b 04 95 60 e8 3f 08 	mov    0x83fe860(,%edx,4),%eax
 804a2e0:	8b 15 40 57 05 08    	mov    0x8055740,%edx
 804a2e6:	89 10                	mov    %edx,(%eax)
 804a2e8:	c7 05 70 e8 5f 08 7f 	movl   $0xcc00007f,0x85fe870
 804a2ef:	00 00 cc 
 804a2f2:	c7 05 40 57 05 08 06 	movl   $0x6,0x8055740
 804a2f9:	00 00 00 
 804a2fc:	c7 05 70 e8 5f 08 80 	movl   $0xcc000080,0x85fe870
 804a303:	00 00 cc 
 804a306:	a1 24 e8 3f 08       	mov    0x83fe824,%eax
 804a30b:	8b 80 98 ff df ff    	mov    -0x200068(%eax),%eax
 804a311:	8b 80 98 ff df ff    	mov    -0x200068(%eax),%eax
 804a317:	8b 80 98 ff df ff    	mov    -0x200068(%eax),%eax
 804a31d:	8b 80 98 ff df ff    	mov    -0x200068(%eax),%eax
 804a323:	8b 80 98 ff df ff    	mov    -0x200068(%eax),%eax
 804a329:	8b 80 98 ff df ff    	mov    -0x200068(%eax),%eax
 804a32f:	8b 80 98 ff df ff    	mov    -0x200068(%eax),%eax
 804a335:	8b 80 98 ff df ff    	mov    -0x200068(%eax),%eax
 804a33b:	8b 80 98 ff df ff    	mov    -0x200068(%eax),%eax
 804a341:	8b 80 98 ff df ff    	mov    -0x200068(%eax),%eax
 804a347:	8b 80 98 ff df ff    	mov    -0x200068(%eax),%eax
 804a34d:	8b 80 98 ff df ff    	mov    -0x200068(%eax),%eax
 804a353:	8b 80 98 ff df ff    	mov    -0x200068(%eax),%eax
 804a359:	8b 80 98 ff df ff    	mov    -0x200068(%eax),%eax
 804a35f:	8b 80 98 ff df ff    	mov    -0x200068(%eax),%eax
 804a365:	8b 80 98 ff df ff    	mov    -0x200068(%eax),%eax
 804a36b:	8b 80 98 ff df ff    	mov    -0x200068(%eax),%eax
 804a371:	8b 80 98 ff df ff    	mov    -0x200068(%eax),%eax
 804a377:	8b 80 98 ff df ff    	mov    -0x200068(%eax),%eax
 804a37d:	8b 80 98 ff df ff    	mov    -0x200068(%eax),%eax
 804a383:	8b 80 98 ff df ff    	mov    -0x200068(%eax),%eax
 804a389:	8b 80 98 ff df ff    	mov    -0x200068(%eax),%eax
 804a38f:	8b 80 98 ff df ff    	mov    -0x200068(%eax),%eax
 804a395:	8b 80 98 ff df ff    	mov    -0x200068(%eax),%eax
 804a39b:	8b 80 98 ff df ff    	mov    -0x200068(%eax),%eax
 804a3a1:	8b 80 98 ff df ff    	mov    -0x200068(%eax),%eax
 804a3a7:	8b 80 98 ff df ff    	mov    -0x200068(%eax),%eax
 804a3ad:	8b 80 98 ff df ff    	mov    -0x200068(%eax),%eax
 804a3b3:	8b 80 98 ff df ff    	mov    -0x200068(%eax),%eax
 804a3b9:	8b 80 98 ff df ff    	mov    -0x200068(%eax),%eax
 804a3bf:	8b 80 98 ff df ff    	mov    -0x200068(%eax),%eax
 804a3c5:	8b 80 98 ff df ff    	mov    -0x200068(%eax),%eax
 804a3cb:	8b 80 98 ff df ff    	mov    -0x200068(%eax),%eax
 804a3d1:	8b 80 98 ff df ff    	mov    -0x200068(%eax),%eax
 804a3d7:	8b 80 98 ff df ff    	mov    -0x200068(%eax),%eax
 804a3dd:	8b 80 98 ff df ff    	mov    -0x200068(%eax),%eax
 804a3e3:	8b 80 98 ff df ff    	mov    -0x200068(%eax),%eax
 804a3e9:	8b 15 48 e8 3f 08    	mov    0x83fe848,%edx
 804a3ef:	c7 05 70 e8 5f 08 81 	movl   $0xcc000081,0x85fe870
 804a3f6:	00 00 cc 
 804a3f9:	a3 64 e8 3f 08       	mov    %eax,0x83fe864
 804a3fe:	8b 04 95 60 e8 3f 08 	mov    0x83fe860(,%edx,4),%eax
 804a405:	8b 15 40 57 05 08    	mov    0x8055740,%edx
 804a40b:	89 10                	mov    %edx,(%eax)
 804a40d:	c7 05 70 e8 5f 08 82 	movl   $0xcc000082,0x85fe870
 804a414:	00 00 cc 
 804a417:	c7 05 40 57 05 08 01 	movl   $0x1,0x8055740
 804a41e:	00 00 00 
 804a421:	c7 05 70 e8 5f 08 83 	movl   $0xcc000083,0x85fe870
 804a428:	00 00 cc 
 804a42b:	a1 24 e8 3f 08       	mov    0x83fe824,%eax
 804a430:	8b 80 98 ff df ff    	mov    -0x200068(%eax),%eax
 804a436:	8b 80 98 ff df ff    	mov    -0x200068(%eax),%eax
 804a43c:	8b 80 98 ff df ff    	mov    -0x200068(%eax),%eax
 804a442:	8b 80 98 ff df ff    	mov    -0x200068(%eax),%eax
 804a448:	8b 80 98 ff df ff    	mov    -0x200068(%eax),%eax
 804a44e:	8b 80 98 ff df ff    	mov    -0x200068(%eax),%eax
 804a454:	8b 80 98 ff df ff    	mov    -0x200068(%eax),%eax
 804a45a:	8b 80 98 ff df ff    	mov    -0x200068(%eax),%eax
 804a460:	8b 80 98 ff df ff    	mov    -0x200068(%eax),%eax
 804a466:	8b 80 98 ff df ff    	mov    -0x200068(%eax),%eax
 804a46c:	8b 80 98 ff df ff    	mov    -0x200068(%eax),%eax
 804a472:	8b 80 98 ff df ff    	mov    -0x200068(%eax),%eax
 804a478:	8b 80 98 ff df ff    	mov    -0x200068(%eax),%eax
 804a47e:	8b 80 98 ff df ff    	mov    -0x200068(%eax),%eax
 804a484:	8b 80 98 ff df ff    	mov    -0x200068(%eax),%eax
 804a48a:	8b 80 98 ff df ff    	mov    -0x200068(%eax),%eax
 804a490:	8b 80 98 ff df ff    	mov    -0x200068(%eax),%eax
 804a496:	8b 80 98 ff df ff    	mov    -0x200068(%eax),%eax
 804a49c:	8b 80 98 ff df ff    	mov    -0x200068(%eax),%eax
 804a4a2:	8b 80 98 ff df ff    	mov    -0x200068(%eax),%eax
 804a4a8:	8b 80 98 ff df ff    	mov    -0x200068(%eax),%eax
 804a4ae:	8b 80 98 ff df ff    	mov    -0x200068(%eax),%eax
 804a4b4:	8b 80 98 ff df ff    	mov    -0x200068(%eax),%eax
 804a4ba:	8b 80 98 ff df ff    	mov    -0x200068(%eax),%eax
 804a4c0:	8b 80 98 ff df ff    	mov    -0x200068(%eax),%eax
 804a4c6:	8b 80 98 ff df ff    	mov    -0x200068(%eax),%eax
 804a4cc:	8b 80 98 ff df ff    	mov    -0x200068(%eax),%eax
 804a4d2:	8b 80 98 ff df ff    	mov    -0x200068(%eax),%eax
 804a4d8:	8b 80 98 ff df ff    	mov    -0x200068(%eax),%eax
 804a4de:	8b 80 98 ff df ff    	mov    -0x200068(%eax),%eax
 804a4e4:	8b 80 98 ff df ff    	mov    -0x200068(%eax),%eax
 804a4ea:	8b 80 98 ff df ff    	mov    -0x200068(%eax),%eax
 804a4f0:	8b 80 98 ff df ff    	mov    -0x200068(%eax),%eax
 804a4f6:	8b 80 98 ff df ff    	mov    -0x200068(%eax),%eax
 804a4fc:	8b 80 98 ff df ff    	mov    -0x200068(%eax),%eax
 804a502:	8b 80 98 ff df ff    	mov    -0x200068(%eax),%eax
 804a508:	8b 80 98 ff df ff    	mov    -0x200068(%eax),%eax
 804a50e:	8b 80 98 ff df ff    	mov    -0x200068(%eax),%eax
 804a514:	8b 15 48 e8 3f 08    	mov    0x83fe848,%edx
 804a51a:	c7 05 70 e8 5f 08 84 	movl   $0xcc000084,0x85fe870
 804a521:	00 00 cc 
 804a524:	a3 64 e8 3f 08       	mov    %eax,0x83fe864
 804a529:	8b 04 95 60 e8 3f 08 	mov    0x83fe860(,%edx,4),%eax
 804a530:	8b 15 40 57 05 08    	mov    0x8055740,%edx
 804a536:	89 10                	mov    %edx,(%eax)
 804a538:	c7 05 70 e8 5f 08 85 	movl   $0xcc000085,0x85fe870
 804a53f:	00 00 cc 
 804a542:	c7 05 40 57 05 08 30 	movl   $0x30,0x8055740
 804a549:	00 00 00 
 804a54c:	c7 05 70 e8 5f 08 86 	movl   $0xcc000086,0x85fe870
 804a553:	00 00 cc 
 804a556:	a1 24 e8 3f 08       	mov    0x83fe824,%eax
 804a55b:	8b 80 98 ff df ff    	mov    -0x200068(%eax),%eax
 804a561:	8b 80 98 ff df ff    	mov    -0x200068(%eax),%eax
 804a567:	8b 80 98 ff df ff    	mov    -0x200068(%eax),%eax
 804a56d:	8b 80 98 ff df ff    	mov    -0x200068(%eax),%eax
 804a573:	8b 80 98 ff df ff    	mov    -0x200068(%eax),%eax
 804a579:	8b 80 98 ff df ff    	mov    -0x200068(%eax),%eax
 804a57f:	8b 80 98 ff df ff    	mov    -0x200068(%eax),%eax
 804a585:	8b 80 98 ff df ff    	mov    -0x200068(%eax),%eax
 804a58b:	8b 80 98 ff df ff    	mov    -0x200068(%eax),%eax
 804a591:	8b 80 98 ff df ff    	mov    -0x200068(%eax),%eax
 804a597:	8b 80 98 ff df ff    	mov    -0x200068(%eax),%eax
 804a59d:	8b 80 98 ff df ff    	mov    -0x200068(%eax),%eax
 804a5a3:	8b 80 98 ff df ff    	mov    -0x200068(%eax),%eax
 804a5a9:	8b 80 98 ff df ff    	mov    -0x200068(%eax),%eax
 804a5af:	8b 80 98 ff df ff    	mov    -0x200068(%eax),%eax
 804a5b5:	8b 80 98 ff df ff    	mov    -0x200068(%eax),%eax
 804a5bb:	8b 80 98 ff df ff    	mov    -0x200068(%eax),%eax
 804a5c1:	8b 80 98 ff df ff    	mov    -0x200068(%eax),%eax
 804a5c7:	8b 80 98 ff df ff    	mov    -0x200068(%eax),%eax
 804a5cd:	8b 80 98 ff df ff    	mov    -0x200068(%eax),%eax
 804a5d3:	8b 80 98 ff df ff    	mov    -0x200068(%eax),%eax
 804a5d9:	8b 80 98 ff df ff    	mov    -0x200068(%eax),%eax
 804a5df:	8b 80 98 ff df ff    	mov    -0x200068(%eax),%eax
 804a5e5:	8b 80 98 ff df ff    	mov    -0x200068(%eax),%eax
 804a5eb:	8b 80 98 ff df ff    	mov    -0x200068(%eax),%eax
 804a5f1:	8b 80 98 ff df ff    	mov    -0x200068(%eax),%eax
 804a5f7:	8b 80 98 ff df ff    	mov    -0x200068(%eax),%eax
 804a5fd:	8b 80 98 ff df ff    	mov    -0x200068(%eax),%eax
 804a603:	8b 80 98 ff df ff    	mov    -0x200068(%eax),%eax
 804a609:	8b 80 98 ff df ff    	mov    -0x200068(%eax),%eax
 804a60f:	8b 80 98 ff df ff    	mov    -0x200068(%eax),%eax
 804a615:	8b 80 98 ff df ff    	mov    -0x200068(%eax),%eax
 804a61b:	8b 80 98 ff df ff    	mov    -0x200068(%eax),%eax
 804a621:	8b 80 98 ff df ff    	mov    -0x200068(%eax),%eax
 804a627:	8b 80 98 ff df ff    	mov    -0x200068(%eax),%eax
 804a62d:	8b 80 98 ff df ff    	mov    -0x200068(%eax),%eax
 804a633:	8b 80 98 ff df ff    	mov    -0x200068(%eax),%eax
 804a639:	8b 80 98 ff df ff    	mov    -0x200068(%eax),%eax
 804a63f:	8b 80 98 ff df ff    	mov    -0x200068(%eax),%eax
 804a645:	8b 15 48 e8 3f 08    	mov    0x83fe848,%edx
 804a64b:	c7 05 70 e8 5f 08 87 	movl   $0xcc000087,0x85fe870
 804a652:	00 00 cc 
 804a655:	a3 64 e8 3f 08       	mov    %eax,0x83fe864
 804a65a:	8b 04 95 60 e8 3f 08 	mov    0x83fe860(,%edx,4),%eax
 804a661:	8b 15 40 57 05 08    	mov    0x8055740,%edx
 804a667:	89 10                	mov    %edx,(%eax)
 804a669:	c7 05 70 e8 5f 08 88 	movl   $0xcc000088,0x85fe870
 804a670:	00 00 cc 
 804a673:	c7 05 70 e8 5f 08 89 	movl   $0xcc000089,0x85fe870
 804a67a:	00 00 cc 
 804a67d:	a1 24 e8 3f 08       	mov    0x83fe824,%eax
 804a682:	8b 80 98 ff df ff    	mov    -0x200068(%eax),%eax
 804a688:	8b 80 98 ff df ff    	mov    -0x200068(%eax),%eax
 804a68e:	8b 80 98 ff df ff    	mov    -0x200068(%eax),%eax
 804a694:	8b 80 98 ff df ff    	mov    -0x200068(%eax),%eax
 804a69a:	8b 80 98 ff df ff    	mov    -0x200068(%eax),%eax
 804a6a0:	8b 80 98 ff df ff    	mov    -0x200068(%eax),%eax
 804a6a6:	8b 80 98 ff df ff    	mov    -0x200068(%eax),%eax
 804a6ac:	8b 80 98 ff df ff    	mov    -0x200068(%eax),%eax
 804a6b2:	8b 80 98 ff df ff    	mov    -0x200068(%eax),%eax
 804a6b8:	8b 80 98 ff df ff    	mov    -0x200068(%eax),%eax
 804a6be:	8b 80 98 ff df ff    	mov    -0x200068(%eax),%eax
 804a6c4:	8b 80 98 ff df ff    	mov    -0x200068(%eax),%eax
 804a6ca:	8b 80 98 ff df ff    	mov    -0x200068(%eax),%eax
 804a6d0:	8b 80 98 ff df ff    	mov    -0x200068(%eax),%eax
 804a6d6:	8b 80 98 ff df ff    	mov    -0x200068(%eax),%eax
 804a6dc:	8b 80 98 ff df ff    	mov    -0x200068(%eax),%eax
 804a6e2:	8b 80 98 ff df ff    	mov    -0x200068(%eax),%eax
 804a6e8:	8b 80 98 ff df ff    	mov    -0x200068(%eax),%eax
 804a6ee:	8b 80 98 ff df ff    	mov    -0x200068(%eax),%eax
 804a6f4:	8b 80 98 ff df ff    	mov    -0x200068(%eax),%eax
 804a6fa:	8b 80 98 ff df ff    	mov    -0x200068(%eax),%eax
 804a700:	8b 80 98 ff df ff    	mov    -0x200068(%eax),%eax
 804a706:	8b 80 98 ff df ff    	mov    -0x200068(%eax),%eax
 804a70c:	8b 80 98 ff df ff    	mov    -0x200068(%eax),%eax
 804a712:	8b 80 98 ff df ff    	mov    -0x200068(%eax),%eax
 804a718:	8b 80 98 ff df ff    	mov    -0x200068(%eax),%eax
 804a71e:	8b 80 98 ff df ff    	mov    -0x200068(%eax),%eax
 804a724:	8b 80 98 ff df ff    	mov    -0x200068(%eax),%eax
 804a72a:	8b 80 98 ff df ff    	mov    -0x200068(%eax),%eax
 804a730:	8b 80 98 ff df ff    	mov    -0x200068(%eax),%eax
 804a736:	8b 80 98 ff df ff    	mov    -0x200068(%eax),%eax
 804a73c:	8b 80 98 ff df ff    	mov    -0x200068(%eax),%eax
 804a742:	a3 40 57 05 08       	mov    %eax,0x8055740
 804a747:	c7 05 70 e8 5f 08 8a 	movl   $0xcc00008a,0x85fe870
 804a74e:	00 00 cc 
 804a751:	a1 40 57 05 08       	mov    0x8055740,%eax
 804a756:	8b 15 48 e8 3f 08    	mov    0x83fe848,%edx
 804a75c:	c7 05 70 e8 5f 08 8b 	movl   $0xcc00008b,0x85fe870
 804a763:	00 00 cc 
 804a766:	a3 64 e8 3f 08       	mov    %eax,0x83fe864
 804a76b:	8b 04 95 60 e8 3f 08 	mov    0x83fe860(,%edx,4),%eax
 804a772:	ba 00 00 00 00       	mov    $0x0,%edx
 804a777:	8a 10                	mov    (%eax),%dl
 804a779:	89 15 40 57 05 08    	mov    %edx,0x8055740
 804a77f:	c7 05 70 e8 5f 08 8c 	movl   $0xcc00008c,0x85fe870
 804a786:	00 00 cc 
 804a789:	ba 00 00 00 00       	mov    $0x0,%edx
 804a78e:	8a 15 40 57 05 08    	mov    0x8055740,%dl
 804a794:	8b 14 95 60 e2 1f 08 	mov    0x81fe260(,%edx,4),%edx
 804a79b:	89 15 40 57 05 08    	mov    %edx,0x8055740
 804a7a1:	c7 05 70 e8 5f 08 8d 	movl   $0xcc00008d,0x85fe870
 804a7a8:	00 00 cc 
 804a7ab:	a1 40 57 05 08       	mov    0x8055740,%eax
 804a7b0:	8b 15 4c 57 05 08    	mov    0x805574c,%edx
 804a7b6:	c7 05 70 e8 5f 08 8e 	movl   $0xcc00008e,0x85fe870
 804a7bd:	00 00 cc 
 804a7c0:	a3 e0 e6 1f 08       	mov    %eax,0x81fe6e0
 804a7c5:	89 15 e4 e6 1f 08    	mov    %edx,0x81fe6e4
 804a7cb:	c7 05 70 e8 5f 08 8f 	movl   $0xcc00008f,0x85fe870
 804a7d2:	00 00 cc 
 804a7d5:	b8 00 00 00 00       	mov    $0x0,%eax
 804a7da:	b9 00 00 00 00       	mov    $0x0,%ecx
 804a7df:	c7 05 f0 e6 1f 08 00 	movl   $0x0,0x81fe6f0
 804a7e6:	00 00 00 
 804a7e9:	c7 05 70 e8 5f 08 90 	movl   $0xcc000090,0x85fe870
 804a7f0:	00 00 cc 
 804a7f3:	66 a1 e0 e6 1f 08    	mov    0x81fe6e0,%ax
 804a7f9:	66 8b 0d e4 e6 1f 08 	mov    0x81fe6e4,%cx
 804a800:	8b 14 85 20 96 06 08 	mov    0x8069620(,%eax,4),%edx
 804a807:	8b 14 8a             	mov    (%edx,%ecx,4),%edx
 804a80a:	66 8b 0d f2 e6 1f 08 	mov    0x81fe6f2,%cx
 804a811:	8b 14 95 20 96 06 08 	mov    0x8069620(,%edx,4),%edx
 804a818:	8b 14 8a             	mov    (%edx,%ecx,4),%edx
 804a81b:	66 89 15 e8 e6 1f 08 	mov    %dx,0x81fe6e8
 804a822:	89 15 f0 e6 1f 08    	mov    %edx,0x81fe6f0
 804a828:	c7 05 70 e8 5f 08 91 	movl   $0xcc000091,0x85fe870
 804a82f:	00 00 cc 
 804a832:	66 a1 e2 e6 1f 08    	mov    0x81fe6e2,%ax
 804a838:	66 8b 0d e6 e6 1f 08 	mov    0x81fe6e6,%cx
 804a83f:	8b 14 85 20 96 06 08 	mov    0x8069620(,%eax,4),%edx
 804a846:	8b 14 8a             	mov    (%edx,%ecx,4),%edx
 804a849:	66 8b 0d f2 e6 1f 08 	mov    0x81fe6f2,%cx
 804a850:	8b 14 95 20 96 06 08 	mov    0x8069620(,%edx,4),%edx
 804a857:	8b 14 8a             	mov    (%edx,%ecx,4),%edx
 804a85a:	66 89 15 ea e6 1f 08 	mov    %dx,0x81fe6ea
 804a861:	89 15 f0 e6 1f 08    	mov    %edx,0x81fe6f0
 804a867:	a1 e8 e6 1f 08       	mov    0x81fe6e8,%eax
 804a86c:	a3 40 57 05 08       	mov    %eax,0x8055740
 804a871:	c7 05 70 e8 5f 08 92 	movl   $0xcc000092,0x85fe870
 804a878:	00 00 cc 
 804a87b:	a1 40 57 05 08       	mov    0x8055740,%eax
 804a880:	8b 15 48 57 05 08    	mov    0x8055748,%edx
 804a886:	c7 05 70 e8 5f 08 93 	movl   $0xcc000093,0x85fe870
 804a88d:	00 00 cc 
 804a890:	a3 e0 e6 1f 08       	mov    %eax,0x81fe6e0
 804a895:	89 15 e4 e6 1f 08    	mov    %edx,0x81fe6e4
 804a89b:	c7 05 70 e8 5f 08 94 	movl   $0xcc000094,0x85fe870
 804a8a2:	00 00 cc 
 804a8a5:	c7 05 70 e8 5f 08 95 	movl   $0xcc000095,0x85fe870
 804a8ac:	00 00 cc 
 804a8af:	b8 00 00 00 00       	mov    $0x0,%eax
 804a8b4:	ba 00 00 00 00       	mov    $0x0,%edx
 804a8b9:	a0 e0 e6 1f 08       	mov    0x81fe6e0,%al
 804a8be:	8a 15 e4 e6 1f 08    	mov    0x81fe6e4,%dl
 804a8c4:	8b 04 85 70 a1 1a 08 	mov    0x81aa170(,%eax,4),%eax
 804a8cb:	8a 04 10             	mov    (%eax,%edx,1),%al
 804a8ce:	a2 e8 e6 1f 08       	mov    %al,0x81fe6e8
 804a8d3:	c7 05 70 e8 5f 08 96 	movl   $0xcc000096,0x85fe870
 804a8da:	00 00 cc 
 804a8dd:	b8 00 00 00 00       	mov    $0x0,%eax
 804a8e2:	ba 00 00 00 00       	mov    $0x0,%edx
 804a8e7:	a0 e1 e6 1f 08       	mov    0x81fe6e1,%al
 804a8ec:	8a 15 e5 e6 1f 08    	mov    0x81fe6e5,%dl
 804a8f2:	8b 04 85 70 a1 1a 08 	mov    0x81aa170(,%eax,4),%eax
 804a8f9:	8a 04 10             	mov    (%eax,%edx,1),%al
 804a8fc:	a2 e9 e6 1f 08       	mov    %al,0x81fe6e9
 804a901:	c7 05 70 e8 5f 08 97 	movl   $0xcc000097,0x85fe870
 804a908:	00 00 cc 
 804a90b:	b8 00 00 00 00       	mov    $0x0,%eax
 804a910:	ba 00 00 00 00       	mov    $0x0,%edx
 804a915:	a0 e2 e6 1f 08       	mov    0x81fe6e2,%al
 804a91a:	8a 15 e6 e6 1f 08    	mov    0x81fe6e6,%dl
 804a920:	8b 04 85 70 a1 1a 08 	mov    0x81aa170(,%eax,4),%eax
 804a927:	8a 04 10             	mov    (%eax,%edx,1),%al
 804a92a:	a2 ea e6 1f 08       	mov    %al,0x81fe6ea
 804a92f:	c7 05 70 e8 5f 08 98 	movl   $0xcc000098,0x85fe870
 804a936:	00 00 cc 
 804a939:	b8 00 00 00 00       	mov    $0x0,%eax
 804a93e:	ba 00 00 00 00       	mov    $0x0,%edx
 804a943:	a0 e3 e6 1f 08       	mov    0x81fe6e3,%al
 804a948:	8a 15 e7 e6 1f 08    	mov    0x81fe6e7,%dl
 804a94e:	8b 04 85 70 a1 1a 08 	mov    0x81aa170(,%eax,4),%eax
 804a955:	8a 04 10             	mov    (%eax,%edx,1),%al
 804a958:	a2 eb e6 1f 08       	mov    %al,0x81fe6eb
 804a95d:	a1 e8 e6 1f 08       	mov    0x81fe6e8,%eax
 804a962:	a3 40 57 05 08       	mov    %eax,0x8055740
 804a967:	c7 05 70 e8 5f 08 99 	movl   $0xcc000099,0x85fe870
 804a96e:	00 00 cc 
 804a971:	a1 24 e8 3f 08       	mov    0x83fe824,%eax
 804a976:	8b 80 98 ff df ff    	mov    -0x200068(%eax),%eax
 804a97c:	8b 80 98 ff df ff    	mov    -0x200068(%eax),%eax
 804a982:	8b 80 98 ff df ff    	mov    -0x200068(%eax),%eax
 804a988:	8b 80 98 ff df ff    	mov    -0x200068(%eax),%eax
 804a98e:	8b 80 98 ff df ff    	mov    -0x200068(%eax),%eax
 804a994:	8b 80 98 ff df ff    	mov    -0x200068(%eax),%eax
 804a99a:	8b 80 98 ff df ff    	mov    -0x200068(%eax),%eax
 804a9a0:	8b 80 98 ff df ff    	mov    -0x200068(%eax),%eax
 804a9a6:	8b 80 98 ff df ff    	mov    -0x200068(%eax),%eax
 804a9ac:	8b 80 98 ff df ff    	mov    -0x200068(%eax),%eax
 804a9b2:	8b 80 98 ff df ff    	mov    -0x200068(%eax),%eax
 804a9b8:	8b 80 98 ff df ff    	mov    -0x200068(%eax),%eax
 804a9be:	8b 80 98 ff df ff    	mov    -0x200068(%eax),%eax
 804a9c4:	8b 80 98 ff df ff    	mov    -0x200068(%eax),%eax
 804a9ca:	8b 80 98 ff df ff    	mov    -0x200068(%eax),%eax
 804a9d0:	8b 80 98 ff df ff    	mov    -0x200068(%eax),%eax
 804a9d6:	8b 80 98 ff df ff    	mov    -0x200068(%eax),%eax
 804a9dc:	8b 80 98 ff df ff    	mov    -0x200068(%eax),%eax
 804a9e2:	8b 80 98 ff df ff    	mov    -0x200068(%eax),%eax
 804a9e8:	8b 80 98 ff df ff    	mov    -0x200068(%eax),%eax
 804a9ee:	8b 80 98 ff df ff    	mov    -0x200068(%eax),%eax
 804a9f4:	8b 80 98 ff df ff    	mov    -0x200068(%eax),%eax
 804a9fa:	8b 80 98 ff df ff    	mov    -0x200068(%eax),%eax
 804aa00:	8b 80 98 ff df ff    	mov    -0x200068(%eax),%eax
 804aa06:	8b 80 98 ff df ff    	mov    -0x200068(%eax),%eax
 804aa0c:	8b 80 98 ff df ff    	mov    -0x200068(%eax),%eax
 804aa12:	8b 80 98 ff df ff    	mov    -0x200068(%eax),%eax
 804aa18:	8b 80 98 ff df ff    	mov    -0x200068(%eax),%eax
 804aa1e:	8b 80 98 ff df ff    	mov    -0x200068(%eax),%eax
 804aa24:	8b 80 98 ff df ff    	mov    -0x200068(%eax),%eax
 804aa2a:	8b 80 98 ff df ff    	mov    -0x200068(%eax),%eax
 804aa30:	8b 80 98 ff df ff    	mov    -0x200068(%eax),%eax
 804aa36:	8b 80 98 ff df ff    	mov    -0x200068(%eax),%eax
 804aa3c:	8b 80 98 ff df ff    	mov    -0x200068(%eax),%eax
 804aa42:	8b 80 98 ff df ff    	mov    -0x200068(%eax),%eax
 804aa48:	8b 80 98 ff df ff    	mov    -0x200068(%eax),%eax
 804aa4e:	8b 80 98 ff df ff    	mov    -0x200068(%eax),%eax
 804aa54:	8b 80 98 ff df ff    	mov    -0x200068(%eax),%eax
 804aa5a:	8b 80 98 ff df ff    	mov    -0x200068(%eax),%eax
 804aa60:	8b 80 98 ff df ff    	mov    -0x200068(%eax),%eax
 804aa66:	8b 80 98 ff df ff    	mov    -0x200068(%eax),%eax
 804aa6c:	8b 15 48 e8 3f 08    	mov    0x83fe848,%edx
 804aa72:	c7 05 70 e8 5f 08 9a 	movl   $0xcc00009a,0x85fe870
 804aa79:	00 00 cc 
 804aa7c:	a3 64 e8 3f 08       	mov    %eax,0x83fe864
 804aa81:	8b 04 95 60 e8 3f 08 	mov    0x83fe860(,%edx,4),%eax
 804aa88:	8b 15 40 57 05 08    	mov    0x8055740,%edx
 804aa8e:	89 10                	mov    %edx,(%eax)
 804aa90:	c7 05 70 e8 5f 08 9b 	movl   $0xcc00009b,0x85fe870
 804aa97:	00 00 cc 
 804aa9a:	a1 24 e8 3f 08       	mov    0x83fe824,%eax
 804aa9f:	ba 81 ff ff ff       	mov    $0xffffff81,%edx
 804aaa4:	c7 05 70 e8 5f 08 9c 	movl   $0xcc00009c,0x85fe870
 804aaab:	00 00 cc 
 804aaae:	a3 e0 e6 1f 08       	mov    %eax,0x81fe6e0
 804aab3:	89 15 e4 e6 1f 08    	mov    %edx,0x81fe6e4
 804aab9:	c7 05 70 e8 5f 08 9d 	movl   $0xcc00009d,0x85fe870
 804aac0:	00 00 cc 
 804aac3:	b8 00 00 00 00       	mov    $0x0,%eax
 804aac8:	b9 00 00 00 00       	mov    $0x0,%ecx
 804aacd:	c7 05 f0 e6 1f 08 00 	movl   $0x0,0x81fe6f0
 804aad4:	00 00 00 
 804aad7:	c7 05 70 e8 5f 08 9e 	movl   $0xcc00009e,0x85fe870
 804aade:	00 00 cc 
 804aae1:	66 a1 e0 e6 1f 08    	mov    0x81fe6e0,%ax
 804aae7:	66 8b 0d e4 e6 1f 08 	mov    0x81fe6e4,%cx
 804aaee:	8b 14 85 20 96 06 08 	mov    0x8069620(,%eax,4),%edx
 804aaf5:	8b 14 8a             	mov    (%edx,%ecx,4),%edx
 804aaf8:	66 8b 0d f2 e6 1f 08 	mov    0x81fe6f2,%cx
 804aaff:	8b 14 95 20 96 06 08 	mov    0x8069620(,%edx,4),%edx
 804ab06:	8b 14 8a             	mov    (%edx,%ecx,4),%edx
 804ab09:	66 89 15 e8 e6 1f 08 	mov    %dx,0x81fe6e8
 804ab10:	89 15 f0 e6 1f 08    	mov    %edx,0x81fe6f0
 804ab16:	c7 05 70 e8 5f 08 9f 	movl   $0xcc00009f,0x85fe870
 804ab1d:	00 00 cc 
 804ab20:	66 a1 e2 e6 1f 08    	mov    0x81fe6e2,%ax
 804ab26:	66 8b 0d e6 e6 1f 08 	mov    0x81fe6e6,%cx
 804ab2d:	8b 14 85 20 96 06 08 	mov    0x8069620(,%eax,4),%edx
 804ab34:	8b 14 8a             	mov    (%edx,%ecx,4),%edx
 804ab37:	66 8b 0d f2 e6 1f 08 	mov    0x81fe6f2,%cx
 804ab3e:	8b 14 95 20 96 06 08 	mov    0x8069620(,%edx,4),%edx
 804ab45:	8b 14 8a             	mov    (%edx,%ecx,4),%edx
 804ab48:	66 89 15 ea e6 1f 08 	mov    %dx,0x81fe6ea
 804ab4f:	89 15 f0 e6 1f 08    	mov    %edx,0x81fe6f0
 804ab55:	a1 e8 e6 1f 08       	mov    0x81fe6e8,%eax
 804ab5a:	a3 48 57 05 08       	mov    %eax,0x8055748
 804ab5f:	c7 05 70 e8 5f 08 a0 	movl   $0xcc0000a0,0x85fe870
 804ab66:	00 00 cc 
 804ab69:	a1 48 57 05 08       	mov    0x8055748,%eax
 804ab6e:	8b 15 48 e8 3f 08    	mov    0x83fe848,%edx
 804ab74:	c7 05 70 e8 5f 08 a1 	movl   $0xcc0000a1,0x85fe870
 804ab7b:	00 00 cc 
 804ab7e:	a3 64 e8 3f 08       	mov    %eax,0x83fe864
 804ab83:	8b 04 95 60 e8 3f 08 	mov    0x83fe860(,%edx,4),%eax
 804ab8a:	ba 00 00 00 00       	mov    $0x0,%edx
 804ab8f:	8a 10                	mov    (%eax),%dl
 804ab91:	89 15 40 57 05 08    	mov    %edx,0x8055740
 804ab97:	c7 05 70 e8 5f 08 a2 	movl   $0xcc0000a2,0x85fe870
 804ab9e:	00 00 cc 
 804aba1:	ba 00 00 00 00       	mov    $0x0,%edx
 804aba6:	8a 15 40 57 05 08    	mov    0x8055740,%dl
 804abac:	8b 14 95 60 e2 1f 08 	mov    0x81fe260(,%edx,4),%edx
 804abb3:	89 15 48 57 05 08    	mov    %edx,0x8055748
 804abb9:	c7 05 70 e8 5f 08 a3 	movl   $0xcc0000a3,0x85fe870
 804abc0:	00 00 cc 
 804abc3:	a1 48 57 05 08       	mov    0x8055748,%eax
 804abc8:	8b 15 44 57 05 08    	mov    0x8055744,%edx
 804abce:	c7 05 70 e8 5f 08 a4 	movl   $0xcc0000a4,0x85fe870
 804abd5:	00 00 cc 
 804abd8:	a3 e0 e6 1f 08       	mov    %eax,0x81fe6e0
 804abdd:	89 15 e4 e6 1f 08    	mov    %edx,0x81fe6e4
 804abe3:	c7 05 70 e8 5f 08 a5 	movl   $0xcc0000a5,0x85fe870
 804abea:	00 00 cc 
 804abed:	b8 00 00 00 00       	mov    $0x0,%eax
 804abf2:	b9 00 00 00 00       	mov    $0x0,%ecx
 804abf7:	c7 05 f0 e6 1f 08 01 	movl   $0x1,0x81fe6f0
 804abfe:	00 00 00 
 804ac01:	c7 05 70 e8 5f 08 a6 	movl   $0xcc0000a6,0x85fe870
 804ac08:	00 00 cc 
 804ac0b:	66 a1 e0 e6 1f 08    	mov    0x81fe6e0,%ax
 804ac11:	66 8b 0d e4 e6 1f 08 	mov    0x81fe6e4,%cx
 804ac18:	66 8b 0c 4d 40 97 16 	mov    0x8169740(,%ecx,2),%cx
 804ac1f:	08 
 804ac20:	8b 14 85 20 96 06 08 	mov    0x8069620(,%eax,4),%edx
 804ac27:	8b 14 8a             	mov    (%edx,%ecx,4),%edx
 804ac2a:	8b 14 95 20 96 06 08 	mov    0x8069620(,%edx,4),%edx
 804ac31:	8b 0d f0 e6 1f 08    	mov    0x81fe6f0,%ecx
 804ac37:	8b 14 8a             	mov    (%edx,%ecx,4),%edx
 804ac3a:	66 89 15 e8 e6 1f 08 	mov    %dx,0x81fe6e8
 804ac41:	89 15 ee e6 1f 08    	mov    %edx,0x81fe6ee
 804ac47:	c7 05 70 e8 5f 08 a7 	movl   $0xcc0000a7,0x85fe870
 804ac4e:	00 00 cc 
 804ac51:	66 a1 e2 e6 1f 08    	mov    0x81fe6e2,%ax
 804ac57:	66 8b 0d e6 e6 1f 08 	mov    0x81fe6e6,%cx
 804ac5e:	66 8b 0c 4d 40 97 16 	mov    0x8169740(,%ecx,2),%cx
 804ac65:	08 
 804ac66:	8b 14 85 20 96 06 08 	mov    0x8069620(,%eax,4),%edx
 804ac6d:	8b 14 8a             	mov    (%edx,%ecx,4),%edx
 804ac70:	8b 14 95 20 96 06 08 	mov    0x8069620(,%edx,4),%edx
 804ac77:	8b 0d f0 e6 1f 08    	mov    0x81fe6f0,%ecx
 804ac7d:	8b 14 8a             	mov    (%edx,%ecx,4),%edx
 804ac80:	66 89 15 ea e6 1f 08 	mov    %dx,0x81fe6ea
 804ac87:	89 15 ee e6 1f 08    	mov    %edx,0x81fe6ee
 804ac8d:	a1 e8 e6 1f 08       	mov    0x81fe6e8,%eax
 804ac92:	a3 48 57 05 08       	mov    %eax,0x8055748
 804ac97:	c7 05 40 57 05 08 61 	movl   $0x61,0x8055740
 804ac9e:	00 00 00 
 804aca1:	c7 05 70 e8 5f 08 a8 	movl   $0xcc0000a8,0x85fe870
 804aca8:	00 00 cc 
 804acab:	a1 48 57 05 08       	mov    0x8055748,%eax
 804acb0:	8b 15 40 57 05 08    	mov    0x8055740,%edx
 804acb6:	c7 05 70 e8 5f 08 a9 	movl   $0xcc0000a9,0x85fe870
 804acbd:	00 00 cc 
 804acc0:	a3 e0 e6 1f 08       	mov    %eax,0x81fe6e0
 804acc5:	89 15 e4 e6 1f 08    	mov    %edx,0x81fe6e4
 804accb:	c7 05 70 e8 5f 08 aa 	movl   $0xcc0000aa,0x85fe870
 804acd2:	00 00 cc 
 804acd5:	c7 05 70 e8 5f 08 ab 	movl   $0xcc0000ab,0x85fe870
 804acdc:	00 00 cc 
 804acdf:	b8 00 00 00 00       	mov    $0x0,%eax
 804ace4:	ba 00 00 00 00       	mov    $0x0,%edx
 804ace9:	a0 e0 e6 1f 08       	mov    0x81fe6e0,%al
 804acee:	8a 15 e4 e6 1f 08    	mov    0x81fe6e4,%dl
 804acf4:	8b 04 85 70 a1 1a 08 	mov    0x81aa170(,%eax,4),%eax
 804acfb:	8a 04 10             	mov    (%eax,%edx,1),%al
 804acfe:	a2 e8 e6 1f 08       	mov    %al,0x81fe6e8
 804ad03:	c7 05 70 e8 5f 08 ac 	movl   $0xcc0000ac,0x85fe870
 804ad0a:	00 00 cc 
 804ad0d:	b8 00 00 00 00       	mov    $0x0,%eax
 804ad12:	ba 00 00 00 00       	mov    $0x0,%edx
 804ad17:	a0 e1 e6 1f 08       	mov    0x81fe6e1,%al
 804ad1c:	8a 15 e5 e6 1f 08    	mov    0x81fe6e5,%dl
 804ad22:	8b 04 85 70 a1 1a 08 	mov    0x81aa170(,%eax,4),%eax
 804ad29:	8a 04 10             	mov    (%eax,%edx,1),%al
 804ad2c:	a2 e9 e6 1f 08       	mov    %al,0x81fe6e9
 804ad31:	c7 05 70 e8 5f 08 ad 	movl   $0xcc0000ad,0x85fe870
 804ad38:	00 00 cc 
 804ad3b:	b8 00 00 00 00       	mov    $0x0,%eax
 804ad40:	ba 00 00 00 00       	mov    $0x0,%edx
 804ad45:	a0 e2 e6 1f 08       	mov    0x81fe6e2,%al
 804ad4a:	8a 15 e6 e6 1f 08    	mov    0x81fe6e6,%dl
 804ad50:	8b 04 85 70 a1 1a 08 	mov    0x81aa170(,%eax,4),%eax
 804ad57:	8a 04 10             	mov    (%eax,%edx,1),%al
 804ad5a:	a2 ea e6 1f 08       	mov    %al,0x81fe6ea
 804ad5f:	c7 05 70 e8 5f 08 ae 	movl   $0xcc0000ae,0x85fe870
 804ad66:	00 00 cc 
 804ad69:	b8 00 00 00 00       	mov    $0x0,%eax
 804ad6e:	ba 00 00 00 00       	mov    $0x0,%edx
 804ad73:	a0 e3 e6 1f 08       	mov    0x81fe6e3,%al
 804ad78:	8a 15 e7 e6 1f 08    	mov    0x81fe6e7,%dl
 804ad7e:	8b 04 85 70 a1 1a 08 	mov    0x81aa170(,%eax,4),%eax
 804ad85:	8a 04 10             	mov    (%eax,%edx,1),%al
 804ad88:	a2 eb e6 1f 08       	mov    %al,0x81fe6eb
 804ad8d:	a1 e8 e6 1f 08       	mov    0x81fe6e8,%eax
 804ad92:	a3 48 57 05 08       	mov    %eax,0x8055748
 804ad97:	c7 05 70 e8 5f 08 af 	movl   $0xcc0000af,0x85fe870
 804ad9e:	00 00 cc 
 804ada1:	a1 24 e8 3f 08       	mov    0x83fe824,%eax
 804ada6:	8b 80 98 ff df ff    	mov    -0x200068(%eax),%eax
 804adac:	8b 80 98 ff df ff    	mov    -0x200068(%eax),%eax
 804adb2:	8b 80 98 ff df ff    	mov    -0x200068(%eax),%eax
 804adb8:	8b 80 98 ff df ff    	mov    -0x200068(%eax),%eax
 804adbe:	8b 80 98 ff df ff    	mov    -0x200068(%eax),%eax
 804adc4:	8b 80 98 ff df ff    	mov    -0x200068(%eax),%eax
 804adca:	8b 80 98 ff df ff    	mov    -0x200068(%eax),%eax
 804add0:	8b 80 98 ff df ff    	mov    -0x200068(%eax),%eax
 804add6:	8b 80 98 ff df ff    	mov    -0x200068(%eax),%eax
 804addc:	8b 80 98 ff df ff    	mov    -0x200068(%eax),%eax
 804ade2:	8b 80 98 ff df ff    	mov    -0x200068(%eax),%eax
 804ade8:	8b 80 98 ff df ff    	mov    -0x200068(%eax),%eax
 804adee:	8b 80 98 ff df ff    	mov    -0x200068(%eax),%eax
 804adf4:	8b 80 98 ff df ff    	mov    -0x200068(%eax),%eax
 804adfa:	8b 80 98 ff df ff    	mov    -0x200068(%eax),%eax
 804ae00:	8b 80 98 ff df ff    	mov    -0x200068(%eax),%eax
 804ae06:	8b 80 98 ff df ff    	mov    -0x200068(%eax),%eax
 804ae0c:	8b 80 98 ff df ff    	mov    -0x200068(%eax),%eax
 804ae12:	8b 80 98 ff df ff    	mov    -0x200068(%eax),%eax
 804ae18:	8b 80 98 ff df ff    	mov    -0x200068(%eax),%eax
 804ae1e:	8b 80 98 ff df ff    	mov    -0x200068(%eax),%eax
 804ae24:	8b 80 98 ff df ff    	mov    -0x200068(%eax),%eax
 804ae2a:	8b 80 98 ff df ff    	mov    -0x200068(%eax),%eax
 804ae30:	8b 80 98 ff df ff    	mov    -0x200068(%eax),%eax
 804ae36:	8b 80 98 ff df ff    	mov    -0x200068(%eax),%eax
 804ae3c:	8b 80 98 ff df ff    	mov    -0x200068(%eax),%eax
 804ae42:	8b 80 98 ff df ff    	mov    -0x200068(%eax),%eax
 804ae48:	8b 80 98 ff df ff    	mov    -0x200068(%eax),%eax
 804ae4e:	8b 80 98 ff df ff    	mov    -0x200068(%eax),%eax
 804ae54:	8b 80 98 ff df ff    	mov    -0x200068(%eax),%eax
 804ae5a:	8b 80 98 ff df ff    	mov    -0x200068(%eax),%eax
 804ae60:	8b 80 98 ff df ff    	mov    -0x200068(%eax),%eax
 804ae66:	8b 80 98 ff df ff    	mov    -0x200068(%eax),%eax
 804ae6c:	8b 80 98 ff df ff    	mov    -0x200068(%eax),%eax
 804ae72:	8b 80 98 ff df ff    	mov    -0x200068(%eax),%eax
 804ae78:	8b 80 98 ff df ff    	mov    -0x200068(%eax),%eax
 804ae7e:	8b 80 98 ff df ff    	mov    -0x200068(%eax),%eax
 804ae84:	8b 80 98 ff df ff    	mov    -0x200068(%eax),%eax
 804ae8a:	8b 80 98 ff df ff    	mov    -0x200068(%eax),%eax
 804ae90:	8b 80 98 ff df ff    	mov    -0x200068(%eax),%eax
 804ae96:	8b 80 98 ff df ff    	mov    -0x200068(%eax),%eax
 804ae9c:	a3 40 57 05 08       	mov    %eax,0x8055740
 804aea1:	c7 05 70 e8 5f 08 b0 	movl   $0xcc0000b0,0x85fe870
 804aea8:	00 00 cc 
 804aeab:	a1 40 57 05 08       	mov    0x8055740,%eax
 804aeb0:	8b 15 48 e8 3f 08    	mov    0x83fe848,%edx
 804aeb6:	c7 05 70 e8 5f 08 b1 	movl   $0xcc0000b1,0x85fe870
 804aebd:	00 00 cc 
 804aec0:	a3 64 e8 3f 08       	mov    %eax,0x83fe864
 804aec5:	8b 04 95 60 e8 3f 08 	mov    0x83fe860(,%edx,4),%eax
 804aecc:	8b 00                	mov    (%eax),%eax
 804aece:	a3 40 57 05 08       	mov    %eax,0x8055740
 804aed3:	c7 05 70 e8 5f 08 b2 	movl   $0xcc0000b2,0x85fe870
 804aeda:	00 00 cc 
 804aedd:	a1 40 57 05 08       	mov    0x8055740,%eax
 804aee2:	8b 15 48 57 05 08    	mov    0x8055748,%edx
 804aee8:	c7 05 70 e8 5f 08 b3 	movl   $0xcc0000b3,0x85fe870
 804aeef:	00 00 cc 
 804aef2:	a3 e0 e6 1f 08       	mov    %eax,0x81fe6e0
 804aef7:	89 15 e4 e6 1f 08    	mov    %edx,0x81fe6e4
 804aefd:	c7 05 70 e8 5f 08 b4 	movl   $0xcc0000b4,0x85fe870
 804af04:	00 00 cc 
 804af07:	c7 05 70 e8 5f 08 b5 	movl   $0xcc0000b5,0x85fe870
 804af0e:	00 00 cc 
 804af11:	b8 00 00 00 00       	mov    $0x0,%eax
 804af16:	ba 00 00 00 00       	mov    $0x0,%edx
 804af1b:	a0 e0 e6 1f 08       	mov    0x81fe6e0,%al
 804af20:	8a 15 e4 e6 1f 08    	mov    0x81fe6e4,%dl
 804af26:	8b 04 85 60 9c 19 08 	mov    0x8199c60(,%eax,4),%eax
 804af2d:	8a 04 10             	mov    (%eax,%edx,1),%al
 804af30:	a2 e8 e6 1f 08       	mov    %al,0x81fe6e8
 804af35:	c7 05 70 e8 5f 08 b6 	movl   $0xcc0000b6,0x85fe870
 804af3c:	00 00 cc 
 804af3f:	b8 00 00 00 00       	mov    $0x0,%eax
 804af44:	ba 00 00 00 00       	mov    $0x0,%edx
 804af49:	a0 e1 e6 1f 08       	mov    0x81fe6e1,%al
 804af4e:	8a 15 e5 e6 1f 08    	mov    0x81fe6e5,%dl
 804af54:	8b 04 85 60 9c 19 08 	mov    0x8199c60(,%eax,4),%eax
 804af5b:	8a 04 10             	mov    (%eax,%edx,1),%al
 804af5e:	a2 e9 e6 1f 08       	mov    %al,0x81fe6e9
 804af63:	c7 05 70 e8 5f 08 b7 	movl   $0xcc0000b7,0x85fe870
 804af6a:	00 00 cc 
 804af6d:	b8 00 00 00 00       	mov    $0x0,%eax
 804af72:	ba 00 00 00 00       	mov    $0x0,%edx
 804af77:	a0 e2 e6 1f 08       	mov    0x81fe6e2,%al
 804af7c:	8a 15 e6 e6 1f 08    	mov    0x81fe6e6,%dl
 804af82:	8b 04 85 60 9c 19 08 	mov    0x8199c60(,%eax,4),%eax
 804af89:	8a 04 10             	mov    (%eax,%edx,1),%al
 804af8c:	a2 ea e6 1f 08       	mov    %al,0x81fe6ea
 804af91:	c7 05 70 e8 5f 08 b8 	movl   $0xcc0000b8,0x85fe870
 804af98:	00 00 cc 
 804af9b:	b8 00 00 00 00       	mov    $0x0,%eax
 804afa0:	ba 00 00 00 00       	mov    $0x0,%edx
 804afa5:	a0 e3 e6 1f 08       	mov    0x81fe6e3,%al
 804afaa:	8a 15 e7 e6 1f 08    	mov    0x81fe6e7,%dl
 804afb0:	8b 04 85 60 9c 19 08 	mov    0x8199c60(,%eax,4),%eax
 804afb7:	8a 04 10             	mov    (%eax,%edx,1),%al
 804afba:	a2 eb e6 1f 08       	mov    %al,0x81fe6eb
 804afbf:	a1 e8 e6 1f 08       	mov    0x81fe6e8,%eax
 804afc4:	a3 48 57 05 08       	mov    %eax,0x8055748
 804afc9:	c7 05 70 e8 5f 08 b9 	movl   $0xcc0000b9,0x85fe870
 804afd0:	00 00 cc 
 804afd3:	a1 24 e8 3f 08       	mov    0x83fe824,%eax
 804afd8:	ba 82 ff ff ff       	mov    $0xffffff82,%edx
 804afdd:	c7 05 70 e8 5f 08 ba 	movl   $0xcc0000ba,0x85fe870
 804afe4:	00 00 cc 
 804afe7:	a3 e0 e6 1f 08       	mov    %eax,0x81fe6e0
 804afec:	89 15 e4 e6 1f 08    	mov    %edx,0x81fe6e4
 804aff2:	c7 05 70 e8 5f 08 bb 	movl   $0xcc0000bb,0x85fe870
 804aff9:	00 00 cc 
 804affc:	b8 00 00 00 00       	mov    $0x0,%eax
 804b001:	b9 00 00 00 00       	mov    $0x0,%ecx
 804b006:	c7 05 f0 e6 1f 08 00 	movl   $0x0,0x81fe6f0
 804b00d:	00 00 00 
 804b010:	c7 05 70 e8 5f 08 bc 	movl   $0xcc0000bc,0x85fe870
 804b017:	00 00 cc 
 804b01a:	66 a1 e0 e6 1f 08    	mov    0x81fe6e0,%ax
 804b020:	66 8b 0d e4 e6 1f 08 	mov    0x81fe6e4,%cx
 804b027:	8b 14 85 20 96 06 08 	mov    0x8069620(,%eax,4),%edx
 804b02e:	8b 14 8a             	mov    (%edx,%ecx,4),%edx
 804b031:	66 8b 0d f2 e6 1f 08 	mov    0x81fe6f2,%cx
 804b038:	8b 14 95 20 96 06 08 	mov    0x8069620(,%edx,4),%edx
 804b03f:	8b 14 8a             	mov    (%edx,%ecx,4),%edx
 804b042:	66 89 15 e8 e6 1f 08 	mov    %dx,0x81fe6e8
 804b049:	89 15 f0 e6 1f 08    	mov    %edx,0x81fe6f0
 804b04f:	c7 05 70 e8 5f 08 bd 	movl   $0xcc0000bd,0x85fe870
 804b056:	00 00 cc 
 804b059:	66 a1 e2 e6 1f 08    	mov    0x81fe6e2,%ax
 804b05f:	66 8b 0d e6 e6 1f 08 	mov    0x81fe6e6,%cx
 804b066:	8b 14 85 20 96 06 08 	mov    0x8069620(,%eax,4),%edx
 804b06d:	8b 14 8a             	mov    (%edx,%ecx,4),%edx
 804b070:	66 8b 0d f2 e6 1f 08 	mov    0x81fe6f2,%cx
 804b077:	8b 14 95 20 96 06 08 	mov    0x8069620(,%edx,4),%edx
 804b07e:	8b 14 8a             	mov    (%edx,%ecx,4),%edx
 804b081:	66 89 15 ea e6 1f 08 	mov    %dx,0x81fe6ea
 804b088:	89 15 f0 e6 1f 08    	mov    %edx,0x81fe6f0
 804b08e:	a1 e8 e6 1f 08       	mov    0x81fe6e8,%eax
 804b093:	a3 40 57 05 08       	mov    %eax,0x8055740
 804b098:	c7 05 70 e8 5f 08 be 	movl   $0xcc0000be,0x85fe870
 804b09f:	00 00 cc 
 804b0a2:	a1 40 57 05 08       	mov    0x8055740,%eax
 804b0a7:	8b 15 48 e8 3f 08    	mov    0x83fe848,%edx
 804b0ad:	c7 05 70 e8 5f 08 bf 	movl   $0xcc0000bf,0x85fe870
 804b0b4:	00 00 cc 
 804b0b7:	a3 64 e8 3f 08       	mov    %eax,0x83fe864
 804b0bc:	8b 04 95 60 e8 3f 08 	mov    0x83fe860(,%edx,4),%eax
 804b0c3:	ba 00 00 00 00       	mov    $0x0,%edx
 804b0c8:	8a 10                	mov    (%eax),%dl
 804b0ca:	89 15 40 57 05 08    	mov    %edx,0x8055740
 804b0d0:	c7 05 70 e8 5f 08 c0 	movl   $0xcc0000c0,0x85fe870
 804b0d7:	00 00 cc 
 804b0da:	ba 00 00 00 00       	mov    $0x0,%edx
 804b0df:	8a 15 40 57 05 08    	mov    0x8055740,%dl
 804b0e5:	8b 14 95 60 e2 1f 08 	mov    0x81fe260(,%edx,4),%edx
 804b0ec:	89 15 40 57 05 08    	mov    %edx,0x8055740
 804b0f2:	c7 05 70 e8 5f 08 c1 	movl   $0xcc0000c1,0x85fe870
 804b0f9:	00 00 cc 
 804b0fc:	a1 24 e8 3f 08       	mov    0x83fe824,%eax
 804b101:	8b 80 98 ff df ff    	mov    -0x200068(%eax),%eax
 804b107:	8b 80 98 ff df ff    	mov    -0x200068(%eax),%eax
 804b10d:	8b 80 98 ff df ff    	mov    -0x200068(%eax),%eax
 804b113:	8b 80 98 ff df ff    	mov    -0x200068(%eax),%eax
 804b119:	8b 80 98 ff df ff    	mov    -0x200068(%eax),%eax
 804b11f:	8b 80 98 ff df ff    	mov    -0x200068(%eax),%eax
 804b125:	8b 80 98 ff df ff    	mov    -0x200068(%eax),%eax
 804b12b:	8b 80 98 ff df ff    	mov    -0x200068(%eax),%eax
 804b131:	8b 80 98 ff df ff    	mov    -0x200068(%eax),%eax
 804b137:	8b 80 98 ff df ff    	mov    -0x200068(%eax),%eax
 804b13d:	8b 80 98 ff df ff    	mov    -0x200068(%eax),%eax
 804b143:	8b 80 98 ff df ff    	mov    -0x200068(%eax),%eax
 804b149:	8b 80 98 ff df ff    	mov    -0x200068(%eax),%eax
 804b14f:	8b 80 98 ff df ff    	mov    -0x200068(%eax),%eax
 804b155:	8b 80 98 ff df ff    	mov    -0x200068(%eax),%eax
 804b15b:	8b 80 98 ff df ff    	mov    -0x200068(%eax),%eax
 804b161:	8b 80 98 ff df ff    	mov    -0x200068(%eax),%eax
 804b167:	8b 80 98 ff df ff    	mov    -0x200068(%eax),%eax
 804b16d:	8b 80 98 ff df ff    	mov    -0x200068(%eax),%eax
 804b173:	8b 80 98 ff df ff    	mov    -0x200068(%eax),%eax
 804b179:	8b 80 98 ff df ff    	mov    -0x200068(%eax),%eax
 804b17f:	8b 80 98 ff df ff    	mov    -0x200068(%eax),%eax
 804b185:	8b 80 98 ff df ff    	mov    -0x200068(%eax),%eax
 804b18b:	8b 80 98 ff df ff    	mov    -0x200068(%eax),%eax
 804b191:	8b 80 98 ff df ff    	mov    -0x200068(%eax),%eax
 804b197:	8b 80 98 ff df ff    	mov    -0x200068(%eax),%eax
 804b19d:	8b 80 98 ff df ff    	mov    -0x200068(%eax),%eax
 804b1a3:	8b 80 98 ff df ff    	mov    -0x200068(%eax),%eax
 804b1a9:	8b 80 98 ff df ff    	mov    -0x200068(%eax),%eax
 804b1af:	8b 80 98 ff df ff    	mov    -0x200068(%eax),%eax
 804b1b5:	8b 80 98 ff df ff    	mov    -0x200068(%eax),%eax
 804b1bb:	8b 80 98 ff df ff    	mov    -0x200068(%eax),%eax
 804b1c1:	8b 80 98 ff df ff    	mov    -0x200068(%eax),%eax
 804b1c7:	a3 44 57 05 08       	mov    %eax,0x8055744
 804b1cc:	c7 05 70 e8 5f 08 c2 	movl   $0xcc0000c2,0x85fe870
 804b1d3:	00 00 cc 
 804b1d6:	a1 44 57 05 08       	mov    0x8055744,%eax
 804b1db:	8b 15 48 e8 3f 08    	mov    0x83fe848,%edx
 804b1e1:	c7 05 70 e8 5f 08 c3 	movl   $0xcc0000c3,0x85fe870
 804b1e8:	00 00 cc 
 804b1eb:	a3 64 e8 3f 08       	mov    %eax,0x83fe864
 804b1f0:	8b 04 95 60 e8 3f 08 	mov    0x83fe860(,%edx,4),%eax
 804b1f7:	8b 00                	mov    (%eax),%eax
 804b1f9:	a3 44 57 05 08       	mov    %eax,0x8055744
 804b1fe:	c7 05 70 e8 5f 08 c4 	movl   $0xcc0000c4,0x85fe870
 804b205:	00 00 cc 
 804b208:	a1 40 57 05 08       	mov    0x8055740,%eax
 804b20d:	8b 15 44 57 05 08    	mov    0x8055744,%edx
 804b213:	c7 05 70 e8 5f 08 c5 	movl   $0xcc0000c5,0x85fe870
 804b21a:	00 00 cc 
 804b21d:	a3 e0 e6 1f 08       	mov    %eax,0x81fe6e0
 804b222:	89 15 e4 e6 1f 08    	mov    %edx,0x81fe6e4
 804b228:	c7 05 70 e8 5f 08 c6 	movl   $0xcc0000c6,0x85fe870
 804b22f:	00 00 cc 
 804b232:	b8 00 00 00 00       	mov    $0x0,%eax
 804b237:	b9 00 00 00 00       	mov    $0x0,%ecx
 804b23c:	c7 05 f0 e6 1f 08 01 	movl   $0x1,0x81fe6f0
 804b243:	00 00 00 
 804b246:	c7 05 70 e8 5f 08 c7 	movl   $0xcc0000c7,0x85fe870
 804b24d:	00 00 cc 
 804b250:	66 a1 e0 e6 1f 08    	mov    0x81fe6e0,%ax
 804b256:	66 8b 0d e4 e6 1f 08 	mov    0x81fe6e4,%cx
 804b25d:	66 8b 0c 4d 40 97 16 	mov    0x8169740(,%ecx,2),%cx
 804b264:	08 
 804b265:	8b 14 85 20 96 06 08 	mov    0x8069620(,%eax,4),%edx
 804b26c:	8b 14 8a             	mov    (%edx,%ecx,4),%edx
 804b26f:	8b 14 95 20 96 06 08 	mov    0x8069620(,%edx,4),%edx
 804b276:	8b 0d f0 e6 1f 08    	mov    0x81fe6f0,%ecx
 804b27c:	8b 14 8a             	mov    (%edx,%ecx,4),%edx
 804b27f:	66 89 15 e8 e6 1f 08 	mov    %dx,0x81fe6e8
 804b286:	89 15 ee e6 1f 08    	mov    %edx,0x81fe6ee
 804b28c:	c7 05 70 e8 5f 08 c8 	movl   $0xcc0000c8,0x85fe870
 804b293:	00 00 cc 
 804b296:	66 a1 e2 e6 1f 08    	mov    0x81fe6e2,%ax
 804b29c:	66 8b 0d e6 e6 1f 08 	mov    0x81fe6e6,%cx
 804b2a3:	66 8b 0c 4d 40 97 16 	mov    0x8169740(,%ecx,2),%cx
 804b2aa:	08 
 804b2ab:	8b 14 85 20 96 06 08 	mov    0x8069620(,%eax,4),%edx
 804b2b2:	8b 14 8a             	mov    (%edx,%ecx,4),%edx
 804b2b5:	8b 14 95 20 96 06 08 	mov    0x8069620(,%edx,4),%edx
 804b2bc:	8b 0d f0 e6 1f 08    	mov    0x81fe6f0,%ecx
 804b2c2:	8b 14 8a             	mov    (%edx,%ecx,4),%edx
 804b2c5:	66 89 15 ea e6 1f 08 	mov    %dx,0x81fe6ea
 804b2cc:	89 15 ee e6 1f 08    	mov    %edx,0x81fe6ee
 804b2d2:	a1 e8 e6 1f 08       	mov    0x81fe6e8,%eax
 804b2d7:	a3 44 57 05 08       	mov    %eax,0x8055744
 804b2dc:	c7 05 70 e8 5f 08 c9 	movl   $0xcc0000c9,0x85fe870
 804b2e3:	00 00 cc 
 804b2e6:	a1 24 e8 3f 08       	mov    0x83fe824,%eax
 804b2eb:	8b 80 98 ff df ff    	mov    -0x200068(%eax),%eax
 804b2f1:	8b 80 98 ff df ff    	mov    -0x200068(%eax),%eax
 804b2f7:	8b 80 98 ff df ff    	mov    -0x200068(%eax),%eax
 804b2fd:	8b 80 98 ff df ff    	mov    -0x200068(%eax),%eax
 804b303:	8b 80 98 ff df ff    	mov    -0x200068(%eax),%eax
 804b309:	8b 80 98 ff df ff    	mov    -0x200068(%eax),%eax
 804b30f:	8b 80 98 ff df ff    	mov    -0x200068(%eax),%eax
 804b315:	8b 80 98 ff df ff    	mov    -0x200068(%eax),%eax
 804b31b:	8b 80 98 ff df ff    	mov    -0x200068(%eax),%eax
 804b321:	8b 80 98 ff df ff    	mov    -0x200068(%eax),%eax
 804b327:	8b 80 98 ff df ff    	mov    -0x200068(%eax),%eax
 804b32d:	8b 80 98 ff df ff    	mov    -0x200068(%eax),%eax
 804b333:	8b 80 98 ff df ff    	mov    -0x200068(%eax),%eax
 804b339:	8b 80 98 ff df ff    	mov    -0x200068(%eax),%eax
 804b33f:	8b 80 98 ff df ff    	mov    -0x200068(%eax),%eax
 804b345:	8b 80 98 ff df ff    	mov    -0x200068(%eax),%eax
 804b34b:	8b 80 98 ff df ff    	mov    -0x200068(%eax),%eax
 804b351:	8b 80 98 ff df ff    	mov    -0x200068(%eax),%eax
 804b357:	8b 80 98 ff df ff    	mov    -0x200068(%eax),%eax
 804b35d:	8b 80 98 ff df ff    	mov    -0x200068(%eax),%eax
 804b363:	8b 80 98 ff df ff    	mov    -0x200068(%eax),%eax
 804b369:	8b 80 98 ff df ff    	mov    -0x200068(%eax),%eax
 804b36f:	8b 80 98 ff df ff    	mov    -0x200068(%eax),%eax
 804b375:	8b 80 98 ff df ff    	mov    -0x200068(%eax),%eax
 804b37b:	8b 80 98 ff df ff    	mov    -0x200068(%eax),%eax
 804b381:	8b 80 98 ff df ff    	mov    -0x200068(%eax),%eax
 804b387:	8b 80 98 ff df ff    	mov    -0x200068(%eax),%eax
 804b38d:	8b 80 98 ff df ff    	mov    -0x200068(%eax),%eax
 804b393:	8b 80 98 ff df ff    	mov    -0x200068(%eax),%eax
 804b399:	8b 80 98 ff df ff    	mov    -0x200068(%eax),%eax
 804b39f:	8b 80 98 ff df ff    	mov    -0x200068(%eax),%eax
 804b3a5:	8b 80 98 ff df ff    	mov    -0x200068(%eax),%eax
 804b3ab:	8b 80 98 ff df ff    	mov    -0x200068(%eax),%eax
 804b3b1:	8b 80 98 ff df ff    	mov    -0x200068(%eax),%eax
 804b3b7:	a3 40 57 05 08       	mov    %eax,0x8055740
 804b3bc:	c7 05 70 e8 5f 08 ca 	movl   $0xcc0000ca,0x85fe870
 804b3c3:	00 00 cc 
 804b3c6:	a1 40 57 05 08       	mov    0x8055740,%eax
 804b3cb:	8b 15 48 e8 3f 08    	mov    0x83fe848,%edx
 804b3d1:	c7 05 70 e8 5f 08 cb 	movl   $0xcc0000cb,0x85fe870
 804b3d8:	00 00 cc 
 804b3db:	a3 64 e8 3f 08       	mov    %eax,0x83fe864
 804b3e0:	8b 04 95 60 e8 3f 08 	mov    0x83fe860(,%edx,4),%eax
 804b3e7:	8b 00                	mov    (%eax),%eax
 804b3e9:	a3 40 57 05 08       	mov    %eax,0x8055740
 804b3ee:	c7 05 70 e8 5f 08 cc 	movl   $0xcc0000cc,0x85fe870
 804b3f5:	00 00 cc 
 804b3f8:	a1 44 57 05 08       	mov    0x8055744,%eax
 804b3fd:	8b 15 40 57 05 08    	mov    0x8055740,%edx
 804b403:	c7 05 70 e8 5f 08 cd 	movl   $0xcc0000cd,0x85fe870
 804b40a:	00 00 cc 
 804b40d:	a3 e0 e6 1f 08       	mov    %eax,0x81fe6e0
 804b412:	89 15 e4 e6 1f 08    	mov    %edx,0x81fe6e4
 804b418:	c7 05 70 e8 5f 08 ce 	movl   $0xcc0000ce,0x85fe870
 804b41f:	00 00 cc 
 804b422:	b8 00 00 00 00       	mov    $0x0,%eax
 804b427:	b9 00 00 00 00       	mov    $0x0,%ecx
 804b42c:	c7 05 f0 e6 1f 08 01 	movl   $0x1,0x81fe6f0
 804b433:	00 00 00 
 804b436:	c7 05 70 e8 5f 08 cf 	movl   $0xcc0000cf,0x85fe870
 804b43d:	00 00 cc 
 804b440:	66 a1 e0 e6 1f 08    	mov    0x81fe6e0,%ax
 804b446:	66 8b 0d e4 e6 1f 08 	mov    0x81fe6e4,%cx
 804b44d:	66 8b 0c 4d 40 97 16 	mov    0x8169740(,%ecx,2),%cx
 804b454:	08 
 804b455:	8b 14 85 20 96 06 08 	mov    0x8069620(,%eax,4),%edx
 804b45c:	8b 14 8a             	mov    (%edx,%ecx,4),%edx
 804b45f:	8b 14 95 20 96 06 08 	mov    0x8069620(,%edx,4),%edx
 804b466:	8b 0d f0 e6 1f 08    	mov    0x81fe6f0,%ecx
 804b46c:	8b 14 8a             	mov    (%edx,%ecx,4),%edx
 804b46f:	66 89 15 e8 e6 1f 08 	mov    %dx,0x81fe6e8
 804b476:	89 15 ee e6 1f 08    	mov    %edx,0x81fe6ee
 804b47c:	c7 05 70 e8 5f 08 d0 	movl   $0xcc0000d0,0x85fe870
 804b483:	00 00 cc 
 804b486:	66 a1 e2 e6 1f 08    	mov    0x81fe6e2,%ax
 804b48c:	66 8b 0d e6 e6 1f 08 	mov    0x81fe6e6,%cx
 804b493:	66 8b 0c 4d 40 97 16 	mov    0x8169740(,%ecx,2),%cx
 804b49a:	08 
 804b49b:	8b 14 85 20 96 06 08 	mov    0x8069620(,%eax,4),%edx
 804b4a2:	8b 14 8a             	mov    (%edx,%ecx,4),%edx
 804b4a5:	8b 14 95 20 96 06 08 	mov    0x8069620(,%edx,4),%edx
 804b4ac:	8b 0d f0 e6 1f 08    	mov    0x81fe6f0,%ecx
 804b4b2:	8b 14 8a             	mov    (%edx,%ecx,4),%edx
 804b4b5:	66 89 15 ea e6 1f 08 	mov    %dx,0x81fe6ea
 804b4bc:	89 15 ee e6 1f 08    	mov    %edx,0x81fe6ee
 804b4c2:	a1 e8 e6 1f 08       	mov    0x81fe6e8,%eax
 804b4c7:	a3 44 57 05 08       	mov    %eax,0x8055744
 804b4cc:	c7 05 70 e8 5f 08 d1 	movl   $0xcc0000d1,0x85fe870
 804b4d3:	00 00 cc 
 804b4d6:	a1 48 57 05 08       	mov    0x8055748,%eax
 804b4db:	8b 15 44 57 05 08    	mov    0x8055744,%edx
 804b4e1:	c7 05 70 e8 5f 08 d2 	movl   $0xcc0000d2,0x85fe870
 804b4e8:	00 00 cc 
 804b4eb:	a3 e0 e6 1f 08       	mov    %eax,0x81fe6e0
 804b4f0:	89 15 e4 e6 1f 08    	mov    %edx,0x81fe6e4
 804b4f6:	c7 05 70 e8 5f 08 d3 	movl   $0xcc0000d3,0x85fe870
 804b4fd:	00 00 cc 
 804b500:	c7 05 70 e8 5f 08 d4 	movl   $0xcc0000d4,0x85fe870
 804b507:	00 00 cc 
 804b50a:	b8 00 00 00 00       	mov    $0x0,%eax
 804b50f:	ba 00 00 00 00       	mov    $0x0,%edx
 804b514:	a0 e0 e6 1f 08       	mov    0x81fe6e0,%al
 804b519:	8a 15 e4 e6 1f 08    	mov    0x81fe6e4,%dl
 804b51f:	8b 04 85 60 9c 19 08 	mov    0x8199c60(,%eax,4),%eax
 804b526:	8a 04 10             	mov    (%eax,%edx,1),%al
 804b529:	a2 e8 e6 1f 08       	mov    %al,0x81fe6e8
 804b52e:	c7 05 70 e8 5f 08 d5 	movl   $0xcc0000d5,0x85fe870
 804b535:	00 00 cc 
 804b538:	b8 00 00 00 00       	mov    $0x0,%eax
 804b53d:	ba 00 00 00 00       	mov    $0x0,%edx
 804b542:	a0 e1 e6 1f 08       	mov    0x81fe6e1,%al
 804b547:	8a 15 e5 e6 1f 08    	mov    0x81fe6e5,%dl
 804b54d:	8b 04 85 60 9c 19 08 	mov    0x8199c60(,%eax,4),%eax
 804b554:	8a 04 10             	mov    (%eax,%edx,1),%al
 804b557:	a2 e9 e6 1f 08       	mov    %al,0x81fe6e9
 804b55c:	c7 05 70 e8 5f 08 d6 	movl   $0xcc0000d6,0x85fe870
 804b563:	00 00 cc 
 804b566:	b8 00 00 00 00       	mov    $0x0,%eax
 804b56b:	ba 00 00 00 00       	mov    $0x0,%edx
 804b570:	a0 e2 e6 1f 08       	mov    0x81fe6e2,%al
 804b575:	8a 15 e6 e6 1f 08    	mov    0x81fe6e6,%dl
 804b57b:	8b 04 85 60 9c 19 08 	mov    0x8199c60(,%eax,4),%eax
 804b582:	8a 04 10             	mov    (%eax,%edx,1),%al
 804b585:	a2 ea e6 1f 08       	mov    %al,0x81fe6ea
 804b58a:	c7 05 70 e8 5f 08 d7 	movl   $0xcc0000d7,0x85fe870
 804b591:	00 00 cc 
 804b594:	b8 00 00 00 00       	mov    $0x0,%eax
 804b599:	ba 00 00 00 00       	mov    $0x0,%edx
 804b59e:	a0 e3 e6 1f 08       	mov    0x81fe6e3,%al
 804b5a3:	8a 15 e7 e6 1f 08    	mov    0x81fe6e7,%dl
 804b5a9:	8b 04 85 60 9c 19 08 	mov    0x8199c60(,%eax,4),%eax
 804b5b0:	8a 04 10             	mov    (%eax,%edx,1),%al
 804b5b3:	a2 eb e6 1f 08       	mov    %al,0x81fe6eb
 804b5b8:	a1 e8 e6 1f 08       	mov    0x81fe6e8,%eax
 804b5bd:	a3 48 57 05 08       	mov    %eax,0x8055748
 804b5c2:	c7 05 70 e8 5f 08 d8 	movl   $0xcc0000d8,0x85fe870
 804b5c9:	00 00 cc 
 804b5cc:	a1 24 e8 3f 08       	mov    0x83fe824,%eax
 804b5d1:	ba 83 ff ff ff       	mov    $0xffffff83,%edx
 804b5d6:	c7 05 70 e8 5f 08 d9 	movl   $0xcc0000d9,0x85fe870
 804b5dd:	00 00 cc 
 804b5e0:	a3 e0 e6 1f 08       	mov    %eax,0x81fe6e0
 804b5e5:	89 15 e4 e6 1f 08    	mov    %edx,0x81fe6e4
 804b5eb:	c7 05 70 e8 5f 08 da 	movl   $0xcc0000da,0x85fe870
 804b5f2:	00 00 cc 
 804b5f5:	b8 00 00 00 00       	mov    $0x0,%eax
 804b5fa:	b9 00 00 00 00       	mov    $0x0,%ecx
 804b5ff:	c7 05 f0 e6 1f 08 00 	movl   $0x0,0x81fe6f0
 804b606:	00 00 00 
 804b609:	c7 05 70 e8 5f 08 db 	movl   $0xcc0000db,0x85fe870
 804b610:	00 00 cc 
 804b613:	66 a1 e0 e6 1f 08    	mov    0x81fe6e0,%ax
 804b619:	66 8b 0d e4 e6 1f 08 	mov    0x81fe6e4,%cx
 804b620:	8b 14 85 20 96 06 08 	mov    0x8069620(,%eax,4),%edx
 804b627:	8b 14 8a             	mov    (%edx,%ecx,4),%edx
 804b62a:	66 8b 0d f2 e6 1f 08 	mov    0x81fe6f2,%cx
 804b631:	8b 14 95 20 96 06 08 	mov    0x8069620(,%edx,4),%edx
 804b638:	8b 14 8a             	mov    (%edx,%ecx,4),%edx
 804b63b:	66 89 15 e8 e6 1f 08 	mov    %dx,0x81fe6e8
 804b642:	89 15 f0 e6 1f 08    	mov    %edx,0x81fe6f0
 804b648:	c7 05 70 e8 5f 08 dc 	movl   $0xcc0000dc,0x85fe870
 804b64f:	00 00 cc 
 804b652:	66 a1 e2 e6 1f 08    	mov    0x81fe6e2,%ax
 804b658:	66 8b 0d e6 e6 1f 08 	mov    0x81fe6e6,%cx
 804b65f:	8b 14 85 20 96 06 08 	mov    0x8069620(,%eax,4),%edx
 804b666:	8b 14 8a             	mov    (%edx,%ecx,4),%edx
 804b669:	66 8b 0d f2 e6 1f 08 	mov    0x81fe6f2,%cx
 804b670:	8b 14 95 20 96 06 08 	mov    0x8069620(,%edx,4),%edx
 804b677:	8b 14 8a             	mov    (%edx,%ecx,4),%edx
 804b67a:	66 89 15 ea e6 1f 08 	mov    %dx,0x81fe6ea
 804b681:	89 15 f0 e6 1f 08    	mov    %edx,0x81fe6f0
 804b687:	a1 e8 e6 1f 08       	mov    0x81fe6e8,%eax
 804b68c:	a3 44 57 05 08       	mov    %eax,0x8055744
 804b691:	c7 05 70 e8 5f 08 dd 	movl   $0xcc0000dd,0x85fe870
 804b698:	00 00 cc 
 804b69b:	a1 44 57 05 08       	mov    0x8055744,%eax
 804b6a0:	8b 15 48 e8 3f 08    	mov    0x83fe848,%edx
 804b6a6:	c7 05 70 e8 5f 08 de 	movl   $0xcc0000de,0x85fe870
 804b6ad:	00 00 cc 
 804b6b0:	a3 64 e8 3f 08       	mov    %eax,0x83fe864
 804b6b5:	8b 04 95 60 e8 3f 08 	mov    0x83fe860(,%edx,4),%eax
 804b6bc:	ba 00 00 00 00       	mov    $0x0,%edx
 804b6c1:	8a 10                	mov    (%eax),%dl
 804b6c3:	89 15 40 57 05 08    	mov    %edx,0x8055740
 804b6c9:	c7 05 70 e8 5f 08 df 	movl   $0xcc0000df,0x85fe870
 804b6d0:	00 00 cc 
 804b6d3:	ba 00 00 00 00       	mov    $0x0,%edx
 804b6d8:	8a 15 40 57 05 08    	mov    0x8055740,%dl
 804b6de:	8b 14 95 60 e2 1f 08 	mov    0x81fe260(,%edx,4),%edx
 804b6e5:	89 15 44 57 05 08    	mov    %edx,0x8055744
 804b6eb:	c7 05 40 57 05 08 0f 	movl   $0xf,0x8055740
 804b6f2:	00 00 00 
 804b6f5:	c7 05 70 e8 5f 08 e0 	movl   $0xcc0000e0,0x85fe870
 804b6fc:	00 00 cc 
 804b6ff:	a1 44 57 05 08       	mov    0x8055744,%eax
 804b704:	8b 15 40 57 05 08    	mov    0x8055740,%edx
 804b70a:	c7 05 70 e8 5f 08 e1 	movl   $0xcc0000e1,0x85fe870
 804b711:	00 00 cc 
 804b714:	a3 e0 e6 1f 08       	mov    %eax,0x81fe6e0
 804b719:	89 15 e4 e6 1f 08    	mov    %edx,0x81fe6e4
 804b71f:	c7 05 70 e8 5f 08 e2 	movl   $0xcc0000e2,0x85fe870
 804b726:	00 00 cc 
 804b729:	b8 00 00 00 00       	mov    $0x0,%eax
 804b72e:	b9 00 00 00 00       	mov    $0x0,%ecx
 804b733:	c7 05 f0 e6 1f 08 00 	movl   $0x0,0x81fe6f0
 804b73a:	00 00 00 
 804b73d:	c7 05 70 e8 5f 08 e3 	movl   $0xcc0000e3,0x85fe870
 804b744:	00 00 cc 
 804b747:	66 a1 e0 e6 1f 08    	mov    0x81fe6e0,%ax
 804b74d:	66 8b 0d e4 e6 1f 08 	mov    0x81fe6e4,%cx
 804b754:	8b 14 85 20 96 06 08 	mov    0x8069620(,%eax,4),%edx
 804b75b:	8b 14 8a             	mov    (%edx,%ecx,4),%edx
 804b75e:	66 8b 0d f2 e6 1f 08 	mov    0x81fe6f2,%cx
 804b765:	8b 14 95 20 96 06 08 	mov    0x8069620(,%edx,4),%edx
 804b76c:	8b 14 8a             	mov    (%edx,%ecx,4),%edx
 804b76f:	66 89 15 e8 e6 1f 08 	mov    %dx,0x81fe6e8
 804b776:	89 15 f0 e6 1f 08    	mov    %edx,0x81fe6f0
 804b77c:	c7 05 70 e8 5f 08 e4 	movl   $0xcc0000e4,0x85fe870
 804b783:	00 00 cc 
 804b786:	66 a1 e2 e6 1f 08    	mov    0x81fe6e2,%ax
 804b78c:	66 8b 0d e6 e6 1f 08 	mov    0x81fe6e6,%cx
 804b793:	8b 14 85 20 96 06 08 	mov    0x8069620(,%eax,4),%edx
 804b79a:	8b 14 8a             	mov    (%edx,%ecx,4),%edx
 804b79d:	66 8b 0d f2 e6 1f 08 	mov    0x81fe6f2,%cx
 804b7a4:	8b 14 95 20 96 06 08 	mov    0x8069620(,%edx,4),%edx
 804b7ab:	8b 14 8a             	mov    (%edx,%ecx,4),%edx
 804b7ae:	66 89 15 ea e6 1f 08 	mov    %dx,0x81fe6ea
 804b7b5:	89 15 f0 e6 1f 08    	mov    %edx,0x81fe6f0
 804b7bb:	a1 e8 e6 1f 08       	mov    0x81fe6e8,%eax
 804b7c0:	a3 44 57 05 08       	mov    %eax,0x8055744
 804b7c5:	c7 05 70 e8 5f 08 e5 	movl   $0xcc0000e5,0x85fe870
 804b7cc:	00 00 cc 
 804b7cf:	a1 24 e8 3f 08       	mov    0x83fe824,%eax
 804b7d4:	8b 80 98 ff df ff    	mov    -0x200068(%eax),%eax
 804b7da:	8b 80 98 ff df ff    	mov    -0x200068(%eax),%eax
 804b7e0:	8b 80 98 ff df ff    	mov    -0x200068(%eax),%eax
 804b7e6:	8b 80 98 ff df ff    	mov    -0x200068(%eax),%eax
 804b7ec:	8b 80 98 ff df ff    	mov    -0x200068(%eax),%eax
 804b7f2:	8b 80 98 ff df ff    	mov    -0x200068(%eax),%eax
 804b7f8:	8b 80 98 ff df ff    	mov    -0x200068(%eax),%eax
 804b7fe:	8b 80 98 ff df ff    	mov    -0x200068(%eax),%eax
 804b804:	8b 80 98 ff df ff    	mov    -0x200068(%eax),%eax
 804b80a:	8b 80 98 ff df ff    	mov    -0x200068(%eax),%eax
 804b810:	8b 80 98 ff df ff    	mov    -0x200068(%eax),%eax
 804b816:	8b 80 98 ff df ff    	mov    -0x200068(%eax),%eax
 804b81c:	8b 80 98 ff df ff    	mov    -0x200068(%eax),%eax
 804b822:	8b 80 98 ff df ff    	mov    -0x200068(%eax),%eax
 804b828:	8b 80 98 ff df ff    	mov    -0x200068(%eax),%eax
 804b82e:	8b 80 98 ff df ff    	mov    -0x200068(%eax),%eax
 804b834:	8b 80 98 ff df ff    	mov    -0x200068(%eax),%eax
 804b83a:	8b 80 98 ff df ff    	mov    -0x200068(%eax),%eax
 804b840:	8b 80 98 ff df ff    	mov    -0x200068(%eax),%eax
 804b846:	8b 80 98 ff df ff    	mov    -0x200068(%eax),%eax
 804b84c:	8b 80 98 ff df ff    	mov    -0x200068(%eax),%eax
 804b852:	8b 80 98 ff df ff    	mov    -0x200068(%eax),%eax
 804b858:	8b 80 98 ff df ff    	mov    -0x200068(%eax),%eax
 804b85e:	8b 80 98 ff df ff    	mov    -0x200068(%eax),%eax
 804b864:	8b 80 98 ff df ff    	mov    -0x200068(%eax),%eax
 804b86a:	8b 80 98 ff df ff    	mov    -0x200068(%eax),%eax
 804b870:	8b 80 98 ff df ff    	mov    -0x200068(%eax),%eax
 804b876:	8b 80 98 ff df ff    	mov    -0x200068(%eax),%eax
 804b87c:	8b 80 98 ff df ff    	mov    -0x200068(%eax),%eax
 804b882:	8b 80 98 ff df ff    	mov    -0x200068(%eax),%eax
 804b888:	8b 80 98 ff df ff    	mov    -0x200068(%eax),%eax
 804b88e:	8b 80 98 ff df ff    	mov    -0x200068(%eax),%eax
 804b894:	8b 80 98 ff df ff    	mov    -0x200068(%eax),%eax
 804b89a:	8b 80 98 ff df ff    	mov    -0x200068(%eax),%eax
 804b8a0:	8b 80 98 ff df ff    	mov    -0x200068(%eax),%eax
 804b8a6:	a3 40 57 05 08       	mov    %eax,0x8055740
 804b8ab:	c7 05 70 e8 5f 08 e6 	movl   $0xcc0000e6,0x85fe870
 804b8b2:	00 00 cc 
 804b8b5:	a1 40 57 05 08       	mov    0x8055740,%eax
 804b8ba:	8b 15 48 e8 3f 08    	mov    0x83fe848,%edx
 804b8c0:	c7 05 70 e8 5f 08 e7 	movl   $0xcc0000e7,0x85fe870
 804b8c7:	00 00 cc 
 804b8ca:	a3 64 e8 3f 08       	mov    %eax,0x83fe864
 804b8cf:	8b 04 95 60 e8 3f 08 	mov    0x83fe860(,%edx,4),%eax
 804b8d6:	8b 00                	mov    (%eax),%eax
 804b8d8:	a3 40 57 05 08       	mov    %eax,0x8055740
 804b8dd:	c7 05 70 e8 5f 08 e8 	movl   $0xcc0000e8,0x85fe870
 804b8e4:	00 00 cc 
 804b8e7:	a1 44 57 05 08       	mov    0x8055744,%eax
 804b8ec:	8b 15 40 57 05 08    	mov    0x8055740,%edx
 804b8f2:	c7 05 70 e8 5f 08 e9 	movl   $0xcc0000e9,0x85fe870
 804b8f9:	00 00 cc 
 804b8fc:	a3 e0 e6 1f 08       	mov    %eax,0x81fe6e0
 804b901:	89 15 e4 e6 1f 08    	mov    %edx,0x81fe6e4
 804b907:	c7 05 70 e8 5f 08 ea 	movl   $0xcc0000ea,0x85fe870
 804b90e:	00 00 cc 
 804b911:	c7 05 70 e8 5f 08 eb 	movl   $0xcc0000eb,0x85fe870
 804b918:	00 00 cc 
 804b91b:	b8 00 00 00 00       	mov    $0x0,%eax
 804b920:	ba 00 00 00 00       	mov    $0x0,%edx
 804b925:	a0 e0 e6 1f 08       	mov    0x81fe6e0,%al
 804b92a:	8a 15 e4 e6 1f 08    	mov    0x81fe6e4,%dl
 804b930:	8b 04 85 70 a1 1a 08 	mov    0x81aa170(,%eax,4),%eax
 804b937:	8a 04 10             	mov    (%eax,%edx,1),%al
 804b93a:	a2 e8 e6 1f 08       	mov    %al,0x81fe6e8
 804b93f:	c7 05 70 e8 5f 08 ec 	movl   $0xcc0000ec,0x85fe870
 804b946:	00 00 cc 
 804b949:	b8 00 00 00 00       	mov    $0x0,%eax
 804b94e:	ba 00 00 00 00       	mov    $0x0,%edx
 804b953:	a0 e1 e6 1f 08       	mov    0x81fe6e1,%al
 804b958:	8a 15 e5 e6 1f 08    	mov    0x81fe6e5,%dl
 804b95e:	8b 04 85 70 a1 1a 08 	mov    0x81aa170(,%eax,4),%eax
 804b965:	8a 04 10             	mov    (%eax,%edx,1),%al
 804b968:	a2 e9 e6 1f 08       	mov    %al,0x81fe6e9
 804b96d:	c7 05 70 e8 5f 08 ed 	movl   $0xcc0000ed,0x85fe870
 804b974:	00 00 cc 
 804b977:	b8 00 00 00 00       	mov    $0x0,%eax
 804b97c:	ba 00 00 00 00       	mov    $0x0,%edx
 804b981:	a0 e2 e6 1f 08       	mov    0x81fe6e2,%al
 804b986:	8a 15 e6 e6 1f 08    	mov    0x81fe6e6,%dl
 804b98c:	8b 04 85 70 a1 1a 08 	mov    0x81aa170(,%eax,4),%eax
 804b993:	8a 04 10             	mov    (%eax,%edx,1),%al
 804b996:	a2 ea e6 1f 08       	mov    %al,0x81fe6ea
 804b99b:	c7 05 70 e8 5f 08 ee 	movl   $0xcc0000ee,0x85fe870
 804b9a2:	00 00 cc 
 804b9a5:	b8 00 00 00 00       	mov    $0x0,%eax
 804b9aa:	ba 00 00 00 00       	mov    $0x0,%edx
 804b9af:	a0 e3 e6 1f 08       	mov    0x81fe6e3,%al
 804b9b4:	8a 15 e7 e6 1f 08    	mov    0x81fe6e7,%dl
 804b9ba:	8b 04 85 70 a1 1a 08 	mov    0x81aa170(,%eax,4),%eax
 804b9c1:	8a 04 10             	mov    (%eax,%edx,1),%al
 804b9c4:	a2 eb e6 1f 08       	mov    %al,0x81fe6eb
 804b9c9:	a1 e8 e6 1f 08       	mov    0x81fe6e8,%eax
 804b9ce:	a3 44 57 05 08       	mov    %eax,0x8055744
 804b9d3:	c7 05 70 e8 5f 08 ef 	movl   $0xcc0000ef,0x85fe870
 804b9da:	00 00 cc 
 804b9dd:	a1 48 57 05 08       	mov    0x8055748,%eax
 804b9e2:	8b 15 44 57 05 08    	mov    0x8055744,%edx
 804b9e8:	c7 05 70 e8 5f 08 f0 	movl   $0xcc0000f0,0x85fe870
 804b9ef:	00 00 cc 
 804b9f2:	a3 e0 e6 1f 08       	mov    %eax,0x81fe6e0
 804b9f7:	89 15 e4 e6 1f 08    	mov    %edx,0x81fe6e4
 804b9fd:	c7 05 70 e8 5f 08 f1 	movl   $0xcc0000f1,0x85fe870
 804ba04:	00 00 cc 
 804ba07:	c7 05 70 e8 5f 08 f2 	movl   $0xcc0000f2,0x85fe870
 804ba0e:	00 00 cc 
 804ba11:	b8 00 00 00 00       	mov    $0x0,%eax
 804ba16:	ba 00 00 00 00       	mov    $0x0,%edx
 804ba1b:	a0 e0 e6 1f 08       	mov    0x81fe6e0,%al
 804ba20:	8a 15 e4 e6 1f 08    	mov    0x81fe6e4,%dl
 804ba26:	8b 04 85 60 9c 19 08 	mov    0x8199c60(,%eax,4),%eax
 804ba2d:	8a 04 10             	mov    (%eax,%edx,1),%al
 804ba30:	a2 e8 e6 1f 08       	mov    %al,0x81fe6e8
 804ba35:	c7 05 70 e8 5f 08 f3 	movl   $0xcc0000f3,0x85fe870
 804ba3c:	00 00 cc 
 804ba3f:	b8 00 00 00 00       	mov    $0x0,%eax
 804ba44:	ba 00 00 00 00       	mov    $0x0,%edx
 804ba49:	a0 e1 e6 1f 08       	mov    0x81fe6e1,%al
 804ba4e:	8a 15 e5 e6 1f 08    	mov    0x81fe6e5,%dl
 804ba54:	8b 04 85 60 9c 19 08 	mov    0x8199c60(,%eax,4),%eax
 804ba5b:	8a 04 10             	mov    (%eax,%edx,1),%al
 804ba5e:	a2 e9 e6 1f 08       	mov    %al,0x81fe6e9
 804ba63:	c7 05 70 e8 5f 08 f4 	movl   $0xcc0000f4,0x85fe870
 804ba6a:	00 00 cc 
 804ba6d:	b8 00 00 00 00       	mov    $0x0,%eax
 804ba72:	ba 00 00 00 00       	mov    $0x0,%edx
 804ba77:	a0 e2 e6 1f 08       	mov    0x81fe6e2,%al
 804ba7c:	8a 15 e6 e6 1f 08    	mov    0x81fe6e6,%dl
 804ba82:	8b 04 85 60 9c 19 08 	mov    0x8199c60(,%eax,4),%eax
 804ba89:	8a 04 10             	mov    (%eax,%edx,1),%al
 804ba8c:	a2 ea e6 1f 08       	mov    %al,0x81fe6ea
 804ba91:	c7 05 70 e8 5f 08 f5 	movl   $0xcc0000f5,0x85fe870
 804ba98:	00 00 cc 
 804ba9b:	b8 00 00 00 00       	mov    $0x0,%eax
 804baa0:	ba 00 00 00 00       	mov    $0x0,%edx
 804baa5:	a0 e3 e6 1f 08       	mov    0x81fe6e3,%al
 804baaa:	8a 15 e7 e6 1f 08    	mov    0x81fe6e7,%dl
 804bab0:	8b 04 85 60 9c 19 08 	mov    0x8199c60(,%eax,4),%eax
 804bab7:	8a 04 10             	mov    (%eax,%edx,1),%al
 804baba:	a2 eb e6 1f 08       	mov    %al,0x81fe6eb
 804babf:	a1 e8 e6 1f 08       	mov    0x81fe6e8,%eax
 804bac4:	a3 48 57 05 08       	mov    %eax,0x8055748
 804bac9:	c7 05 70 e8 5f 08 f6 	movl   $0xcc0000f6,0x85fe870
 804bad0:	00 00 cc 
 804bad3:	a1 24 e8 3f 08       	mov    0x83fe824,%eax
 804bad8:	8b 80 98 ff df ff    	mov    -0x200068(%eax),%eax
 804bade:	8b 80 98 ff df ff    	mov    -0x200068(%eax),%eax
 804bae4:	8b 80 98 ff df ff    	mov    -0x200068(%eax),%eax
 804baea:	8b 80 98 ff df ff    	mov    -0x200068(%eax),%eax
 804baf0:	8b 80 98 ff df ff    	mov    -0x200068(%eax),%eax
 804baf6:	8b 80 98 ff df ff    	mov    -0x200068(%eax),%eax
 804bafc:	8b 80 98 ff df ff    	mov    -0x200068(%eax),%eax
 804bb02:	8b 80 98 ff df ff    	mov    -0x200068(%eax),%eax
 804bb08:	8b 80 98 ff df ff    	mov    -0x200068(%eax),%eax
 804bb0e:	8b 80 98 ff df ff    	mov    -0x200068(%eax),%eax
 804bb14:	8b 80 98 ff df ff    	mov    -0x200068(%eax),%eax
 804bb1a:	8b 80 98 ff df ff    	mov    -0x200068(%eax),%eax
 804bb20:	8b 80 98 ff df ff    	mov    -0x200068(%eax),%eax
 804bb26:	8b 80 98 ff df ff    	mov    -0x200068(%eax),%eax
 804bb2c:	8b 80 98 ff df ff    	mov    -0x200068(%eax),%eax
 804bb32:	8b 80 98 ff df ff    	mov    -0x200068(%eax),%eax
 804bb38:	8b 80 98 ff df ff    	mov    -0x200068(%eax),%eax
 804bb3e:	8b 80 98 ff df ff    	mov    -0x200068(%eax),%eax
 804bb44:	8b 80 98 ff df ff    	mov    -0x200068(%eax),%eax
 804bb4a:	8b 80 98 ff df ff    	mov    -0x200068(%eax),%eax
 804bb50:	8b 80 98 ff df ff    	mov    -0x200068(%eax),%eax
 804bb56:	8b 80 98 ff df ff    	mov    -0x200068(%eax),%eax
 804bb5c:	8b 80 98 ff df ff    	mov    -0x200068(%eax),%eax
 804bb62:	8b 80 98 ff df ff    	mov    -0x200068(%eax),%eax
 804bb68:	8b 80 98 ff df ff    	mov    -0x200068(%eax),%eax
 804bb6e:	8b 80 98 ff df ff    	mov    -0x200068(%eax),%eax
 804bb74:	8b 80 98 ff df ff    	mov    -0x200068(%eax),%eax
 804bb7a:	8b 80 98 ff df ff    	mov    -0x200068(%eax),%eax
 804bb80:	8b 80 98 ff df ff    	mov    -0x200068(%eax),%eax
 804bb86:	8b 80 98 ff df ff    	mov    -0x200068(%eax),%eax
 804bb8c:	8b 80 98 ff df ff    	mov    -0x200068(%eax),%eax
 804bb92:	a3 44 57 05 08       	mov    %eax,0x8055744
 804bb97:	c7 05 70 e8 5f 08 f7 	movl   $0xcc0000f7,0x85fe870
 804bb9e:	00 00 cc 
 804bba1:	a1 44 57 05 08       	mov    0x8055744,%eax
 804bba6:	8b 15 48 e8 3f 08    	mov    0x83fe848,%edx
 804bbac:	c7 05 70 e8 5f 08 f8 	movl   $0xcc0000f8,0x85fe870
 804bbb3:	00 00 cc 
 804bbb6:	a3 64 e8 3f 08       	mov    %eax,0x83fe864
 804bbbb:	8b 04 95 60 e8 3f 08 	mov    0x83fe860(,%edx,4),%eax
 804bbc2:	ba 00 00 00 00       	mov    $0x0,%edx
 804bbc7:	8a 10                	mov    (%eax),%dl
 804bbc9:	89 15 40 57 05 08    	mov    %edx,0x8055740
 804bbcf:	c7 05 70 e8 5f 08 f9 	movl   $0xcc0000f9,0x85fe870
 804bbd6:	00 00 cc 
 804bbd9:	ba 00 00 00 00       	mov    $0x0,%edx
 804bbde:	8a 15 40 57 05 08    	mov    0x8055740,%dl
 804bbe4:	8b 14 95 60 e2 1f 08 	mov    0x81fe260(,%edx,4),%edx
 804bbeb:	89 15 44 57 05 08    	mov    %edx,0x8055744
 804bbf1:	c7 05 70 e8 5f 08 fa 	movl   $0xcc0000fa,0x85fe870
 804bbf8:	00 00 cc 
 804bbfb:	a1 24 e8 3f 08       	mov    0x83fe824,%eax
 804bc00:	8b 80 98 ff df ff    	mov    -0x200068(%eax),%eax
 804bc06:	8b 80 98 ff df ff    	mov    -0x200068(%eax),%eax
 804bc0c:	8b 80 98 ff df ff    	mov    -0x200068(%eax),%eax
 804bc12:	8b 80 98 ff df ff    	mov    -0x200068(%eax),%eax
 804bc18:	8b 80 98 ff df ff    	mov    -0x200068(%eax),%eax
 804bc1e:	8b 80 98 ff df ff    	mov    -0x200068(%eax),%eax
 804bc24:	8b 80 98 ff df ff    	mov    -0x200068(%eax),%eax
 804bc2a:	8b 80 98 ff df ff    	mov    -0x200068(%eax),%eax
 804bc30:	8b 80 98 ff df ff    	mov    -0x200068(%eax),%eax
 804bc36:	8b 80 98 ff df ff    	mov    -0x200068(%eax),%eax
 804bc3c:	8b 80 98 ff df ff    	mov    -0x200068(%eax),%eax
 804bc42:	8b 80 98 ff df ff    	mov    -0x200068(%eax),%eax
 804bc48:	8b 80 98 ff df ff    	mov    -0x200068(%eax),%eax
 804bc4e:	8b 80 98 ff df ff    	mov    -0x200068(%eax),%eax
 804bc54:	8b 80 98 ff df ff    	mov    -0x200068(%eax),%eax
 804bc5a:	8b 80 98 ff df ff    	mov    -0x200068(%eax),%eax
 804bc60:	8b 80 98 ff df ff    	mov    -0x200068(%eax),%eax
 804bc66:	8b 80 98 ff df ff    	mov    -0x200068(%eax),%eax
 804bc6c:	8b 80 98 ff df ff    	mov    -0x200068(%eax),%eax
 804bc72:	8b 80 98 ff df ff    	mov    -0x200068(%eax),%eax
 804bc78:	8b 80 98 ff df ff    	mov    -0x200068(%eax),%eax
 804bc7e:	8b 80 98 ff df ff    	mov    -0x200068(%eax),%eax
 804bc84:	8b 80 98 ff df ff    	mov    -0x200068(%eax),%eax
 804bc8a:	8b 80 98 ff df ff    	mov    -0x200068(%eax),%eax
 804bc90:	8b 80 98 ff df ff    	mov    -0x200068(%eax),%eax
 804bc96:	8b 80 98 ff df ff    	mov    -0x200068(%eax),%eax
 804bc9c:	8b 80 98 ff df ff    	mov    -0x200068(%eax),%eax
 804bca2:	8b 80 98 ff df ff    	mov    -0x200068(%eax),%eax
 804bca8:	8b 80 98 ff df ff    	mov    -0x200068(%eax),%eax
 804bcae:	8b 80 98 ff df ff    	mov    -0x200068(%eax),%eax
 804bcb4:	8b 80 98 ff df ff    	mov    -0x200068(%eax),%eax
 804bcba:	8b 80 98 ff df ff    	mov    -0x200068(%eax),%eax
 804bcc0:	8b 80 98 ff df ff    	mov    -0x200068(%eax),%eax
 804bcc6:	a3 40 57 05 08       	mov    %eax,0x8055740
 804bccb:	c7 05 70 e8 5f 08 fb 	movl   $0xcc0000fb,0x85fe870
 804bcd2:	00 00 cc 
 804bcd5:	a1 40 57 05 08       	mov    0x8055740,%eax
 804bcda:	8b 15 48 e8 3f 08    	mov    0x83fe848,%edx
 804bce0:	c7 05 70 e8 5f 08 fc 	movl   $0xcc0000fc,0x85fe870
 804bce7:	00 00 cc 
 804bcea:	a3 64 e8 3f 08       	mov    %eax,0x83fe864
 804bcef:	8b 04 95 60 e8 3f 08 	mov    0x83fe860(,%edx,4),%eax
 804bcf6:	8b 00                	mov    (%eax),%eax
 804bcf8:	a3 40 57 05 08       	mov    %eax,0x8055740
 804bcfd:	c7 05 70 e8 5f 08 fd 	movl   $0xcc0000fd,0x85fe870
 804bd04:	00 00 cc 
 804bd07:	a1 44 57 05 08       	mov    0x8055744,%eax
 804bd0c:	8b 15 40 57 05 08    	mov    0x8055740,%edx
 804bd12:	c7 05 70 e8 5f 08 fe 	movl   $0xcc0000fe,0x85fe870
 804bd19:	00 00 cc 
 804bd1c:	a3 e0 e6 1f 08       	mov    %eax,0x81fe6e0
 804bd21:	89 15 e4 e6 1f 08    	mov    %edx,0x81fe6e4
 804bd27:	c7 05 70 e8 5f 08 ff 	movl   $0xcc0000ff,0x85fe870
 804bd2e:	00 00 cc 
 804bd31:	b8 00 00 00 00       	mov    $0x0,%eax
 804bd36:	b9 00 00 00 00       	mov    $0x0,%ecx
 804bd3b:	c7 05 f0 e6 1f 08 01 	movl   $0x1,0x81fe6f0
 804bd42:	00 00 00 
 804bd45:	c7 05 70 e8 5f 08 00 	movl   $0xcc000100,0x85fe870
 804bd4c:	01 00 cc 
 804bd4f:	66 a1 e0 e6 1f 08    	mov    0x81fe6e0,%ax
 804bd55:	66 8b 0d e4 e6 1f 08 	mov    0x81fe6e4,%cx
 804bd5c:	66 8b 0c 4d 40 97 16 	mov    0x8169740(,%ecx,2),%cx
 804bd63:	08 
 804bd64:	8b 14 85 20 96 06 08 	mov    0x8069620(,%eax,4),%edx
 804bd6b:	8b 14 8a             	mov    (%edx,%ecx,4),%edx
 804bd6e:	8b 14 95 20 96 06 08 	mov    0x8069620(,%edx,4),%edx
 804bd75:	8b 0d f0 e6 1f 08    	mov    0x81fe6f0,%ecx
 804bd7b:	8b 14 8a             	mov    (%edx,%ecx,4),%edx
 804bd7e:	66 89 15 e8 e6 1f 08 	mov    %dx,0x81fe6e8
 804bd85:	89 15 ee e6 1f 08    	mov    %edx,0x81fe6ee
 804bd8b:	c7 05 70 e8 5f 08 01 	movl   $0xcc000101,0x85fe870
 804bd92:	01 00 cc 
 804bd95:	66 a1 e2 e6 1f 08    	mov    0x81fe6e2,%ax
 804bd9b:	66 8b 0d e6 e6 1f 08 	mov    0x81fe6e6,%cx
 804bda2:	66 8b 0c 4d 40 97 16 	mov    0x8169740(,%ecx,2),%cx
 804bda9:	08 
 804bdaa:	8b 14 85 20 96 06 08 	mov    0x8069620(,%eax,4),%edx
 804bdb1:	8b 14 8a             	mov    (%edx,%ecx,4),%edx
 804bdb4:	8b 14 95 20 96 06 08 	mov    0x8069620(,%edx,4),%edx
 804bdbb:	8b 0d f0 e6 1f 08    	mov    0x81fe6f0,%ecx
 804bdc1:	8b 14 8a             	mov    (%edx,%ecx,4),%edx
 804bdc4:	66 89 15 ea e6 1f 08 	mov    %dx,0x81fe6ea
 804bdcb:	89 15 ee e6 1f 08    	mov    %edx,0x81fe6ee
 804bdd1:	a1 e8 e6 1f 08       	mov    0x81fe6e8,%eax
 804bdd6:	a3 44 57 05 08       	mov    %eax,0x8055744
 804bddb:	c7 05 40 57 05 08 74 	movl   $0x74,0x8055740
 804bde2:	00 00 00 
 804bde5:	c7 05 70 e8 5f 08 02 	movl   $0xcc000102,0x85fe870
 804bdec:	01 00 cc 
 804bdef:	a1 44 57 05 08       	mov    0x8055744,%eax
 804bdf4:	8b 15 40 57 05 08    	mov    0x8055740,%edx
 804bdfa:	c7 05 70 e8 5f 08 03 	movl   $0xcc000103,0x85fe870
 804be01:	01 00 cc 
 804be04:	a3 e0 e6 1f 08       	mov    %eax,0x81fe6e0
 804be09:	89 15 e4 e6 1f 08    	mov    %edx,0x81fe6e4
 804be0f:	c7 05 70 e8 5f 08 04 	movl   $0xcc000104,0x85fe870
 804be16:	01 00 cc 
 804be19:	c7 05 70 e8 5f 08 05 	movl   $0xcc000105,0x85fe870
 804be20:	01 00 cc 
 804be23:	b8 00 00 00 00       	mov    $0x0,%eax
 804be28:	ba 00 00 00 00       	mov    $0x0,%edx
 804be2d:	a0 e0 e6 1f 08       	mov    0x81fe6e0,%al
 804be32:	8a 15 e4 e6 1f 08    	mov    0x81fe6e4,%dl
 804be38:	8b 04 85 70 a1 1a 08 	mov    0x81aa170(,%eax,4),%eax
 804be3f:	8a 04 10             	mov    (%eax,%edx,1),%al
 804be42:	a2 e8 e6 1f 08       	mov    %al,0x81fe6e8
 804be47:	c7 05 70 e8 5f 08 06 	movl   $0xcc000106,0x85fe870
 804be4e:	01 00 cc 
 804be51:	b8 00 00 00 00       	mov    $0x0,%eax
 804be56:	ba 00 00 00 00       	mov    $0x0,%edx
 804be5b:	a0 e1 e6 1f 08       	mov    0x81fe6e1,%al
 804be60:	8a 15 e5 e6 1f 08    	mov    0x81fe6e5,%dl
 804be66:	8b 04 85 70 a1 1a 08 	mov    0x81aa170(,%eax,4),%eax
 804be6d:	8a 04 10             	mov    (%eax,%edx,1),%al
 804be70:	a2 e9 e6 1f 08       	mov    %al,0x81fe6e9
 804be75:	c7 05 70 e8 5f 08 07 	movl   $0xcc000107,0x85fe870
 804be7c:	01 00 cc 
 804be7f:	b8 00 00 00 00       	mov    $0x0,%eax
 804be84:	ba 00 00 00 00       	mov    $0x0,%edx
 804be89:	a0 e2 e6 1f 08       	mov    0x81fe6e2,%al
 804be8e:	8a 15 e6 e6 1f 08    	mov    0x81fe6e6,%dl
 804be94:	8b 04 85 70 a1 1a 08 	mov    0x81aa170(,%eax,4),%eax
 804be9b:	8a 04 10             	mov    (%eax,%edx,1),%al
 804be9e:	a2 ea e6 1f 08       	mov    %al,0x81fe6ea
 804bea3:	c7 05 70 e8 5f 08 08 	movl   $0xcc000108,0x85fe870
 804beaa:	01 00 cc 
 804bead:	b8 00 00 00 00       	mov    $0x0,%eax
 804beb2:	ba 00 00 00 00       	mov    $0x0,%edx
 804beb7:	a0 e3 e6 1f 08       	mov    0x81fe6e3,%al
 804bebc:	8a 15 e7 e6 1f 08    	mov    0x81fe6e7,%dl
 804bec2:	8b 04 85 70 a1 1a 08 	mov    0x81aa170(,%eax,4),%eax
 804bec9:	8a 04 10             	mov    (%eax,%edx,1),%al
 804becc:	a2 eb e6 1f 08       	mov    %al,0x81fe6eb
 804bed1:	a1 e8 e6 1f 08       	mov    0x81fe6e8,%eax
 804bed6:	a3 44 57 05 08       	mov    %eax,0x8055744
 804bedb:	c7 05 70 e8 5f 08 09 	movl   $0xcc000109,0x85fe870
 804bee2:	01 00 cc 
 804bee5:	a1 48 57 05 08       	mov    0x8055748,%eax
 804beea:	8b 15 44 57 05 08    	mov    0x8055744,%edx
 804bef0:	c7 05 70 e8 5f 08 0a 	movl   $0xcc00010a,0x85fe870
 804bef7:	01 00 cc 
 804befa:	a3 e0 e6 1f 08       	mov    %eax,0x81fe6e0
 804beff:	89 15 e4 e6 1f 08    	mov    %edx,0x81fe6e4
 804bf05:	c7 05 70 e8 5f 08 0b 	movl   $0xcc00010b,0x85fe870
 804bf0c:	01 00 cc 
 804bf0f:	c7 05 70 e8 5f 08 0c 	movl   $0xcc00010c,0x85fe870
 804bf16:	01 00 cc 
 804bf19:	b8 00 00 00 00       	mov    $0x0,%eax
 804bf1e:	ba 00 00 00 00       	mov    $0x0,%edx
 804bf23:	a0 e0 e6 1f 08       	mov    0x81fe6e0,%al
 804bf28:	8a 15 e4 e6 1f 08    	mov    0x81fe6e4,%dl
 804bf2e:	8b 04 85 60 9c 19 08 	mov    0x8199c60(,%eax,4),%eax
 804bf35:	8a 04 10             	mov    (%eax,%edx,1),%al
 804bf38:	a2 e8 e6 1f 08       	mov    %al,0x81fe6e8
 804bf3d:	c7 05 70 e8 5f 08 0d 	movl   $0xcc00010d,0x85fe870
 804bf44:	01 00 cc 
 804bf47:	b8 00 00 00 00       	mov    $0x0,%eax
 804bf4c:	ba 00 00 00 00       	mov    $0x0,%edx
 804bf51:	a0 e1 e6 1f 08       	mov    0x81fe6e1,%al
 804bf56:	8a 15 e5 e6 1f 08    	mov    0x81fe6e5,%dl
 804bf5c:	8b 04 85 60 9c 19 08 	mov    0x8199c60(,%eax,4),%eax
 804bf63:	8a 04 10             	mov    (%eax,%edx,1),%al
 804bf66:	a2 e9 e6 1f 08       	mov    %al,0x81fe6e9
 804bf6b:	c7 05 70 e8 5f 08 0e 	movl   $0xcc00010e,0x85fe870
 804bf72:	01 00 cc 
 804bf75:	b8 00 00 00 00       	mov    $0x0,%eax
 804bf7a:	ba 00 00 00 00       	mov    $0x0,%edx
 804bf7f:	a0 e2 e6 1f 08       	mov    0x81fe6e2,%al
 804bf84:	8a 15 e6 e6 1f 08    	mov    0x81fe6e6,%dl
 804bf8a:	8b 04 85 60 9c 19 08 	mov    0x8199c60(,%eax,4),%eax
 804bf91:	8a 04 10             	mov    (%eax,%edx,1),%al
 804bf94:	a2 ea e6 1f 08       	mov    %al,0x81fe6ea
 804bf99:	c7 05 70 e8 5f 08 0f 	movl   $0xcc00010f,0x85fe870
 804bfa0:	01 00 cc 
 804bfa3:	b8 00 00 00 00       	mov    $0x0,%eax
 804bfa8:	ba 00 00 00 00       	mov    $0x0,%edx
 804bfad:	a0 e3 e6 1f 08       	mov    0x81fe6e3,%al
 804bfb2:	8a 15 e7 e6 1f 08    	mov    0x81fe6e7,%dl
 804bfb8:	8b 04 85 60 9c 19 08 	mov    0x8199c60(,%eax,4),%eax
 804bfbf:	8a 04 10             	mov    (%eax,%edx,1),%al
 804bfc2:	a2 eb e6 1f 08       	mov    %al,0x81fe6eb
 804bfc7:	a1 e8 e6 1f 08       	mov    0x81fe6e8,%eax
 804bfcc:	a3 48 57 05 08       	mov    %eax,0x8055748
 804bfd1:	c7 05 70 e8 5f 08 10 	movl   $0xcc000110,0x85fe870
 804bfd8:	01 00 cc 
 804bfdb:	a1 24 e8 3f 08       	mov    0x83fe824,%eax
 804bfe0:	ba 85 ff ff ff       	mov    $0xffffff85,%edx
 804bfe5:	c7 05 70 e8 5f 08 11 	movl   $0xcc000111,0x85fe870
 804bfec:	01 00 cc 
 804bfef:	a3 e0 e6 1f 08       	mov    %eax,0x81fe6e0
 804bff4:	89 15 e4 e6 1f 08    	mov    %edx,0x81fe6e4
 804bffa:	c7 05 70 e8 5f 08 12 	movl   $0xcc000112,0x85fe870
 804c001:	01 00 cc 
 804c004:	b8 00 00 00 00       	mov    $0x0,%eax
 804c009:	b9 00 00 00 00       	mov    $0x0,%ecx
 804c00e:	c7 05 f0 e6 1f 08 00 	movl   $0x0,0x81fe6f0
 804c015:	00 00 00 
 804c018:	c7 05 70 e8 5f 08 13 	movl   $0xcc000113,0x85fe870
 804c01f:	01 00 cc 
 804c022:	66 a1 e0 e6 1f 08    	mov    0x81fe6e0,%ax
 804c028:	66 8b 0d e4 e6 1f 08 	mov    0x81fe6e4,%cx
 804c02f:	8b 14 85 20 96 06 08 	mov    0x8069620(,%eax,4),%edx
 804c036:	8b 14 8a             	mov    (%edx,%ecx,4),%edx
 804c039:	66 8b 0d f2 e6 1f 08 	mov    0x81fe6f2,%cx
 804c040:	8b 14 95 20 96 06 08 	mov    0x8069620(,%edx,4),%edx
 804c047:	8b 14 8a             	mov    (%edx,%ecx,4),%edx
 804c04a:	66 89 15 e8 e6 1f 08 	mov    %dx,0x81fe6e8
 804c051:	89 15 f0 e6 1f 08    	mov    %edx,0x81fe6f0
 804c057:	c7 05 70 e8 5f 08 14 	movl   $0xcc000114,0x85fe870
 804c05e:	01 00 cc 
 804c061:	66 a1 e2 e6 1f 08    	mov    0x81fe6e2,%ax
 804c067:	66 8b 0d e6 e6 1f 08 	mov    0x81fe6e6,%cx
 804c06e:	8b 14 85 20 96 06 08 	mov    0x8069620(,%eax,4),%edx
 804c075:	8b 14 8a             	mov    (%edx,%ecx,4),%edx
 804c078:	66 8b 0d f2 e6 1f 08 	mov    0x81fe6f2,%cx
 804c07f:	8b 14 95 20 96 06 08 	mov    0x8069620(,%edx,4),%edx
 804c086:	8b 14 8a             	mov    (%edx,%ecx,4),%edx
 804c089:	66 89 15 ea e6 1f 08 	mov    %dx,0x81fe6ea
 804c090:	89 15 f0 e6 1f 08    	mov    %edx,0x81fe6f0
 804c096:	a1 e8 e6 1f 08       	mov    0x81fe6e8,%eax
 804c09b:	a3 44 57 05 08       	mov    %eax,0x8055744
 804c0a0:	c7 05 70 e8 5f 08 15 	movl   $0xcc000115,0x85fe870
 804c0a7:	01 00 cc 
 804c0aa:	a1 44 57 05 08       	mov    0x8055744,%eax
 804c0af:	8b 15 48 e8 3f 08    	mov    0x83fe848,%edx
 804c0b5:	c7 05 70 e8 5f 08 16 	movl   $0xcc000116,0x85fe870
 804c0bc:	01 00 cc 
 804c0bf:	a3 64 e8 3f 08       	mov    %eax,0x83fe864
 804c0c4:	8b 04 95 60 e8 3f 08 	mov    0x83fe860(,%edx,4),%eax
 804c0cb:	ba 00 00 00 00       	mov    $0x0,%edx
 804c0d0:	8a 10                	mov    (%eax),%dl
 804c0d2:	89 15 40 57 05 08    	mov    %edx,0x8055740
 804c0d8:	c7 05 70 e8 5f 08 17 	movl   $0xcc000117,0x85fe870
 804c0df:	01 00 cc 
 804c0e2:	ba 00 00 00 00       	mov    $0x0,%edx
 804c0e7:	8a 15 40 57 05 08    	mov    0x8055740,%dl
 804c0ed:	8b 14 95 60 e2 1f 08 	mov    0x81fe260(,%edx,4),%edx
 804c0f4:	89 15 44 57 05 08    	mov    %edx,0x8055744
 804c0fa:	c7 05 70 e8 5f 08 18 	movl   $0xcc000118,0x85fe870
 804c101:	01 00 cc 
 804c104:	a1 24 e8 3f 08       	mov    0x83fe824,%eax
 804c109:	8b 80 98 ff df ff    	mov    -0x200068(%eax),%eax
 804c10f:	8b 80 98 ff df ff    	mov    -0x200068(%eax),%eax
 804c115:	8b 80 98 ff df ff    	mov    -0x200068(%eax),%eax
 804c11b:	8b 80 98 ff df ff    	mov    -0x200068(%eax),%eax
 804c121:	8b 80 98 ff df ff    	mov    -0x200068(%eax),%eax
 804c127:	8b 80 98 ff df ff    	mov    -0x200068(%eax),%eax
 804c12d:	8b 80 98 ff df ff    	mov    -0x200068(%eax),%eax
 804c133:	8b 80 98 ff df ff    	mov    -0x200068(%eax),%eax
 804c139:	8b 80 98 ff df ff    	mov    -0x200068(%eax),%eax
 804c13f:	8b 80 98 ff df ff    	mov    -0x200068(%eax),%eax
 804c145:	8b 80 98 ff df ff    	mov    -0x200068(%eax),%eax
 804c14b:	8b 80 98 ff df ff    	mov    -0x200068(%eax),%eax
 804c151:	8b 80 98 ff df ff    	mov    -0x200068(%eax),%eax
 804c157:	8b 80 98 ff df ff    	mov    -0x200068(%eax),%eax
 804c15d:	8b 80 98 ff df ff    	mov    -0x200068(%eax),%eax
 804c163:	8b 80 98 ff df ff    	mov    -0x200068(%eax),%eax
 804c169:	8b 80 98 ff df ff    	mov    -0x200068(%eax),%eax
 804c16f:	8b 80 98 ff df ff    	mov    -0x200068(%eax),%eax
 804c175:	8b 80 98 ff df ff    	mov    -0x200068(%eax),%eax
 804c17b:	8b 80 98 ff df ff    	mov    -0x200068(%eax),%eax
 804c181:	8b 80 98 ff df ff    	mov    -0x200068(%eax),%eax
 804c187:	8b 80 98 ff df ff    	mov    -0x200068(%eax),%eax
 804c18d:	8b 80 98 ff df ff    	mov    -0x200068(%eax),%eax
 804c193:	8b 80 98 ff df ff    	mov    -0x200068(%eax),%eax
 804c199:	8b 80 98 ff df ff    	mov    -0x200068(%eax),%eax
 804c19f:	8b 80 98 ff df ff    	mov    -0x200068(%eax),%eax
 804c1a5:	8b 80 98 ff df ff    	mov    -0x200068(%eax),%eax
 804c1ab:	8b 80 98 ff df ff    	mov    -0x200068(%eax),%eax
 804c1b1:	8b 80 98 ff df ff    	mov    -0x200068(%eax),%eax
 804c1b7:	8b 80 98 ff df ff    	mov    -0x200068(%eax),%eax
 804c1bd:	8b 80 98 ff df ff    	mov    -0x200068(%eax),%eax
 804c1c3:	8b 80 98 ff df ff    	mov    -0x200068(%eax),%eax
 804c1c9:	8b 80 98 ff df ff    	mov    -0x200068(%eax),%eax
 804c1cf:	a3 40 57 05 08       	mov    %eax,0x8055740
 804c1d4:	c7 05 70 e8 5f 08 19 	movl   $0xcc000119,0x85fe870
 804c1db:	01 00 cc 
 804c1de:	a1 40 57 05 08       	mov    0x8055740,%eax
 804c1e3:	8b 15 48 e8 3f 08    	mov    0x83fe848,%edx
 804c1e9:	c7 05 70 e8 5f 08 1a 	movl   $0xcc00011a,0x85fe870
 804c1f0:	01 00 cc 
 804c1f3:	a3 64 e8 3f 08       	mov    %eax,0x83fe864
 804c1f8:	8b 04 95 60 e8 3f 08 	mov    0x83fe860(,%edx,4),%eax
 804c1ff:	8b 00                	mov    (%eax),%eax
 804c201:	a3 40 57 05 08       	mov    %eax,0x8055740
 804c206:	c7 05 70 e8 5f 08 1b 	movl   $0xcc00011b,0x85fe870
 804c20d:	01 00 cc 
 804c210:	a1 44 57 05 08       	mov    0x8055744,%eax
 804c215:	8b 15 40 57 05 08    	mov    0x8055740,%edx
 804c21b:	c7 05 70 e8 5f 08 1c 	movl   $0xcc00011c,0x85fe870
 804c222:	01 00 cc 
 804c225:	a3 e0 e6 1f 08       	mov    %eax,0x81fe6e0
 804c22a:	89 15 e4 e6 1f 08    	mov    %edx,0x81fe6e4
 804c230:	c7 05 70 e8 5f 08 1d 	movl   $0xcc00011d,0x85fe870
 804c237:	01 00 cc 
 804c23a:	b8 00 00 00 00       	mov    $0x0,%eax
 804c23f:	b9 00 00 00 00       	mov    $0x0,%ecx
 804c244:	c7 05 f0 e6 1f 08 01 	movl   $0x1,0x81fe6f0
 804c24b:	00 00 00 
 804c24e:	c7 05 70 e8 5f 08 1e 	movl   $0xcc00011e,0x85fe870
 804c255:	01 00 cc 
 804c258:	66 a1 e0 e6 1f 08    	mov    0x81fe6e0,%ax
 804c25e:	66 8b 0d e4 e6 1f 08 	mov    0x81fe6e4,%cx
 804c265:	66 8b 0c 4d 40 97 16 	mov    0x8169740(,%ecx,2),%cx
 804c26c:	08 
 804c26d:	8b 14 85 20 96 06 08 	mov    0x8069620(,%eax,4),%edx
 804c274:	8b 14 8a             	mov    (%edx,%ecx,4),%edx
 804c277:	8b 14 95 20 96 06 08 	mov    0x8069620(,%edx,4),%edx
 804c27e:	8b 0d f0 e6 1f 08    	mov    0x81fe6f0,%ecx
 804c284:	8b 14 8a             	mov    (%edx,%ecx,4),%edx
 804c287:	66 89 15 e8 e6 1f 08 	mov    %dx,0x81fe6e8
 804c28e:	89 15 ee e6 1f 08    	mov    %edx,0x81fe6ee
 804c294:	c7 05 70 e8 5f 08 1f 	movl   $0xcc00011f,0x85fe870
 804c29b:	01 00 cc 
 804c29e:	66 a1 e2 e6 1f 08    	mov    0x81fe6e2,%ax
 804c2a4:	66 8b 0d e6 e6 1f 08 	mov    0x81fe6e6,%cx
 804c2ab:	66 8b 0c 4d 40 97 16 	mov    0x8169740(,%ecx,2),%cx
 804c2b2:	08 
 804c2b3:	8b 14 85 20 96 06 08 	mov    0x8069620(,%eax,4),%edx
 804c2ba:	8b 14 8a             	mov    (%edx,%ecx,4),%edx
 804c2bd:	8b 14 95 20 96 06 08 	mov    0x8069620(,%edx,4),%edx
 804c2c4:	8b 0d f0 e6 1f 08    	mov    0x81fe6f0,%ecx
 804c2ca:	8b 14 8a             	mov    (%edx,%ecx,4),%edx
 804c2cd:	66 89 15 ea e6 1f 08 	mov    %dx,0x81fe6ea
 804c2d4:	89 15 ee e6 1f 08    	mov    %edx,0x81fe6ee
 804c2da:	a1 e8 e6 1f 08       	mov    0x81fe6e8,%eax
 804c2df:	a3 44 57 05 08       	mov    %eax,0x8055744
 804c2e4:	c7 05 40 57 05 08 66 	movl   $0x66,0x8055740
 804c2eb:	00 00 00 
 804c2ee:	c7 05 70 e8 5f 08 20 	movl   $0xcc000120,0x85fe870
 804c2f5:	01 00 cc 
 804c2f8:	a1 44 57 05 08       	mov    0x8055744,%eax
 804c2fd:	8b 15 40 57 05 08    	mov    0x8055740,%edx
 804c303:	c7 05 70 e8 5f 08 21 	movl   $0xcc000121,0x85fe870
 804c30a:	01 00 cc 
 804c30d:	a3 e0 e6 1f 08       	mov    %eax,0x81fe6e0
 804c312:	89 15 e4 e6 1f 08    	mov    %edx,0x81fe6e4
 804c318:	c7 05 70 e8 5f 08 22 	movl   $0xcc000122,0x85fe870
 804c31f:	01 00 cc 
 804c322:	c7 05 70 e8 5f 08 23 	movl   $0xcc000123,0x85fe870
 804c329:	01 00 cc 
 804c32c:	b8 00 00 00 00       	mov    $0x0,%eax
 804c331:	ba 00 00 00 00       	mov    $0x0,%edx
 804c336:	a0 e0 e6 1f 08       	mov    0x81fe6e0,%al
 804c33b:	8a 15 e4 e6 1f 08    	mov    0x81fe6e4,%dl
 804c341:	8b 04 85 70 a1 1a 08 	mov    0x81aa170(,%eax,4),%eax
 804c348:	8a 04 10             	mov    (%eax,%edx,1),%al
 804c34b:	a2 e8 e6 1f 08       	mov    %al,0x81fe6e8
 804c350:	c7 05 70 e8 5f 08 24 	movl   $0xcc000124,0x85fe870
 804c357:	01 00 cc 
 804c35a:	b8 00 00 00 00       	mov    $0x0,%eax
 804c35f:	ba 00 00 00 00       	mov    $0x0,%edx
 804c364:	a0 e1 e6 1f 08       	mov    0x81fe6e1,%al
 804c369:	8a 15 e5 e6 1f 08    	mov    0x81fe6e5,%dl
 804c36f:	8b 04 85 70 a1 1a 08 	mov    0x81aa170(,%eax,4),%eax
 804c376:	8a 04 10             	mov    (%eax,%edx,1),%al
 804c379:	a2 e9 e6 1f 08       	mov    %al,0x81fe6e9
 804c37e:	c7 05 70 e8 5f 08 25 	movl   $0xcc000125,0x85fe870
 804c385:	01 00 cc 
 804c388:	b8 00 00 00 00       	mov    $0x0,%eax
 804c38d:	ba 00 00 00 00       	mov    $0x0,%edx
 804c392:	a0 e2 e6 1f 08       	mov    0x81fe6e2,%al
 804c397:	8a 15 e6 e6 1f 08    	mov    0x81fe6e6,%dl
 804c39d:	8b 04 85 70 a1 1a 08 	mov    0x81aa170(,%eax,4),%eax
 804c3a4:	8a 04 10             	mov    (%eax,%edx,1),%al
 804c3a7:	a2 ea e6 1f 08       	mov    %al,0x81fe6ea
 804c3ac:	c7 05 70 e8 5f 08 26 	movl   $0xcc000126,0x85fe870
 804c3b3:	01 00 cc 
 804c3b6:	b8 00 00 00 00       	mov    $0x0,%eax
 804c3bb:	ba 00 00 00 00       	mov    $0x0,%edx
 804c3c0:	a0 e3 e6 1f 08       	mov    0x81fe6e3,%al
 804c3c5:	8a 15 e7 e6 1f 08    	mov    0x81fe6e7,%dl
 804c3cb:	8b 04 85 70 a1 1a 08 	mov    0x81aa170(,%eax,4),%eax
 804c3d2:	8a 04 10             	mov    (%eax,%edx,1),%al
 804c3d5:	a2 eb e6 1f 08       	mov    %al,0x81fe6eb
 804c3da:	a1 e8 e6 1f 08       	mov    0x81fe6e8,%eax
 804c3df:	a3 44 57 05 08       	mov    %eax,0x8055744
 804c3e4:	c7 05 70 e8 5f 08 27 	movl   $0xcc000127,0x85fe870
 804c3eb:	01 00 cc 
 804c3ee:	a1 48 57 05 08       	mov    0x8055748,%eax
 804c3f3:	8b 15 44 57 05 08    	mov    0x8055744,%edx
 804c3f9:	c7 05 70 e8 5f 08 28 	movl   $0xcc000128,0x85fe870
 804c400:	01 00 cc 
 804c403:	a3 e0 e6 1f 08       	mov    %eax,0x81fe6e0
 804c408:	89 15 e4 e6 1f 08    	mov    %edx,0x81fe6e4
 804c40e:	c7 05 70 e8 5f 08 29 	movl   $0xcc000129,0x85fe870
 804c415:	01 00 cc 
 804c418:	c7 05 70 e8 5f 08 2a 	movl   $0xcc00012a,0x85fe870
 804c41f:	01 00 cc 
 804c422:	b8 00 00 00 00       	mov    $0x0,%eax
 804c427:	ba 00 00 00 00       	mov    $0x0,%edx
 804c42c:	a0 e0 e6 1f 08       	mov    0x81fe6e0,%al
 804c431:	8a 15 e4 e6 1f 08    	mov    0x81fe6e4,%dl
 804c437:	8b 04 85 60 9c 19 08 	mov    0x8199c60(,%eax,4),%eax
 804c43e:	8a 04 10             	mov    (%eax,%edx,1),%al
 804c441:	a2 e8 e6 1f 08       	mov    %al,0x81fe6e8
 804c446:	c7 05 70 e8 5f 08 2b 	movl   $0xcc00012b,0x85fe870
 804c44d:	01 00 cc 
 804c450:	b8 00 00 00 00       	mov    $0x0,%eax
 804c455:	ba 00 00 00 00       	mov    $0x0,%edx
 804c45a:	a0 e1 e6 1f 08       	mov    0x81fe6e1,%al
 804c45f:	8a 15 e5 e6 1f 08    	mov    0x81fe6e5,%dl
 804c465:	8b 04 85 60 9c 19 08 	mov    0x8199c60(,%eax,4),%eax
 804c46c:	8a 04 10             	mov    (%eax,%edx,1),%al
 804c46f:	a2 e9 e6 1f 08       	mov    %al,0x81fe6e9
 804c474:	c7 05 70 e8 5f 08 2c 	movl   $0xcc00012c,0x85fe870
 804c47b:	01 00 cc 
 804c47e:	b8 00 00 00 00       	mov    $0x0,%eax
 804c483:	ba 00 00 00 00       	mov    $0x0,%edx
 804c488:	a0 e2 e6 1f 08       	mov    0x81fe6e2,%al
 804c48d:	8a 15 e6 e6 1f 08    	mov    0x81fe6e6,%dl
 804c493:	8b 04 85 60 9c 19 08 	mov    0x8199c60(,%eax,4),%eax
 804c49a:	8a 04 10             	mov    (%eax,%edx,1),%al
 804c49d:	a2 ea e6 1f 08       	mov    %al,0x81fe6ea
 804c4a2:	c7 05 70 e8 5f 08 2d 	movl   $0xcc00012d,0x85fe870
 804c4a9:	01 00 cc 
 804c4ac:	b8 00 00 00 00       	mov    $0x0,%eax
 804c4b1:	ba 00 00 00 00       	mov    $0x0,%edx
 804c4b6:	a0 e3 e6 1f 08       	mov    0x81fe6e3,%al
 804c4bb:	8a 15 e7 e6 1f 08    	mov    0x81fe6e7,%dl
 804c4c1:	8b 04 85 60 9c 19 08 	mov    0x8199c60(,%eax,4),%eax
 804c4c8:	8a 04 10             	mov    (%eax,%edx,1),%al
 804c4cb:	a2 eb e6 1f 08       	mov    %al,0x81fe6eb
 804c4d0:	a1 e8 e6 1f 08       	mov    0x81fe6e8,%eax
 804c4d5:	a3 48 57 05 08       	mov    %eax,0x8055748
 804c4da:	c7 05 70 e8 5f 08 2e 	movl   $0xcc00012e,0x85fe870
 804c4e1:	01 00 cc 
 804c4e4:	a1 24 e8 3f 08       	mov    0x83fe824,%eax
 804c4e9:	ba 86 ff ff ff       	mov    $0xffffff86,%edx
 804c4ee:	c7 05 70 e8 5f 08 2f 	movl   $0xcc00012f,0x85fe870
 804c4f5:	01 00 cc 
 804c4f8:	a3 e0 e6 1f 08       	mov    %eax,0x81fe6e0
 804c4fd:	89 15 e4 e6 1f 08    	mov    %edx,0x81fe6e4
 804c503:	c7 05 70 e8 5f 08 30 	movl   $0xcc000130,0x85fe870
 804c50a:	01 00 cc 
 804c50d:	b8 00 00 00 00       	mov    $0x0,%eax
 804c512:	b9 00 00 00 00       	mov    $0x0,%ecx
 804c517:	c7 05 f0 e6 1f 08 00 	movl   $0x0,0x81fe6f0
 804c51e:	00 00 00 
 804c521:	c7 05 70 e8 5f 08 31 	movl   $0xcc000131,0x85fe870
 804c528:	01 00 cc 
 804c52b:	66 a1 e0 e6 1f 08    	mov    0x81fe6e0,%ax
 804c531:	66 8b 0d e4 e6 1f 08 	mov    0x81fe6e4,%cx
 804c538:	8b 14 85 20 96 06 08 	mov    0x8069620(,%eax,4),%edx
 804c53f:	8b 14 8a             	mov    (%edx,%ecx,4),%edx
 804c542:	66 8b 0d f2 e6 1f 08 	mov    0x81fe6f2,%cx
 804c549:	8b 14 95 20 96 06 08 	mov    0x8069620(,%edx,4),%edx
 804c550:	8b 14 8a             	mov    (%edx,%ecx,4),%edx
 804c553:	66 89 15 e8 e6 1f 08 	mov    %dx,0x81fe6e8
 804c55a:	89 15 f0 e6 1f 08    	mov    %edx,0x81fe6f0
 804c560:	c7 05 70 e8 5f 08 32 	movl   $0xcc000132,0x85fe870
 804c567:	01 00 cc 
 804c56a:	66 a1 e2 e6 1f 08    	mov    0x81fe6e2,%ax
 804c570:	66 8b 0d e6 e6 1f 08 	mov    0x81fe6e6,%cx
 804c577:	8b 14 85 20 96 06 08 	mov    0x8069620(,%eax,4),%edx
 804c57e:	8b 14 8a             	mov    (%edx,%ecx,4),%edx
 804c581:	66 8b 0d f2 e6 1f 08 	mov    0x81fe6f2,%cx
 804c588:	8b 14 95 20 96 06 08 	mov    0x8069620(,%edx,4),%edx
 804c58f:	8b 14 8a             	mov    (%edx,%ecx,4),%edx
 804c592:	66 89 15 ea e6 1f 08 	mov    %dx,0x81fe6ea
 804c599:	89 15 f0 e6 1f 08    	mov    %edx,0x81fe6f0
 804c59f:	a1 e8 e6 1f 08       	mov    0x81fe6e8,%eax
 804c5a4:	a3 44 57 05 08       	mov    %eax,0x8055744
 804c5a9:	c7 05 70 e8 5f 08 33 	movl   $0xcc000133,0x85fe870
 804c5b0:	01 00 cc 
 804c5b3:	a1 44 57 05 08       	mov    0x8055744,%eax
 804c5b8:	8b 15 48 e8 3f 08    	mov    0x83fe848,%edx
 804c5be:	c7 05 70 e8 5f 08 34 	movl   $0xcc000134,0x85fe870
 804c5c5:	01 00 cc 
 804c5c8:	a3 64 e8 3f 08       	mov    %eax,0x83fe864
 804c5cd:	8b 04 95 60 e8 3f 08 	mov    0x83fe860(,%edx,4),%eax
 804c5d4:	ba 00 00 00 00       	mov    $0x0,%edx
 804c5d9:	8a 10                	mov    (%eax),%dl
 804c5db:	89 15 40 57 05 08    	mov    %edx,0x8055740
 804c5e1:	c7 05 70 e8 5f 08 35 	movl   $0xcc000135,0x85fe870
 804c5e8:	01 00 cc 
 804c5eb:	ba 00 00 00 00       	mov    $0x0,%edx
 804c5f0:	8a 15 40 57 05 08    	mov    0x8055740,%dl
 804c5f6:	8b 14 95 60 e2 1f 08 	mov    0x81fe260(,%edx,4),%edx
 804c5fd:	89 15 44 57 05 08    	mov    %edx,0x8055744
 804c603:	c7 05 70 e8 5f 08 36 	movl   $0xcc000136,0x85fe870
 804c60a:	01 00 cc 
 804c60d:	a1 44 57 05 08       	mov    0x8055744,%eax
 804c612:	8b 15 4c 57 05 08    	mov    0x805574c,%edx
 804c618:	c7 05 70 e8 5f 08 37 	movl   $0xcc000137,0x85fe870
 804c61f:	01 00 cc 
 804c622:	a3 e0 e6 1f 08       	mov    %eax,0x81fe6e0
 804c627:	89 15 e4 e6 1f 08    	mov    %edx,0x81fe6e4
 804c62d:	c7 05 70 e8 5f 08 38 	movl   $0xcc000138,0x85fe870
 804c634:	01 00 cc 
 804c637:	b8 00 00 00 00       	mov    $0x0,%eax
 804c63c:	b9 00 00 00 00       	mov    $0x0,%ecx
 804c641:	c7 05 f0 e6 1f 08 00 	movl   $0x0,0x81fe6f0
 804c648:	00 00 00 
 804c64b:	c7 05 70 e8 5f 08 39 	movl   $0xcc000139,0x85fe870
 804c652:	01 00 cc 
 804c655:	66 a1 e0 e6 1f 08    	mov    0x81fe6e0,%ax
 804c65b:	66 8b 0d e4 e6 1f 08 	mov    0x81fe6e4,%cx
 804c662:	8b 14 85 20 96 06 08 	mov    0x8069620(,%eax,4),%edx
 804c669:	8b 14 8a             	mov    (%edx,%ecx,4),%edx
 804c66c:	66 8b 0d f2 e6 1f 08 	mov    0x81fe6f2,%cx
 804c673:	8b 14 95 20 96 06 08 	mov    0x8069620(,%edx,4),%edx
 804c67a:	8b 14 8a             	mov    (%edx,%ecx,4),%edx
 804c67d:	66 89 15 e8 e6 1f 08 	mov    %dx,0x81fe6e8
 804c684:	89 15 f0 e6 1f 08    	mov    %edx,0x81fe6f0
 804c68a:	c7 05 70 e8 5f 08 3a 	movl   $0xcc00013a,0x85fe870
 804c691:	01 00 cc 
 804c694:	66 a1 e2 e6 1f 08    	mov    0x81fe6e2,%ax
 804c69a:	66 8b 0d e6 e6 1f 08 	mov    0x81fe6e6,%cx
 804c6a1:	8b 14 85 20 96 06 08 	mov    0x8069620(,%eax,4),%edx
 804c6a8:	8b 14 8a             	mov    (%edx,%ecx,4),%edx
 804c6ab:	66 8b 0d f2 e6 1f 08 	mov    0x81fe6f2,%cx
 804c6b2:	8b 14 95 20 96 06 08 	mov    0x8069620(,%edx,4),%edx
 804c6b9:	8b 14 8a             	mov    (%edx,%ecx,4),%edx
 804c6bc:	66 89 15 ea e6 1f 08 	mov    %dx,0x81fe6ea
 804c6c3:	89 15 f0 e6 1f 08    	mov    %edx,0x81fe6f0
 804c6c9:	a1 e8 e6 1f 08       	mov    0x81fe6e8,%eax
 804c6ce:	a3 44 57 05 08       	mov    %eax,0x8055744
 804c6d3:	c7 05 70 e8 5f 08 3b 	movl   $0xcc00013b,0x85fe870
 804c6da:	01 00 cc 
 804c6dd:	a1 24 e8 3f 08       	mov    0x83fe824,%eax
 804c6e2:	8b 80 98 ff df ff    	mov    -0x200068(%eax),%eax
 804c6e8:	8b 80 98 ff df ff    	mov    -0x200068(%eax),%eax
 804c6ee:	8b 80 98 ff df ff    	mov    -0x200068(%eax),%eax
 804c6f4:	8b 80 98 ff df ff    	mov    -0x200068(%eax),%eax
 804c6fa:	8b 80 98 ff df ff    	mov    -0x200068(%eax),%eax
 804c700:	8b 80 98 ff df ff    	mov    -0x200068(%eax),%eax
 804c706:	8b 80 98 ff df ff    	mov    -0x200068(%eax),%eax
 804c70c:	8b 80 98 ff df ff    	mov    -0x200068(%eax),%eax
 804c712:	8b 80 98 ff df ff    	mov    -0x200068(%eax),%eax
 804c718:	8b 80 98 ff df ff    	mov    -0x200068(%eax),%eax
 804c71e:	8b 80 98 ff df ff    	mov    -0x200068(%eax),%eax
 804c724:	8b 80 98 ff df ff    	mov    -0x200068(%eax),%eax
 804c72a:	8b 80 98 ff df ff    	mov    -0x200068(%eax),%eax
 804c730:	8b 80 98 ff df ff    	mov    -0x200068(%eax),%eax
 804c736:	8b 80 98 ff df ff    	mov    -0x200068(%eax),%eax
 804c73c:	8b 80 98 ff df ff    	mov    -0x200068(%eax),%eax
 804c742:	8b 80 98 ff df ff    	mov    -0x200068(%eax),%eax
 804c748:	8b 80 98 ff df ff    	mov    -0x200068(%eax),%eax
 804c74e:	8b 80 98 ff df ff    	mov    -0x200068(%eax),%eax
 804c754:	8b 80 98 ff df ff    	mov    -0x200068(%eax),%eax
 804c75a:	8b 80 98 ff df ff    	mov    -0x200068(%eax),%eax
 804c760:	8b 80 98 ff df ff    	mov    -0x200068(%eax),%eax
 804c766:	8b 80 98 ff df ff    	mov    -0x200068(%eax),%eax
 804c76c:	8b 80 98 ff df ff    	mov    -0x200068(%eax),%eax
 804c772:	8b 80 98 ff df ff    	mov    -0x200068(%eax),%eax
 804c778:	8b 80 98 ff df ff    	mov    -0x200068(%eax),%eax
 804c77e:	8b 80 98 ff df ff    	mov    -0x200068(%eax),%eax
 804c784:	8b 80 98 ff df ff    	mov    -0x200068(%eax),%eax
 804c78a:	8b 80 98 ff df ff    	mov    -0x200068(%eax),%eax
 804c790:	8b 80 98 ff df ff    	mov    -0x200068(%eax),%eax
 804c796:	8b 80 98 ff df ff    	mov    -0x200068(%eax),%eax
 804c79c:	8b 80 98 ff df ff    	mov    -0x200068(%eax),%eax
 804c7a2:	8b 80 98 ff df ff    	mov    -0x200068(%eax),%eax
 804c7a8:	8b 80 98 ff df ff    	mov    -0x200068(%eax),%eax
 804c7ae:	8b 80 98 ff df ff    	mov    -0x200068(%eax),%eax
 804c7b4:	8b 80 98 ff df ff    	mov    -0x200068(%eax),%eax
 804c7ba:	8b 80 98 ff df ff    	mov    -0x200068(%eax),%eax
 804c7c0:	8b 80 98 ff df ff    	mov    -0x200068(%eax),%eax
 804c7c6:	8b 80 98 ff df ff    	mov    -0x200068(%eax),%eax
 804c7cc:	8b 80 98 ff df ff    	mov    -0x200068(%eax),%eax
 804c7d2:	a3 40 57 05 08       	mov    %eax,0x8055740
 804c7d7:	c7 05 70 e8 5f 08 3c 	movl   $0xcc00013c,0x85fe870
 804c7de:	01 00 cc 
 804c7e1:	a1 40 57 05 08       	mov    0x8055740,%eax
 804c7e6:	8b 15 48 e8 3f 08    	mov    0x83fe848,%edx
 804c7ec:	c7 05 70 e8 5f 08 3d 	movl   $0xcc00013d,0x85fe870
 804c7f3:	01 00 cc 
 804c7f6:	a3 64 e8 3f 08       	mov    %eax,0x83fe864
 804c7fb:	8b 04 95 60 e8 3f 08 	mov    0x83fe860(,%edx,4),%eax
 804c802:	8b 00                	mov    (%eax),%eax
 804c804:	a3 40 57 05 08       	mov    %eax,0x8055740
 804c809:	c7 05 70 e8 5f 08 3e 	movl   $0xcc00013e,0x85fe870
 804c810:	01 00 cc 
 804c813:	a1 44 57 05 08       	mov    0x8055744,%eax
 804c818:	8b 15 40 57 05 08    	mov    0x8055740,%edx
 804c81e:	c7 05 70 e8 5f 08 3f 	movl   $0xcc00013f,0x85fe870
 804c825:	01 00 cc 
 804c828:	a3 e0 e6 1f 08       	mov    %eax,0x81fe6e0
 804c82d:	89 15 e4 e6 1f 08    	mov    %edx,0x81fe6e4
 804c833:	c7 05 70 e8 5f 08 40 	movl   $0xcc000140,0x85fe870
 804c83a:	01 00 cc 
 804c83d:	b8 00 00 00 00       	mov    $0x0,%eax
 804c842:	b9 00 00 00 00       	mov    $0x0,%ecx
 804c847:	c7 05 f0 e6 1f 08 01 	movl   $0x1,0x81fe6f0
 804c84e:	00 00 00 
 804c851:	c7 05 70 e8 5f 08 41 	movl   $0xcc000141,0x85fe870
 804c858:	01 00 cc 
 804c85b:	66 a1 e0 e6 1f 08    	mov    0x81fe6e0,%ax
 804c861:	66 8b 0d e4 e6 1f 08 	mov    0x81fe6e4,%cx
 804c868:	66 8b 0c 4d 40 97 16 	mov    0x8169740(,%ecx,2),%cx
 804c86f:	08 
 804c870:	8b 14 85 20 96 06 08 	mov    0x8069620(,%eax,4),%edx
 804c877:	8b 14 8a             	mov    (%edx,%ecx,4),%edx
 804c87a:	8b 14 95 20 96 06 08 	mov    0x8069620(,%edx,4),%edx
 804c881:	8b 0d f0 e6 1f 08    	mov    0x81fe6f0,%ecx
 804c887:	8b 14 8a             	mov    (%edx,%ecx,4),%edx
 804c88a:	66 89 15 e8 e6 1f 08 	mov    %dx,0x81fe6e8
 804c891:	89 15 ee e6 1f 08    	mov    %edx,0x81fe6ee
 804c897:	c7 05 70 e8 5f 08 42 	movl   $0xcc000142,0x85fe870
 804c89e:	01 00 cc 
 804c8a1:	66 a1 e2 e6 1f 08    	mov    0x81fe6e2,%ax
 804c8a7:	66 8b 0d e6 e6 1f 08 	mov    0x81fe6e6,%cx
 804c8ae:	66 8b 0c 4d 40 97 16 	mov    0x8169740(,%ecx,2),%cx
 804c8b5:	08 
 804c8b6:	8b 14 85 20 96 06 08 	mov    0x8069620(,%eax,4),%edx
 804c8bd:	8b 14 8a             	mov    (%edx,%ecx,4),%edx
 804c8c0:	8b 14 95 20 96 06 08 	mov    0x8069620(,%edx,4),%edx
 804c8c7:	8b 0d f0 e6 1f 08    	mov    0x81fe6f0,%ecx
 804c8cd:	8b 14 8a             	mov    (%edx,%ecx,4),%edx
 804c8d0:	66 89 15 ea e6 1f 08 	mov    %dx,0x81fe6ea
 804c8d7:	89 15 ee e6 1f 08    	mov    %edx,0x81fe6ee
 804c8dd:	a1 e8 e6 1f 08       	mov    0x81fe6e8,%eax
 804c8e2:	a3 44 57 05 08       	mov    %eax,0x8055744
 804c8e7:	c7 05 70 e8 5f 08 43 	movl   $0xcc000143,0x85fe870
 804c8ee:	01 00 cc 
 804c8f1:	a1 48 57 05 08       	mov    0x8055748,%eax
 804c8f6:	8b 15 44 57 05 08    	mov    0x8055744,%edx
 804c8fc:	c7 05 70 e8 5f 08 44 	movl   $0xcc000144,0x85fe870
 804c903:	01 00 cc 
 804c906:	a3 e0 e6 1f 08       	mov    %eax,0x81fe6e0
 804c90b:	89 15 e4 e6 1f 08    	mov    %edx,0x81fe6e4
 804c911:	c7 05 70 e8 5f 08 45 	movl   $0xcc000145,0x85fe870
 804c918:	01 00 cc 
 804c91b:	c7 05 70 e8 5f 08 46 	movl   $0xcc000146,0x85fe870
 804c922:	01 00 cc 
 804c925:	b8 00 00 00 00       	mov    $0x0,%eax
 804c92a:	ba 00 00 00 00       	mov    $0x0,%edx
 804c92f:	a0 e0 e6 1f 08       	mov    0x81fe6e0,%al
 804c934:	8a 15 e4 e6 1f 08    	mov    0x81fe6e4,%dl
 804c93a:	8b 04 85 60 9c 19 08 	mov    0x8199c60(,%eax,4),%eax
 804c941:	8a 04 10             	mov    (%eax,%edx,1),%al
 804c944:	a2 e8 e6 1f 08       	mov    %al,0x81fe6e8
 804c949:	c7 05 70 e8 5f 08 47 	movl   $0xcc000147,0x85fe870
 804c950:	01 00 cc 
 804c953:	b8 00 00 00 00       	mov    $0x0,%eax
 804c958:	ba 00 00 00 00       	mov    $0x0,%edx
 804c95d:	a0 e1 e6 1f 08       	mov    0x81fe6e1,%al
 804c962:	8a 15 e5 e6 1f 08    	mov    0x81fe6e5,%dl
 804c968:	8b 04 85 60 9c 19 08 	mov    0x8199c60(,%eax,4),%eax
 804c96f:	8a 04 10             	mov    (%eax,%edx,1),%al
 804c972:	a2 e9 e6 1f 08       	mov    %al,0x81fe6e9
 804c977:	c7 05 70 e8 5f 08 48 	movl   $0xcc000148,0x85fe870
 804c97e:	01 00 cc 
 804c981:	b8 00 00 00 00       	mov    $0x0,%eax
 804c986:	ba 00 00 00 00       	mov    $0x0,%edx
 804c98b:	a0 e2 e6 1f 08       	mov    0x81fe6e2,%al
 804c990:	8a 15 e6 e6 1f 08    	mov    0x81fe6e6,%dl
 804c996:	8b 04 85 60 9c 19 08 	mov    0x8199c60(,%eax,4),%eax
 804c99d:	8a 04 10             	mov    (%eax,%edx,1),%al
 804c9a0:	a2 ea e6 1f 08       	mov    %al,0x81fe6ea
 804c9a5:	c7 05 70 e8 5f 08 49 	movl   $0xcc000149,0x85fe870
 804c9ac:	01 00 cc 
 804c9af:	b8 00 00 00 00       	mov    $0x0,%eax
 804c9b4:	ba 00 00 00 00       	mov    $0x0,%edx
 804c9b9:	a0 e3 e6 1f 08       	mov    0x81fe6e3,%al
 804c9be:	8a 15 e7 e6 1f 08    	mov    0x81fe6e7,%dl
 804c9c4:	8b 04 85 60 9c 19 08 	mov    0x8199c60(,%eax,4),%eax
 804c9cb:	8a 04 10             	mov    (%eax,%edx,1),%al
 804c9ce:	a2 eb e6 1f 08       	mov    %al,0x81fe6eb
 804c9d3:	a1 e8 e6 1f 08       	mov    0x81fe6e8,%eax
 804c9d8:	a3 48 57 05 08       	mov    %eax,0x8055748
 804c9dd:	c7 05 70 e8 5f 08 4a 	movl   $0xcc00014a,0x85fe870
 804c9e4:	01 00 cc 
 804c9e7:	a1 24 e8 3f 08       	mov    0x83fe824,%eax
 804c9ec:	ba 87 ff ff ff       	mov    $0xffffff87,%edx
 804c9f1:	c7 05 70 e8 5f 08 4b 	movl   $0xcc00014b,0x85fe870
 804c9f8:	01 00 cc 
 804c9fb:	a3 e0 e6 1f 08       	mov    %eax,0x81fe6e0
 804ca00:	89 15 e4 e6 1f 08    	mov    %edx,0x81fe6e4
 804ca06:	c7 05 70 e8 5f 08 4c 	movl   $0xcc00014c,0x85fe870
 804ca0d:	01 00 cc 
 804ca10:	b8 00 00 00 00       	mov    $0x0,%eax
 804ca15:	b9 00 00 00 00       	mov    $0x0,%ecx
 804ca1a:	c7 05 f0 e6 1f 08 00 	movl   $0x0,0x81fe6f0
 804ca21:	00 00 00 
 804ca24:	c7 05 70 e8 5f 08 4d 	movl   $0xcc00014d,0x85fe870
 804ca2b:	01 00 cc 
 804ca2e:	66 a1 e0 e6 1f 08    	mov    0x81fe6e0,%ax
 804ca34:	66 8b 0d e4 e6 1f 08 	mov    0x81fe6e4,%cx
 804ca3b:	8b 14 85 20 96 06 08 	mov    0x8069620(,%eax,4),%edx
 804ca42:	8b 14 8a             	mov    (%edx,%ecx,4),%edx
 804ca45:	66 8b 0d f2 e6 1f 08 	mov    0x81fe6f2,%cx
 804ca4c:	8b 14 95 20 96 06 08 	mov    0x8069620(,%edx,4),%edx
 804ca53:	8b 14 8a             	mov    (%edx,%ecx,4),%edx
 804ca56:	66 89 15 e8 e6 1f 08 	mov    %dx,0x81fe6e8
 804ca5d:	89 15 f0 e6 1f 08    	mov    %edx,0x81fe6f0
 804ca63:	c7 05 70 e8 5f 08 4e 	movl   $0xcc00014e,0x85fe870
 804ca6a:	01 00 cc 
 804ca6d:	66 a1 e2 e6 1f 08    	mov    0x81fe6e2,%ax
 804ca73:	66 8b 0d e6 e6 1f 08 	mov    0x81fe6e6,%cx
 804ca7a:	8b 14 85 20 96 06 08 	mov    0x8069620(,%eax,4),%edx
 804ca81:	8b 14 8a             	mov    (%edx,%ecx,4),%edx
 804ca84:	66 8b 0d f2 e6 1f 08 	mov    0x81fe6f2,%cx
 804ca8b:	8b 14 95 20 96 06 08 	mov    0x8069620(,%edx,4),%edx
 804ca92:	8b 14 8a             	mov    (%edx,%ecx,4),%edx
 804ca95:	66 89 15 ea e6 1f 08 	mov    %dx,0x81fe6ea
 804ca9c:	89 15 f0 e6 1f 08    	mov    %edx,0x81fe6f0
 804caa2:	a1 e8 e6 1f 08       	mov    0x81fe6e8,%eax
 804caa7:	a3 44 57 05 08       	mov    %eax,0x8055744
 804caac:	c7 05 70 e8 5f 08 4f 	movl   $0xcc00014f,0x85fe870
 804cab3:	01 00 cc 
 804cab6:	a1 44 57 05 08       	mov    0x8055744,%eax
 804cabb:	8b 15 48 e8 3f 08    	mov    0x83fe848,%edx
 804cac1:	c7 05 70 e8 5f 08 50 	movl   $0xcc000150,0x85fe870
 804cac8:	01 00 cc 
 804cacb:	a3 64 e8 3f 08       	mov    %eax,0x83fe864
 804cad0:	8b 04 95 60 e8 3f 08 	mov    0x83fe860(,%edx,4),%eax
 804cad7:	ba 00 00 00 00       	mov    $0x0,%edx
 804cadc:	8a 10                	mov    (%eax),%dl
 804cade:	89 15 40 57 05 08    	mov    %edx,0x8055740
 804cae4:	c7 05 70 e8 5f 08 51 	movl   $0xcc000151,0x85fe870
 804caeb:	01 00 cc 
 804caee:	ba 00 00 00 00       	mov    $0x0,%edx
 804caf3:	8a 15 40 57 05 08    	mov    0x8055740,%dl
 804caf9:	8b 14 95 60 e2 1f 08 	mov    0x81fe260(,%edx,4),%edx
 804cb00:	89 15 44 57 05 08    	mov    %edx,0x8055744
 804cb06:	c7 05 40 57 05 08 04 	movl   $0x4,0x8055740
 804cb0d:	00 00 00 
 804cb10:	c7 05 70 e8 5f 08 52 	movl   $0xcc000152,0x85fe870
 804cb17:	01 00 cc 
 804cb1a:	a1 44 57 05 08       	mov    0x8055744,%eax
 804cb1f:	8b 15 40 57 05 08    	mov    0x8055740,%edx
 804cb25:	c7 05 70 e8 5f 08 53 	movl   $0xcc000153,0x85fe870
 804cb2c:	01 00 cc 
 804cb2f:	a3 e0 e6 1f 08       	mov    %eax,0x81fe6e0
 804cb34:	89 15 e4 e6 1f 08    	mov    %edx,0x81fe6e4
 804cb3a:	c7 05 70 e8 5f 08 54 	movl   $0xcc000154,0x85fe870
 804cb41:	01 00 cc 
 804cb44:	b8 00 00 00 00       	mov    $0x0,%eax
 804cb49:	b9 00 00 00 00       	mov    $0x0,%ecx
 804cb4e:	c7 05 f0 e6 1f 08 00 	movl   $0x0,0x81fe6f0
 804cb55:	00 00 00 
 804cb58:	c7 05 70 e8 5f 08 55 	movl   $0xcc000155,0x85fe870
 804cb5f:	01 00 cc 
 804cb62:	66 a1 e0 e6 1f 08    	mov    0x81fe6e0,%ax
 804cb68:	66 8b 0d e4 e6 1f 08 	mov    0x81fe6e4,%cx
 804cb6f:	8b 14 85 20 96 06 08 	mov    0x8069620(,%eax,4),%edx
 804cb76:	8b 14 8a             	mov    (%edx,%ecx,4),%edx
 804cb79:	66 8b 0d f2 e6 1f 08 	mov    0x81fe6f2,%cx
 804cb80:	8b 14 95 20 96 06 08 	mov    0x8069620(,%edx,4),%edx
 804cb87:	8b 14 8a             	mov    (%edx,%ecx,4),%edx
 804cb8a:	66 89 15 e8 e6 1f 08 	mov    %dx,0x81fe6e8
 804cb91:	89 15 f0 e6 1f 08    	mov    %edx,0x81fe6f0
 804cb97:	c7 05 70 e8 5f 08 56 	movl   $0xcc000156,0x85fe870
 804cb9e:	01 00 cc 
 804cba1:	66 a1 e2 e6 1f 08    	mov    0x81fe6e2,%ax
 804cba7:	66 8b 0d e6 e6 1f 08 	mov    0x81fe6e6,%cx
 804cbae:	8b 14 85 20 96 06 08 	mov    0x8069620(,%eax,4),%edx
 804cbb5:	8b 14 8a             	mov    (%edx,%ecx,4),%edx
 804cbb8:	66 8b 0d f2 e6 1f 08 	mov    0x81fe6f2,%cx
 804cbbf:	8b 14 95 20 96 06 08 	mov    0x8069620(,%edx,4),%edx
 804cbc6:	8b 14 8a             	mov    (%edx,%ecx,4),%edx
 804cbc9:	66 89 15 ea e6 1f 08 	mov    %dx,0x81fe6ea
 804cbd0:	89 15 f0 e6 1f 08    	mov    %edx,0x81fe6f0
 804cbd6:	a1 e8 e6 1f 08       	mov    0x81fe6e8,%eax
 804cbdb:	a3 44 57 05 08       	mov    %eax,0x8055744
 804cbe0:	c7 05 70 e8 5f 08 57 	movl   $0xcc000157,0x85fe870
 804cbe7:	01 00 cc 
 804cbea:	a1 24 e8 3f 08       	mov    0x83fe824,%eax
 804cbef:	8b 80 98 ff df ff    	mov    -0x200068(%eax),%eax
 804cbf5:	8b 80 98 ff df ff    	mov    -0x200068(%eax),%eax
 804cbfb:	8b 80 98 ff df ff    	mov    -0x200068(%eax),%eax
 804cc01:	8b 80 98 ff df ff    	mov    -0x200068(%eax),%eax
 804cc07:	8b 80 98 ff df ff    	mov    -0x200068(%eax),%eax
 804cc0d:	8b 80 98 ff df ff    	mov    -0x200068(%eax),%eax
 804cc13:	8b 80 98 ff df ff    	mov    -0x200068(%eax),%eax
 804cc19:	8b 80 98 ff df ff    	mov    -0x200068(%eax),%eax
 804cc1f:	8b 80 98 ff df ff    	mov    -0x200068(%eax),%eax
 804cc25:	8b 80 98 ff df ff    	mov    -0x200068(%eax),%eax
 804cc2b:	8b 80 98 ff df ff    	mov    -0x200068(%eax),%eax
 804cc31:	8b 80 98 ff df ff    	mov    -0x200068(%eax),%eax
 804cc37:	8b 80 98 ff df ff    	mov    -0x200068(%eax),%eax
 804cc3d:	8b 80 98 ff df ff    	mov    -0x200068(%eax),%eax
 804cc43:	8b 80 98 ff df ff    	mov    -0x200068(%eax),%eax
 804cc49:	8b 80 98 ff df ff    	mov    -0x200068(%eax),%eax
 804cc4f:	8b 80 98 ff df ff    	mov    -0x200068(%eax),%eax
 804cc55:	8b 80 98 ff df ff    	mov    -0x200068(%eax),%eax
 804cc5b:	8b 80 98 ff df ff    	mov    -0x200068(%eax),%eax
 804cc61:	8b 80 98 ff df ff    	mov    -0x200068(%eax),%eax
 804cc67:	8b 80 98 ff df ff    	mov    -0x200068(%eax),%eax
 804cc6d:	8b 80 98 ff df ff    	mov    -0x200068(%eax),%eax
 804cc73:	8b 80 98 ff df ff    	mov    -0x200068(%eax),%eax
 804cc79:	8b 80 98 ff df ff    	mov    -0x200068(%eax),%eax
 804cc7f:	8b 80 98 ff df ff    	mov    -0x200068(%eax),%eax
 804cc85:	8b 80 98 ff df ff    	mov    -0x200068(%eax),%eax
 804cc8b:	8b 80 98 ff df ff    	mov    -0x200068(%eax),%eax
 804cc91:	8b 80 98 ff df ff    	mov    -0x200068(%eax),%eax
 804cc97:	8b 80 98 ff df ff    	mov    -0x200068(%eax),%eax
 804cc9d:	8b 80 98 ff df ff    	mov    -0x200068(%eax),%eax
 804cca3:	8b 80 98 ff df ff    	mov    -0x200068(%eax),%eax
 804cca9:	8b 80 98 ff df ff    	mov    -0x200068(%eax),%eax
 804ccaf:	8b 80 98 ff df ff    	mov    -0x200068(%eax),%eax
 804ccb5:	8b 80 98 ff df ff    	mov    -0x200068(%eax),%eax
 804ccbb:	8b 80 98 ff df ff    	mov    -0x200068(%eax),%eax
 804ccc1:	8b 80 98 ff df ff    	mov    -0x200068(%eax),%eax
 804ccc7:	a3 40 57 05 08       	mov    %eax,0x8055740
 804cccc:	c7 05 70 e8 5f 08 58 	movl   $0xcc000158,0x85fe870
 804ccd3:	01 00 cc 
 804ccd6:	a1 40 57 05 08       	mov    0x8055740,%eax
 804ccdb:	8b 15 48 e8 3f 08    	mov    0x83fe848,%edx
 804cce1:	c7 05 70 e8 5f 08 59 	movl   $0xcc000159,0x85fe870
 804cce8:	01 00 cc 
 804cceb:	a3 64 e8 3f 08       	mov    %eax,0x83fe864
 804ccf0:	8b 04 95 60 e8 3f 08 	mov    0x83fe860(,%edx,4),%eax
 804ccf7:	8b 00                	mov    (%eax),%eax
 804ccf9:	a3 40 57 05 08       	mov    %eax,0x8055740
 804ccfe:	c7 05 70 e8 5f 08 5a 	movl   $0xcc00015a,0x85fe870
 804cd05:	01 00 cc 
 804cd08:	a1 44 57 05 08       	mov    0x8055744,%eax
 804cd0d:	8b 15 40 57 05 08    	mov    0x8055740,%edx
 804cd13:	c7 05 70 e8 5f 08 5b 	movl   $0xcc00015b,0x85fe870
 804cd1a:	01 00 cc 
 804cd1d:	a3 e0 e6 1f 08       	mov    %eax,0x81fe6e0
 804cd22:	89 15 e4 e6 1f 08    	mov    %edx,0x81fe6e4
 804cd28:	c7 05 70 e8 5f 08 5c 	movl   $0xcc00015c,0x85fe870
 804cd2f:	01 00 cc 
 804cd32:	b8 00 00 00 00       	mov    $0x0,%eax
 804cd37:	b9 00 00 00 00       	mov    $0x0,%ecx
 804cd3c:	c7 05 f0 e6 1f 08 01 	movl   $0x1,0x81fe6f0
 804cd43:	00 00 00 
 804cd46:	c7 05 70 e8 5f 08 5d 	movl   $0xcc00015d,0x85fe870
 804cd4d:	01 00 cc 
 804cd50:	66 a1 e0 e6 1f 08    	mov    0x81fe6e0,%ax
 804cd56:	66 8b 0d e4 e6 1f 08 	mov    0x81fe6e4,%cx
 804cd5d:	66 8b 0c 4d 40 97 16 	mov    0x8169740(,%ecx,2),%cx
 804cd64:	08 
 804cd65:	8b 14 85 20 96 06 08 	mov    0x8069620(,%eax,4),%edx
 804cd6c:	8b 14 8a             	mov    (%edx,%ecx,4),%edx
 804cd6f:	8b 14 95 20 96 06 08 	mov    0x8069620(,%edx,4),%edx
 804cd76:	8b 0d f0 e6 1f 08    	mov    0x81fe6f0,%ecx
 804cd7c:	8b 14 8a             	mov    (%edx,%ecx,4),%edx
 804cd7f:	66 89 15 e8 e6 1f 08 	mov    %dx,0x81fe6e8
 804cd86:	89 15 ee e6 1f 08    	mov    %edx,0x81fe6ee
 804cd8c:	c7 05 70 e8 5f 08 5e 	movl   $0xcc00015e,0x85fe870
 804cd93:	01 00 cc 
 804cd96:	66 a1 e2 e6 1f 08    	mov    0x81fe6e2,%ax
 804cd9c:	66 8b 0d e6 e6 1f 08 	mov    0x81fe6e6,%cx
 804cda3:	66 8b 0c 4d 40 97 16 	mov    0x8169740(,%ecx,2),%cx
 804cdaa:	08 
 804cdab:	8b 14 85 20 96 06 08 	mov    0x8069620(,%eax,4),%edx
 804cdb2:	8b 14 8a             	mov    (%edx,%ecx,4),%edx
 804cdb5:	8b 14 95 20 96 06 08 	mov    0x8069620(,%edx,4),%edx
 804cdbc:	8b 0d f0 e6 1f 08    	mov    0x81fe6f0,%ecx
 804cdc2:	8b 14 8a             	mov    (%edx,%ecx,4),%edx
 804cdc5:	66 89 15 ea e6 1f 08 	mov    %dx,0x81fe6ea
 804cdcc:	89 15 ee e6 1f 08    	mov    %edx,0x81fe6ee
 804cdd2:	a1 e8 e6 1f 08       	mov    0x81fe6e8,%eax
 804cdd7:	a3 44 57 05 08       	mov    %eax,0x8055744
 804cddc:	c7 05 70 e8 5f 08 5f 	movl   $0xcc00015f,0x85fe870
 804cde3:	01 00 cc 
 804cde6:	a1 48 57 05 08       	mov    0x8055748,%eax
 804cdeb:	8b 15 44 57 05 08    	mov    0x8055744,%edx
 804cdf1:	c7 05 70 e8 5f 08 60 	movl   $0xcc000160,0x85fe870
 804cdf8:	01 00 cc 
 804cdfb:	a3 e0 e6 1f 08       	mov    %eax,0x81fe6e0
 804ce00:	89 15 e4 e6 1f 08    	mov    %edx,0x81fe6e4
 804ce06:	c7 05 70 e8 5f 08 61 	movl   $0xcc000161,0x85fe870
 804ce0d:	01 00 cc 
 804ce10:	c7 05 70 e8 5f 08 62 	movl   $0xcc000162,0x85fe870
 804ce17:	01 00 cc 
 804ce1a:	b8 00 00 00 00       	mov    $0x0,%eax
 804ce1f:	ba 00 00 00 00       	mov    $0x0,%edx
 804ce24:	a0 e0 e6 1f 08       	mov    0x81fe6e0,%al
 804ce29:	8a 15 e4 e6 1f 08    	mov    0x81fe6e4,%dl
 804ce2f:	8b 04 85 60 9c 19 08 	mov    0x8199c60(,%eax,4),%eax
 804ce36:	8a 04 10             	mov    (%eax,%edx,1),%al
 804ce39:	a2 e8 e6 1f 08       	mov    %al,0x81fe6e8
 804ce3e:	c7 05 70 e8 5f 08 63 	movl   $0xcc000163,0x85fe870
 804ce45:	01 00 cc 
 804ce48:	b8 00 00 00 00       	mov    $0x0,%eax
 804ce4d:	ba 00 00 00 00       	mov    $0x0,%edx
 804ce52:	a0 e1 e6 1f 08       	mov    0x81fe6e1,%al
 804ce57:	8a 15 e5 e6 1f 08    	mov    0x81fe6e5,%dl
 804ce5d:	8b 04 85 60 9c 19 08 	mov    0x8199c60(,%eax,4),%eax
 804ce64:	8a 04 10             	mov    (%eax,%edx,1),%al
 804ce67:	a2 e9 e6 1f 08       	mov    %al,0x81fe6e9
 804ce6c:	c7 05 70 e8 5f 08 64 	movl   $0xcc000164,0x85fe870
 804ce73:	01 00 cc 
 804ce76:	b8 00 00 00 00       	mov    $0x0,%eax
 804ce7b:	ba 00 00 00 00       	mov    $0x0,%edx
 804ce80:	a0 e2 e6 1f 08       	mov    0x81fe6e2,%al
 804ce85:	8a 15 e6 e6 1f 08    	mov    0x81fe6e6,%dl
 804ce8b:	8b 04 85 60 9c 19 08 	mov    0x8199c60(,%eax,4),%eax
 804ce92:	8a 04 10             	mov    (%eax,%edx,1),%al
 804ce95:	a2 ea e6 1f 08       	mov    %al,0x81fe6ea
 804ce9a:	c7 05 70 e8 5f 08 65 	movl   $0xcc000165,0x85fe870
 804cea1:	01 00 cc 
 804cea4:	b8 00 00 00 00       	mov    $0x0,%eax
 804cea9:	ba 00 00 00 00       	mov    $0x0,%edx
 804ceae:	a0 e3 e6 1f 08       	mov    0x81fe6e3,%al
 804ceb3:	8a 15 e7 e6 1f 08    	mov    0x81fe6e7,%dl
 804ceb9:	8b 04 85 60 9c 19 08 	mov    0x8199c60(,%eax,4),%eax
 804cec0:	8a 04 10             	mov    (%eax,%edx,1),%al
 804cec3:	a2 eb e6 1f 08       	mov    %al,0x81fe6eb
 804cec8:	a1 e8 e6 1f 08       	mov    0x81fe6e8,%eax
 804cecd:	a3 48 57 05 08       	mov    %eax,0x8055748
 804ced2:	c7 05 70 e8 5f 08 66 	movl   $0xcc000166,0x85fe870
 804ced9:	01 00 cc 
 804cedc:	a1 24 e8 3f 08       	mov    0x83fe824,%eax
 804cee1:	8b 80 98 ff df ff    	mov    -0x200068(%eax),%eax
 804cee7:	8b 80 98 ff df ff    	mov    -0x200068(%eax),%eax
 804ceed:	8b 80 98 ff df ff    	mov    -0x200068(%eax),%eax
 804cef3:	8b 80 98 ff df ff    	mov    -0x200068(%eax),%eax
 804cef9:	8b 80 98 ff df ff    	mov    -0x200068(%eax),%eax
 804ceff:	8b 80 98 ff df ff    	mov    -0x200068(%eax),%eax
 804cf05:	8b 80 98 ff df ff    	mov    -0x200068(%eax),%eax
 804cf0b:	8b 80 98 ff df ff    	mov    -0x200068(%eax),%eax
 804cf11:	8b 80 98 ff df ff    	mov    -0x200068(%eax),%eax
 804cf17:	8b 80 98 ff df ff    	mov    -0x200068(%eax),%eax
 804cf1d:	8b 80 98 ff df ff    	mov    -0x200068(%eax),%eax
 804cf23:	8b 80 98 ff df ff    	mov    -0x200068(%eax),%eax
 804cf29:	8b 80 98 ff df ff    	mov    -0x200068(%eax),%eax
 804cf2f:	8b 80 98 ff df ff    	mov    -0x200068(%eax),%eax
 804cf35:	8b 80 98 ff df ff    	mov    -0x200068(%eax),%eax
 804cf3b:	8b 80 98 ff df ff    	mov    -0x200068(%eax),%eax
 804cf41:	8b 80 98 ff df ff    	mov    -0x200068(%eax),%eax
 804cf47:	8b 80 98 ff df ff    	mov    -0x200068(%eax),%eax
 804cf4d:	8b 80 98 ff df ff    	mov    -0x200068(%eax),%eax
 804cf53:	8b 80 98 ff df ff    	mov    -0x200068(%eax),%eax
 804cf59:	8b 80 98 ff df ff    	mov    -0x200068(%eax),%eax
 804cf5f:	8b 80 98 ff df ff    	mov    -0x200068(%eax),%eax
 804cf65:	8b 80 98 ff df ff    	mov    -0x200068(%eax),%eax
 804cf6b:	8b 80 98 ff df ff    	mov    -0x200068(%eax),%eax
 804cf71:	8b 80 98 ff df ff    	mov    -0x200068(%eax),%eax
 804cf77:	8b 80 98 ff df ff    	mov    -0x200068(%eax),%eax
 804cf7d:	8b 80 98 ff df ff    	mov    -0x200068(%eax),%eax
 804cf83:	8b 80 98 ff df ff    	mov    -0x200068(%eax),%eax
 804cf89:	8b 80 98 ff df ff    	mov    -0x200068(%eax),%eax
 804cf8f:	8b 80 98 ff df ff    	mov    -0x200068(%eax),%eax
 804cf95:	a3 44 57 05 08       	mov    %eax,0x8055744
 804cf9a:	c7 05 70 e8 5f 08 67 	movl   $0xcc000167,0x85fe870
 804cfa1:	01 00 cc 
 804cfa4:	a1 44 57 05 08       	mov    0x8055744,%eax
 804cfa9:	8b 15 48 e8 3f 08    	mov    0x83fe848,%edx
 804cfaf:	c7 05 70 e8 5f 08 68 	movl   $0xcc000168,0x85fe870
 804cfb6:	01 00 cc 
 804cfb9:	a3 64 e8 3f 08       	mov    %eax,0x83fe864
 804cfbe:	8b 04 95 60 e8 3f 08 	mov    0x83fe860(,%edx,4),%eax
 804cfc5:	ba 00 00 00 00       	mov    $0x0,%edx
 804cfca:	8a 10                	mov    (%eax),%dl
 804cfcc:	89 15 40 57 05 08    	mov    %edx,0x8055740
 804cfd2:	c7 05 70 e8 5f 08 69 	movl   $0xcc000169,0x85fe870
 804cfd9:	01 00 cc 
 804cfdc:	ba 00 00 00 00       	mov    $0x0,%edx
 804cfe1:	8a 15 40 57 05 08    	mov    0x8055740,%dl
 804cfe7:	8b 14 95 60 e2 1f 08 	mov    0x81fe260(,%edx,4),%edx
 804cfee:	89 15 44 57 05 08    	mov    %edx,0x8055744
 804cff4:	c7 05 40 57 05 08 0e 	movl   $0xe,0x8055740
 804cffb:	00 00 00 
 804cffe:	c7 05 70 e8 5f 08 6a 	movl   $0xcc00016a,0x85fe870
 804d005:	01 00 cc 
 804d008:	a1 44 57 05 08       	mov    0x8055744,%eax
 804d00d:	8b 15 40 57 05 08    	mov    0x8055740,%edx
 804d013:	c7 05 70 e8 5f 08 6b 	movl   $0xcc00016b,0x85fe870
 804d01a:	01 00 cc 
 804d01d:	a3 e0 e6 1f 08       	mov    %eax,0x81fe6e0
 804d022:	89 15 e4 e6 1f 08    	mov    %edx,0x81fe6e4
 804d028:	c7 05 70 e8 5f 08 6c 	movl   $0xcc00016c,0x85fe870
 804d02f:	01 00 cc 
 804d032:	b8 00 00 00 00       	mov    $0x0,%eax
 804d037:	b9 00 00 00 00       	mov    $0x0,%ecx
 804d03c:	c7 05 f0 e6 1f 08 00 	movl   $0x0,0x81fe6f0
 804d043:	00 00 00 
 804d046:	c7 05 70 e8 5f 08 6d 	movl   $0xcc00016d,0x85fe870
 804d04d:	01 00 cc 
 804d050:	66 a1 e0 e6 1f 08    	mov    0x81fe6e0,%ax
 804d056:	66 8b 0d e4 e6 1f 08 	mov    0x81fe6e4,%cx
 804d05d:	8b 14 85 20 96 06 08 	mov    0x8069620(,%eax,4),%edx
 804d064:	8b 14 8a             	mov    (%edx,%ecx,4),%edx
 804d067:	66 8b 0d f2 e6 1f 08 	mov    0x81fe6f2,%cx
 804d06e:	8b 14 95 20 96 06 08 	mov    0x8069620(,%edx,4),%edx
 804d075:	8b 14 8a             	mov    (%edx,%ecx,4),%edx
 804d078:	66 89 15 e8 e6 1f 08 	mov    %dx,0x81fe6e8
 804d07f:	89 15 f0 e6 1f 08    	mov    %edx,0x81fe6f0
 804d085:	c7 05 70 e8 5f 08 6e 	movl   $0xcc00016e,0x85fe870
 804d08c:	01 00 cc 
 804d08f:	66 a1 e2 e6 1f 08    	mov    0x81fe6e2,%ax
 804d095:	66 8b 0d e6 e6 1f 08 	mov    0x81fe6e6,%cx
 804d09c:	8b 14 85 20 96 06 08 	mov    0x8069620(,%eax,4),%edx
 804d0a3:	8b 14 8a             	mov    (%edx,%ecx,4),%edx
 804d0a6:	66 8b 0d f2 e6 1f 08 	mov    0x81fe6f2,%cx
 804d0ad:	8b 14 95 20 96 06 08 	mov    0x8069620(,%edx,4),%edx
 804d0b4:	8b 14 8a             	mov    (%edx,%ecx,4),%edx
 804d0b7:	66 89 15 ea e6 1f 08 	mov    %dx,0x81fe6ea
 804d0be:	89 15 f0 e6 1f 08    	mov    %edx,0x81fe6f0
 804d0c4:	a1 e8 e6 1f 08       	mov    0x81fe6e8,%eax
 804d0c9:	a3 44 57 05 08       	mov    %eax,0x8055744
 804d0ce:	c7 05 70 e8 5f 08 6f 	movl   $0xcc00016f,0x85fe870
 804d0d5:	01 00 cc 
 804d0d8:	a1 24 e8 3f 08       	mov    0x83fe824,%eax
 804d0dd:	8b 80 98 ff df ff    	mov    -0x200068(%eax),%eax
 804d0e3:	8b 80 98 ff df ff    	mov    -0x200068(%eax),%eax
 804d0e9:	8b 80 98 ff df ff    	mov    -0x200068(%eax),%eax
 804d0ef:	8b 80 98 ff df ff    	mov    -0x200068(%eax),%eax
 804d0f5:	8b 80 98 ff df ff    	mov    -0x200068(%eax),%eax
 804d0fb:	8b 80 98 ff df ff    	mov    -0x200068(%eax),%eax
 804d101:	8b 80 98 ff df ff    	mov    -0x200068(%eax),%eax
 804d107:	8b 80 98 ff df ff    	mov    -0x200068(%eax),%eax
 804d10d:	8b 80 98 ff df ff    	mov    -0x200068(%eax),%eax
 804d113:	8b 80 98 ff df ff    	mov    -0x200068(%eax),%eax
 804d119:	8b 80 98 ff df ff    	mov    -0x200068(%eax),%eax
 804d11f:	8b 80 98 ff df ff    	mov    -0x200068(%eax),%eax
 804d125:	8b 80 98 ff df ff    	mov    -0x200068(%eax),%eax
 804d12b:	8b 80 98 ff df ff    	mov    -0x200068(%eax),%eax
 804d131:	8b 80 98 ff df ff    	mov    -0x200068(%eax),%eax
 804d137:	8b 80 98 ff df ff    	mov    -0x200068(%eax),%eax
 804d13d:	8b 80 98 ff df ff    	mov    -0x200068(%eax),%eax
 804d143:	8b 80 98 ff df ff    	mov    -0x200068(%eax),%eax
 804d149:	8b 80 98 ff df ff    	mov    -0x200068(%eax),%eax
 804d14f:	8b 80 98 ff df ff    	mov    -0x200068(%eax),%eax
 804d155:	8b 80 98 ff df ff    	mov    -0x200068(%eax),%eax
 804d15b:	8b 80 98 ff df ff    	mov    -0x200068(%eax),%eax
 804d161:	8b 80 98 ff df ff    	mov    -0x200068(%eax),%eax
 804d167:	8b 80 98 ff df ff    	mov    -0x200068(%eax),%eax
 804d16d:	8b 80 98 ff df ff    	mov    -0x200068(%eax),%eax
 804d173:	8b 80 98 ff df ff    	mov    -0x200068(%eax),%eax
 804d179:	8b 80 98 ff df ff    	mov    -0x200068(%eax),%eax
 804d17f:	8b 80 98 ff df ff    	mov    -0x200068(%eax),%eax
 804d185:	8b 80 98 ff df ff    	mov    -0x200068(%eax),%eax
 804d18b:	8b 80 98 ff df ff    	mov    -0x200068(%eax),%eax
 804d191:	8b 80 98 ff df ff    	mov    -0x200068(%eax),%eax
 804d197:	8b 80 98 ff df ff    	mov    -0x200068(%eax),%eax
 804d19d:	8b 80 98 ff df ff    	mov    -0x200068(%eax),%eax
 804d1a3:	8b 80 98 ff df ff    	mov    -0x200068(%eax),%eax
 804d1a9:	a3 40 57 05 08       	mov    %eax,0x8055740
 804d1ae:	c7 05 70 e8 5f 08 70 	movl   $0xcc000170,0x85fe870
 804d1b5:	01 00 cc 
 804d1b8:	a1 40 57 05 08       	mov    0x8055740,%eax
 804d1bd:	8b 15 48 e8 3f 08    	mov    0x83fe848,%edx
 804d1c3:	c7 05 70 e8 5f 08 71 	movl   $0xcc000171,0x85fe870
 804d1ca:	01 00 cc 
 804d1cd:	a3 64 e8 3f 08       	mov    %eax,0x83fe864
 804d1d2:	8b 04 95 60 e8 3f 08 	mov    0x83fe860(,%edx,4),%eax
 804d1d9:	8b 00                	mov    (%eax),%eax
 804d1db:	a3 40 57 05 08       	mov    %eax,0x8055740
 804d1e0:	c7 05 70 e8 5f 08 72 	movl   $0xcc000172,0x85fe870
 804d1e7:	01 00 cc 
 804d1ea:	a1 44 57 05 08       	mov    0x8055744,%eax
 804d1ef:	8b 15 40 57 05 08    	mov    0x8055740,%edx
 804d1f5:	c7 05 70 e8 5f 08 73 	movl   $0xcc000173,0x85fe870
 804d1fc:	01 00 cc 
 804d1ff:	a3 e0 e6 1f 08       	mov    %eax,0x81fe6e0
 804d204:	89 15 e4 e6 1f 08    	mov    %edx,0x81fe6e4
 804d20a:	c7 05 70 e8 5f 08 74 	movl   $0xcc000174,0x85fe870
 804d211:	01 00 cc 
 804d214:	c7 05 70 e8 5f 08 75 	movl   $0xcc000175,0x85fe870
 804d21b:	01 00 cc 
 804d21e:	b8 00 00 00 00       	mov    $0x0,%eax
 804d223:	ba 00 00 00 00       	mov    $0x0,%edx
 804d228:	a0 e0 e6 1f 08       	mov    0x81fe6e0,%al
 804d22d:	8a 15 e4 e6 1f 08    	mov    0x81fe6e4,%dl
 804d233:	8b 04 85 70 a1 1a 08 	mov    0x81aa170(,%eax,4),%eax
 804d23a:	8a 04 10             	mov    (%eax,%edx,1),%al
 804d23d:	a2 e8 e6 1f 08       	mov    %al,0x81fe6e8
 804d242:	c7 05 70 e8 5f 08 76 	movl   $0xcc000176,0x85fe870
 804d249:	01 00 cc 
 804d24c:	b8 00 00 00 00       	mov    $0x0,%eax
 804d251:	ba 00 00 00 00       	mov    $0x0,%edx
 804d256:	a0 e1 e6 1f 08       	mov    0x81fe6e1,%al
 804d25b:	8a 15 e5 e6 1f 08    	mov    0x81fe6e5,%dl
 804d261:	8b 04 85 70 a1 1a 08 	mov    0x81aa170(,%eax,4),%eax
 804d268:	8a 04 10             	mov    (%eax,%edx,1),%al
 804d26b:	a2 e9 e6 1f 08       	mov    %al,0x81fe6e9
 804d270:	c7 05 70 e8 5f 08 77 	movl   $0xcc000177,0x85fe870
 804d277:	01 00 cc 
 804d27a:	b8 00 00 00 00       	mov    $0x0,%eax
 804d27f:	ba 00 00 00 00       	mov    $0x0,%edx
 804d284:	a0 e2 e6 1f 08       	mov    0x81fe6e2,%al
 804d289:	8a 15 e6 e6 1f 08    	mov    0x81fe6e6,%dl
 804d28f:	8b 04 85 70 a1 1a 08 	mov    0x81aa170(,%eax,4),%eax
 804d296:	8a 04 10             	mov    (%eax,%edx,1),%al
 804d299:	a2 ea e6 1f 08       	mov    %al,0x81fe6ea
 804d29e:	c7 05 70 e8 5f 08 78 	movl   $0xcc000178,0x85fe870
 804d2a5:	01 00 cc 
 804d2a8:	b8 00 00 00 00       	mov    $0x0,%eax
 804d2ad:	ba 00 00 00 00       	mov    $0x0,%edx
 804d2b2:	a0 e3 e6 1f 08       	mov    0x81fe6e3,%al
 804d2b7:	8a 15 e7 e6 1f 08    	mov    0x81fe6e7,%dl
 804d2bd:	8b 04 85 70 a1 1a 08 	mov    0x81aa170(,%eax,4),%eax
 804d2c4:	8a 04 10             	mov    (%eax,%edx,1),%al
 804d2c7:	a2 eb e6 1f 08       	mov    %al,0x81fe6eb
 804d2cc:	a1 e8 e6 1f 08       	mov    0x81fe6e8,%eax
 804d2d1:	a3 44 57 05 08       	mov    %eax,0x8055744
 804d2d6:	c7 05 70 e8 5f 08 79 	movl   $0xcc000179,0x85fe870
 804d2dd:	01 00 cc 
 804d2e0:	a1 48 57 05 08       	mov    0x8055748,%eax
 804d2e5:	8b 15 44 57 05 08    	mov    0x8055744,%edx
 804d2eb:	c7 05 70 e8 5f 08 7a 	movl   $0xcc00017a,0x85fe870
 804d2f2:	01 00 cc 
 804d2f5:	a3 e0 e6 1f 08       	mov    %eax,0x81fe6e0
 804d2fa:	89 15 e4 e6 1f 08    	mov    %edx,0x81fe6e4
 804d300:	c7 05 70 e8 5f 08 7b 	movl   $0xcc00017b,0x85fe870
 804d307:	01 00 cc 
 804d30a:	c7 05 70 e8 5f 08 7c 	movl   $0xcc00017c,0x85fe870
 804d311:	01 00 cc 
 804d314:	b8 00 00 00 00       	mov    $0x0,%eax
 804d319:	ba 00 00 00 00       	mov    $0x0,%edx
 804d31e:	a0 e0 e6 1f 08       	mov    0x81fe6e0,%al
 804d323:	8a 15 e4 e6 1f 08    	mov    0x81fe6e4,%dl
 804d329:	8b 04 85 60 9c 19 08 	mov    0x8199c60(,%eax,4),%eax
 804d330:	8a 04 10             	mov    (%eax,%edx,1),%al
 804d333:	a2 e8 e6 1f 08       	mov    %al,0x81fe6e8
 804d338:	c7 05 70 e8 5f 08 7d 	movl   $0xcc00017d,0x85fe870
 804d33f:	01 00 cc 
 804d342:	b8 00 00 00 00       	mov    $0x0,%eax
 804d347:	ba 00 00 00 00       	mov    $0x0,%edx
 804d34c:	a0 e1 e6 1f 08       	mov    0x81fe6e1,%al
 804d351:	8a 15 e5 e6 1f 08    	mov    0x81fe6e5,%dl
 804d357:	8b 04 85 60 9c 19 08 	mov    0x8199c60(,%eax,4),%eax
 804d35e:	8a 04 10             	mov    (%eax,%edx,1),%al
 804d361:	a2 e9 e6 1f 08       	mov    %al,0x81fe6e9
 804d366:	c7 05 70 e8 5f 08 7e 	movl   $0xcc00017e,0x85fe870
 804d36d:	01 00 cc 
 804d370:	b8 00 00 00 00       	mov    $0x0,%eax
 804d375:	ba 00 00 00 00       	mov    $0x0,%edx
 804d37a:	a0 e2 e6 1f 08       	mov    0x81fe6e2,%al
 804d37f:	8a 15 e6 e6 1f 08    	mov    0x81fe6e6,%dl
 804d385:	8b 04 85 60 9c 19 08 	mov    0x8199c60(,%eax,4),%eax
 804d38c:	8a 04 10             	mov    (%eax,%edx,1),%al
 804d38f:	a2 ea e6 1f 08       	mov    %al,0x81fe6ea
 804d394:	c7 05 70 e8 5f 08 7f 	movl   $0xcc00017f,0x85fe870
 804d39b:	01 00 cc 
 804d39e:	b8 00 00 00 00       	mov    $0x0,%eax
 804d3a3:	ba 00 00 00 00       	mov    $0x0,%edx
 804d3a8:	a0 e3 e6 1f 08       	mov    0x81fe6e3,%al
 804d3ad:	8a 15 e7 e6 1f 08    	mov    0x81fe6e7,%dl
 804d3b3:	8b 04 85 60 9c 19 08 	mov    0x8199c60(,%eax,4),%eax
 804d3ba:	8a 04 10             	mov    (%eax,%edx,1),%al
 804d3bd:	a2 eb e6 1f 08       	mov    %al,0x81fe6eb
 804d3c2:	a1 e8 e6 1f 08       	mov    0x81fe6e8,%eax
 804d3c7:	a3 48 57 05 08       	mov    %eax,0x8055748
 804d3cc:	c7 05 70 e8 5f 08 80 	movl   $0xcc000180,0x85fe870
 804d3d3:	01 00 cc 
 804d3d6:	a1 24 e8 3f 08       	mov    0x83fe824,%eax
 804d3db:	ba 89 ff ff ff       	mov    $0xffffff89,%edx
 804d3e0:	c7 05 70 e8 5f 08 81 	movl   $0xcc000181,0x85fe870
 804d3e7:	01 00 cc 
 804d3ea:	a3 e0 e6 1f 08       	mov    %eax,0x81fe6e0
 804d3ef:	89 15 e4 e6 1f 08    	mov    %edx,0x81fe6e4
 804d3f5:	c7 05 70 e8 5f 08 82 	movl   $0xcc000182,0x85fe870
 804d3fc:	01 00 cc 
 804d3ff:	b8 00 00 00 00       	mov    $0x0,%eax
 804d404:	b9 00 00 00 00       	mov    $0x0,%ecx
 804d409:	c7 05 f0 e6 1f 08 00 	movl   $0x0,0x81fe6f0
 804d410:	00 00 00 
 804d413:	c7 05 70 e8 5f 08 83 	movl   $0xcc000183,0x85fe870
 804d41a:	01 00 cc 
 804d41d:	66 a1 e0 e6 1f 08    	mov    0x81fe6e0,%ax
 804d423:	66 8b 0d e4 e6 1f 08 	mov    0x81fe6e4,%cx
 804d42a:	8b 14 85 20 96 06 08 	mov    0x8069620(,%eax,4),%edx
 804d431:	8b 14 8a             	mov    (%edx,%ecx,4),%edx
 804d434:	66 8b 0d f2 e6 1f 08 	mov    0x81fe6f2,%cx
 804d43b:	8b 14 95 20 96 06 08 	mov    0x8069620(,%edx,4),%edx
 804d442:	8b 14 8a             	mov    (%edx,%ecx,4),%edx
 804d445:	66 89 15 e8 e6 1f 08 	mov    %dx,0x81fe6e8
 804d44c:	89 15 f0 e6 1f 08    	mov    %edx,0x81fe6f0
 804d452:	c7 05 70 e8 5f 08 84 	movl   $0xcc000184,0x85fe870
 804d459:	01 00 cc 
 804d45c:	66 a1 e2 e6 1f 08    	mov    0x81fe6e2,%ax
 804d462:	66 8b 0d e6 e6 1f 08 	mov    0x81fe6e6,%cx
 804d469:	8b 14 85 20 96 06 08 	mov    0x8069620(,%eax,4),%edx
 804d470:	8b 14 8a             	mov    (%edx,%ecx,4),%edx
 804d473:	66 8b 0d f2 e6 1f 08 	mov    0x81fe6f2,%cx
 804d47a:	8b 14 95 20 96 06 08 	mov    0x8069620(,%edx,4),%edx
 804d481:	8b 14 8a             	mov    (%edx,%ecx,4),%edx
 804d484:	66 89 15 ea e6 1f 08 	mov    %dx,0x81fe6ea
 804d48b:	89 15 f0 e6 1f 08    	mov    %edx,0x81fe6f0
 804d491:	a1 e8 e6 1f 08       	mov    0x81fe6e8,%eax
 804d496:	a3 44 57 05 08       	mov    %eax,0x8055744
 804d49b:	c7 05 70 e8 5f 08 85 	movl   $0xcc000185,0x85fe870
 804d4a2:	01 00 cc 
 804d4a5:	a1 44 57 05 08       	mov    0x8055744,%eax
 804d4aa:	8b 15 48 e8 3f 08    	mov    0x83fe848,%edx
 804d4b0:	c7 05 70 e8 5f 08 86 	movl   $0xcc000186,0x85fe870
 804d4b7:	01 00 cc 
 804d4ba:	a3 64 e8 3f 08       	mov    %eax,0x83fe864
 804d4bf:	8b 04 95 60 e8 3f 08 	mov    0x83fe860(,%edx,4),%eax
 804d4c6:	ba 00 00 00 00       	mov    $0x0,%edx
 804d4cb:	8a 10                	mov    (%eax),%dl
 804d4cd:	89 15 40 57 05 08    	mov    %edx,0x8055740
 804d4d3:	c7 05 70 e8 5f 08 87 	movl   $0xcc000187,0x85fe870
 804d4da:	01 00 cc 
 804d4dd:	ba 00 00 00 00       	mov    $0x0,%edx
 804d4e2:	8a 15 40 57 05 08    	mov    0x8055740,%dl
 804d4e8:	8b 14 95 60 e2 1f 08 	mov    0x81fe260(,%edx,4),%edx
 804d4ef:	89 15 44 57 05 08    	mov    %edx,0x8055744
 804d4f5:	c7 05 40 57 05 08 08 	movl   $0x8,0x8055740
 804d4fc:	00 00 00 
 804d4ff:	c7 05 70 e8 5f 08 88 	movl   $0xcc000188,0x85fe870
 804d506:	01 00 cc 
 804d509:	a1 44 57 05 08       	mov    0x8055744,%eax
 804d50e:	8b 15 40 57 05 08    	mov    0x8055740,%edx
 804d514:	c7 05 70 e8 5f 08 89 	movl   $0xcc000189,0x85fe870
 804d51b:	01 00 cc 
 804d51e:	a3 e0 e6 1f 08       	mov    %eax,0x81fe6e0
 804d523:	89 15 e4 e6 1f 08    	mov    %edx,0x81fe6e4
 804d529:	c7 05 70 e8 5f 08 8a 	movl   $0xcc00018a,0x85fe870
 804d530:	01 00 cc 
 804d533:	b8 00 00 00 00       	mov    $0x0,%eax
 804d538:	b9 00 00 00 00       	mov    $0x0,%ecx
 804d53d:	c7 05 f0 e6 1f 08 01 	movl   $0x1,0x81fe6f0
 804d544:	00 00 00 
 804d547:	c7 05 70 e8 5f 08 8b 	movl   $0xcc00018b,0x85fe870
 804d54e:	01 00 cc 
 804d551:	66 a1 e0 e6 1f 08    	mov    0x81fe6e0,%ax
 804d557:	66 8b 0d e4 e6 1f 08 	mov    0x81fe6e4,%cx
 804d55e:	66 8b 0c 4d 40 97 16 	mov    0x8169740(,%ecx,2),%cx
 804d565:	08 
 804d566:	8b 14 85 20 96 06 08 	mov    0x8069620(,%eax,4),%edx
 804d56d:	8b 14 8a             	mov    (%edx,%ecx,4),%edx
 804d570:	8b 14 95 20 96 06 08 	mov    0x8069620(,%edx,4),%edx
 804d577:	8b 0d f0 e6 1f 08    	mov    0x81fe6f0,%ecx
 804d57d:	8b 14 8a             	mov    (%edx,%ecx,4),%edx
 804d580:	66 89 15 e8 e6 1f 08 	mov    %dx,0x81fe6e8
 804d587:	89 15 ee e6 1f 08    	mov    %edx,0x81fe6ee
 804d58d:	c7 05 70 e8 5f 08 8c 	movl   $0xcc00018c,0x85fe870
 804d594:	01 00 cc 
 804d597:	66 a1 e2 e6 1f 08    	mov    0x81fe6e2,%ax
 804d59d:	66 8b 0d e6 e6 1f 08 	mov    0x81fe6e6,%cx
 804d5a4:	66 8b 0c 4d 40 97 16 	mov    0x8169740(,%ecx,2),%cx
 804d5ab:	08 
 804d5ac:	8b 14 85 20 96 06 08 	mov    0x8069620(,%eax,4),%edx
 804d5b3:	8b 14 8a             	mov    (%edx,%ecx,4),%edx
 804d5b6:	8b 14 95 20 96 06 08 	mov    0x8069620(,%edx,4),%edx
 804d5bd:	8b 0d f0 e6 1f 08    	mov    0x81fe6f0,%ecx
 804d5c3:	8b 14 8a             	mov    (%edx,%ecx,4),%edx
 804d5c6:	66 89 15 ea e6 1f 08 	mov    %dx,0x81fe6ea
 804d5cd:	89 15 ee e6 1f 08    	mov    %edx,0x81fe6ee
 804d5d3:	a1 e8 e6 1f 08       	mov    0x81fe6e8,%eax
 804d5d8:	a3 44 57 05 08       	mov    %eax,0x8055744
 804d5dd:	c7 05 40 57 05 08 41 	movl   $0x41,0x8055740
 804d5e4:	00 00 00 
 804d5e7:	c7 05 70 e8 5f 08 8d 	movl   $0xcc00018d,0x85fe870
 804d5ee:	01 00 cc 
 804d5f1:	a1 44 57 05 08       	mov    0x8055744,%eax
 804d5f6:	8b 15 40 57 05 08    	mov    0x8055740,%edx
 804d5fc:	c7 05 70 e8 5f 08 8e 	movl   $0xcc00018e,0x85fe870
 804d603:	01 00 cc 
 804d606:	a3 e0 e6 1f 08       	mov    %eax,0x81fe6e0
 804d60b:	89 15 e4 e6 1f 08    	mov    %edx,0x81fe6e4
 804d611:	c7 05 70 e8 5f 08 8f 	movl   $0xcc00018f,0x85fe870
 804d618:	01 00 cc 
 804d61b:	b8 00 00 00 00       	mov    $0x0,%eax
 804d620:	b9 00 00 00 00       	mov    $0x0,%ecx
 804d625:	c7 05 f0 e6 1f 08 01 	movl   $0x1,0x81fe6f0
 804d62c:	00 00 00 
 804d62f:	c7 05 70 e8 5f 08 90 	movl   $0xcc000190,0x85fe870
 804d636:	01 00 cc 
 804d639:	66 a1 e0 e6 1f 08    	mov    0x81fe6e0,%ax
 804d63f:	66 8b 0d e4 e6 1f 08 	mov    0x81fe6e4,%cx
 804d646:	66 8b 0c 4d 40 97 16 	mov    0x8169740(,%ecx,2),%cx
 804d64d:	08 
 804d64e:	8b 14 85 20 96 06 08 	mov    0x8069620(,%eax,4),%edx
 804d655:	8b 14 8a             	mov    (%edx,%ecx,4),%edx
 804d658:	8b 14 95 20 96 06 08 	mov    0x8069620(,%edx,4),%edx
 804d65f:	8b 0d f0 e6 1f 08    	mov    0x81fe6f0,%ecx
 804d665:	8b 14 8a             	mov    (%edx,%ecx,4),%edx
 804d668:	66 89 15 e8 e6 1f 08 	mov    %dx,0x81fe6e8
 804d66f:	89 15 ee e6 1f 08    	mov    %edx,0x81fe6ee
 804d675:	c7 05 70 e8 5f 08 91 	movl   $0xcc000191,0x85fe870
 804d67c:	01 00 cc 
 804d67f:	66 a1 e2 e6 1f 08    	mov    0x81fe6e2,%ax
 804d685:	66 8b 0d e6 e6 1f 08 	mov    0x81fe6e6,%cx
 804d68c:	66 8b 0c 4d 40 97 16 	mov    0x8169740(,%ecx,2),%cx
 804d693:	08 
 804d694:	8b 14 85 20 96 06 08 	mov    0x8069620(,%eax,4),%edx
 804d69b:	8b 14 8a             	mov    (%edx,%ecx,4),%edx
 804d69e:	8b 14 95 20 96 06 08 	mov    0x8069620(,%edx,4),%edx
 804d6a5:	8b 0d f0 e6 1f 08    	mov    0x81fe6f0,%ecx
 804d6ab:	8b 14 8a             	mov    (%edx,%ecx,4),%edx
 804d6ae:	66 89 15 ea e6 1f 08 	mov    %dx,0x81fe6ea
 804d6b5:	89 15 ee e6 1f 08    	mov    %edx,0x81fe6ee
 804d6bb:	a1 e8 e6 1f 08       	mov    0x81fe6e8,%eax
 804d6c0:	a3 44 57 05 08       	mov    %eax,0x8055744
 804d6c5:	c7 05 70 e8 5f 08 92 	movl   $0xcc000192,0x85fe870
 804d6cc:	01 00 cc 
 804d6cf:	a1 48 57 05 08       	mov    0x8055748,%eax
 804d6d4:	8b 15 44 57 05 08    	mov    0x8055744,%edx
 804d6da:	c7 05 70 e8 5f 08 93 	movl   $0xcc000193,0x85fe870
 804d6e1:	01 00 cc 
 804d6e4:	a3 e0 e6 1f 08       	mov    %eax,0x81fe6e0
 804d6e9:	89 15 e4 e6 1f 08    	mov    %edx,0x81fe6e4
 804d6ef:	c7 05 70 e8 5f 08 94 	movl   $0xcc000194,0x85fe870
 804d6f6:	01 00 cc 
 804d6f9:	c7 05 70 e8 5f 08 95 	movl   $0xcc000195,0x85fe870
 804d700:	01 00 cc 
 804d703:	b8 00 00 00 00       	mov    $0x0,%eax
 804d708:	ba 00 00 00 00       	mov    $0x0,%edx
 804d70d:	a0 e0 e6 1f 08       	mov    0x81fe6e0,%al
 804d712:	8a 15 e4 e6 1f 08    	mov    0x81fe6e4,%dl
 804d718:	8b 04 85 60 9c 19 08 	mov    0x8199c60(,%eax,4),%eax
 804d71f:	8a 04 10             	mov    (%eax,%edx,1),%al
 804d722:	a2 e8 e6 1f 08       	mov    %al,0x81fe6e8
 804d727:	c7 05 70 e8 5f 08 96 	movl   $0xcc000196,0x85fe870
 804d72e:	01 00 cc 
 804d731:	b8 00 00 00 00       	mov    $0x0,%eax
 804d736:	ba 00 00 00 00       	mov    $0x0,%edx
 804d73b:	a0 e1 e6 1f 08       	mov    0x81fe6e1,%al
 804d740:	8a 15 e5 e6 1f 08    	mov    0x81fe6e5,%dl
 804d746:	8b 04 85 60 9c 19 08 	mov    0x8199c60(,%eax,4),%eax
 804d74d:	8a 04 10             	mov    (%eax,%edx,1),%al
 804d750:	a2 e9 e6 1f 08       	mov    %al,0x81fe6e9
 804d755:	c7 05 70 e8 5f 08 97 	movl   $0xcc000197,0x85fe870
 804d75c:	01 00 cc 
 804d75f:	b8 00 00 00 00       	mov    $0x0,%eax
 804d764:	ba 00 00 00 00       	mov    $0x0,%edx
 804d769:	a0 e2 e6 1f 08       	mov    0x81fe6e2,%al
 804d76e:	8a 15 e6 e6 1f 08    	mov    0x81fe6e6,%dl
 804d774:	8b 04 85 60 9c 19 08 	mov    0x8199c60(,%eax,4),%eax
 804d77b:	8a 04 10             	mov    (%eax,%edx,1),%al
 804d77e:	a2 ea e6 1f 08       	mov    %al,0x81fe6ea
 804d783:	c7 05 70 e8 5f 08 98 	movl   $0xcc000198,0x85fe870
 804d78a:	01 00 cc 
 804d78d:	b8 00 00 00 00       	mov    $0x0,%eax
 804d792:	ba 00 00 00 00       	mov    $0x0,%edx
 804d797:	a0 e3 e6 1f 08       	mov    0x81fe6e3,%al
 804d79c:	8a 15 e7 e6 1f 08    	mov    0x81fe6e7,%dl
 804d7a2:	8b 04 85 60 9c 19 08 	mov    0x8199c60(,%eax,4),%eax
 804d7a9:	8a 04 10             	mov    (%eax,%edx,1),%al
 804d7ac:	a2 eb e6 1f 08       	mov    %al,0x81fe6eb
 804d7b1:	a1 e8 e6 1f 08       	mov    0x81fe6e8,%eax
 804d7b6:	a3 48 57 05 08       	mov    %eax,0x8055748
 804d7bb:	c7 05 70 e8 5f 08 99 	movl   $0xcc000199,0x85fe870
 804d7c2:	01 00 cc 
 804d7c5:	a1 24 e8 3f 08       	mov    0x83fe824,%eax
 804d7ca:	ba 8a ff ff ff       	mov    $0xffffff8a,%edx
 804d7cf:	c7 05 70 e8 5f 08 9a 	movl   $0xcc00019a,0x85fe870
 804d7d6:	01 00 cc 
 804d7d9:	a3 e0 e6 1f 08       	mov    %eax,0x81fe6e0
 804d7de:	89 15 e4 e6 1f 08    	mov    %edx,0x81fe6e4
 804d7e4:	c7 05 70 e8 5f 08 9b 	movl   $0xcc00019b,0x85fe870
 804d7eb:	01 00 cc 
 804d7ee:	b8 00 00 00 00       	mov    $0x0,%eax
 804d7f3:	b9 00 00 00 00       	mov    $0x0,%ecx
 804d7f8:	c7 05 f0 e6 1f 08 00 	movl   $0x0,0x81fe6f0
 804d7ff:	00 00 00 
 804d802:	c7 05 70 e8 5f 08 9c 	movl   $0xcc00019c,0x85fe870
 804d809:	01 00 cc 
 804d80c:	66 a1 e0 e6 1f 08    	mov    0x81fe6e0,%ax
 804d812:	66 8b 0d e4 e6 1f 08 	mov    0x81fe6e4,%cx
 804d819:	8b 14 85 20 96 06 08 	mov    0x8069620(,%eax,4),%edx
 804d820:	8b 14 8a             	mov    (%edx,%ecx,4),%edx
 804d823:	66 8b 0d f2 e6 1f 08 	mov    0x81fe6f2,%cx
 804d82a:	8b 14 95 20 96 06 08 	mov    0x8069620(,%edx,4),%edx
 804d831:	8b 14 8a             	mov    (%edx,%ecx,4),%edx
 804d834:	66 89 15 e8 e6 1f 08 	mov    %dx,0x81fe6e8
 804d83b:	89 15 f0 e6 1f 08    	mov    %edx,0x81fe6f0
 804d841:	c7 05 70 e8 5f 08 9d 	movl   $0xcc00019d,0x85fe870
 804d848:	01 00 cc 
 804d84b:	66 a1 e2 e6 1f 08    	mov    0x81fe6e2,%ax
 804d851:	66 8b 0d e6 e6 1f 08 	mov    0x81fe6e6,%cx
 804d858:	8b 14 85 20 96 06 08 	mov    0x8069620(,%eax,4),%edx
 804d85f:	8b 14 8a             	mov    (%edx,%ecx,4),%edx
 804d862:	66 8b 0d f2 e6 1f 08 	mov    0x81fe6f2,%cx
 804d869:	8b 14 95 20 96 06 08 	mov    0x8069620(,%edx,4),%edx
 804d870:	8b 14 8a             	mov    (%edx,%ecx,4),%edx
 804d873:	66 89 15 ea e6 1f 08 	mov    %dx,0x81fe6ea
 804d87a:	89 15 f0 e6 1f 08    	mov    %edx,0x81fe6f0
 804d880:	a1 e8 e6 1f 08       	mov    0x81fe6e8,%eax
 804d885:	a3 44 57 05 08       	mov    %eax,0x8055744
 804d88a:	c7 05 70 e8 5f 08 9e 	movl   $0xcc00019e,0x85fe870
 804d891:	01 00 cc 
 804d894:	a1 44 57 05 08       	mov    0x8055744,%eax
 804d899:	8b 15 48 e8 3f 08    	mov    0x83fe848,%edx
 804d89f:	c7 05 70 e8 5f 08 9f 	movl   $0xcc00019f,0x85fe870
 804d8a6:	01 00 cc 
 804d8a9:	a3 64 e8 3f 08       	mov    %eax,0x83fe864
 804d8ae:	8b 04 95 60 e8 3f 08 	mov    0x83fe860(,%edx,4),%eax
 804d8b5:	ba 00 00 00 00       	mov    $0x0,%edx
 804d8ba:	8a 10                	mov    (%eax),%dl
 804d8bc:	89 15 40 57 05 08    	mov    %edx,0x8055740
 804d8c2:	c7 05 70 e8 5f 08 a0 	movl   $0xcc0001a0,0x85fe870
 804d8c9:	01 00 cc 
 804d8cc:	ba 00 00 00 00       	mov    $0x0,%edx
 804d8d1:	8a 15 40 57 05 08    	mov    0x8055740,%dl
 804d8d7:	8b 14 95 60 e2 1f 08 	mov    0x81fe260(,%edx,4),%edx
 804d8de:	89 15 44 57 05 08    	mov    %edx,0x8055744
 804d8e4:	c7 05 40 57 05 08 13 	movl   $0x13,0x8055740
 804d8eb:	00 00 00 
 804d8ee:	c7 05 70 e8 5f 08 a1 	movl   $0xcc0001a1,0x85fe870
 804d8f5:	01 00 cc 
 804d8f8:	a1 44 57 05 08       	mov    0x8055744,%eax
 804d8fd:	8b 15 40 57 05 08    	mov    0x8055740,%edx
 804d903:	c7 05 70 e8 5f 08 a2 	movl   $0xcc0001a2,0x85fe870
 804d90a:	01 00 cc 
 804d90d:	a3 e0 e6 1f 08       	mov    %eax,0x81fe6e0
 804d912:	89 15 e4 e6 1f 08    	mov    %edx,0x81fe6e4
 804d918:	c7 05 70 e8 5f 08 a3 	movl   $0xcc0001a3,0x85fe870
 804d91f:	01 00 cc 
 804d922:	b8 00 00 00 00       	mov    $0x0,%eax
 804d927:	b9 00 00 00 00       	mov    $0x0,%ecx
 804d92c:	c7 05 f0 e6 1f 08 00 	movl   $0x0,0x81fe6f0
 804d933:	00 00 00 
 804d936:	c7 05 70 e8 5f 08 a4 	movl   $0xcc0001a4,0x85fe870
 804d93d:	01 00 cc 
 804d940:	66 a1 e0 e6 1f 08    	mov    0x81fe6e0,%ax
 804d946:	66 8b 0d e4 e6 1f 08 	mov    0x81fe6e4,%cx
 804d94d:	8b 14 85 20 96 06 08 	mov    0x8069620(,%eax,4),%edx
 804d954:	8b 14 8a             	mov    (%edx,%ecx,4),%edx
 804d957:	66 8b 0d f2 e6 1f 08 	mov    0x81fe6f2,%cx
 804d95e:	8b 14 95 20 96 06 08 	mov    0x8069620(,%edx,4),%edx
 804d965:	8b 14 8a             	mov    (%edx,%ecx,4),%edx
 804d968:	66 89 15 e8 e6 1f 08 	mov    %dx,0x81fe6e8
 804d96f:	89 15 f0 e6 1f 08    	mov    %edx,0x81fe6f0
 804d975:	c7 05 70 e8 5f 08 a5 	movl   $0xcc0001a5,0x85fe870
 804d97c:	01 00 cc 
 804d97f:	66 a1 e2 e6 1f 08    	mov    0x81fe6e2,%ax
 804d985:	66 8b 0d e6 e6 1f 08 	mov    0x81fe6e6,%cx
 804d98c:	8b 14 85 20 96 06 08 	mov    0x8069620(,%eax,4),%edx
 804d993:	8b 14 8a             	mov    (%edx,%ecx,4),%edx
 804d996:	66 8b 0d f2 e6 1f 08 	mov    0x81fe6f2,%cx
 804d99d:	8b 14 95 20 96 06 08 	mov    0x8069620(,%edx,4),%edx
 804d9a4:	8b 14 8a             	mov    (%edx,%ecx,4),%edx
 804d9a7:	66 89 15 ea e6 1f 08 	mov    %dx,0x81fe6ea
 804d9ae:	89 15 f0 e6 1f 08    	mov    %edx,0x81fe6f0
 804d9b4:	a1 e8 e6 1f 08       	mov    0x81fe6e8,%eax
 804d9b9:	a3 44 57 05 08       	mov    %eax,0x8055744
 804d9be:	c7 05 40 57 05 08 48 	movl   $0x48,0x8055740
 804d9c5:	00 00 00 
 804d9c8:	c7 05 70 e8 5f 08 a6 	movl   $0xcc0001a6,0x85fe870
 804d9cf:	01 00 cc 
 804d9d2:	a1 44 57 05 08       	mov    0x8055744,%eax
 804d9d7:	8b 15 40 57 05 08    	mov    0x8055740,%edx
 804d9dd:	c7 05 70 e8 5f 08 a7 	movl   $0xcc0001a7,0x85fe870
 804d9e4:	01 00 cc 
 804d9e7:	a3 e0 e6 1f 08       	mov    %eax,0x81fe6e0
 804d9ec:	89 15 e4 e6 1f 08    	mov    %edx,0x81fe6e4
 804d9f2:	c7 05 70 e8 5f 08 a8 	movl   $0xcc0001a8,0x85fe870
 804d9f9:	01 00 cc 
 804d9fc:	c7 05 70 e8 5f 08 a9 	movl   $0xcc0001a9,0x85fe870
 804da03:	01 00 cc 
 804da06:	b8 00 00 00 00       	mov    $0x0,%eax
 804da0b:	ba 00 00 00 00       	mov    $0x0,%edx
 804da10:	a0 e0 e6 1f 08       	mov    0x81fe6e0,%al
 804da15:	8a 15 e4 e6 1f 08    	mov    0x81fe6e4,%dl
 804da1b:	8b 04 85 70 a1 1a 08 	mov    0x81aa170(,%eax,4),%eax
 804da22:	8a 04 10             	mov    (%eax,%edx,1),%al
 804da25:	a2 e8 e6 1f 08       	mov    %al,0x81fe6e8
 804da2a:	c7 05 70 e8 5f 08 aa 	movl   $0xcc0001aa,0x85fe870
 804da31:	01 00 cc 
 804da34:	b8 00 00 00 00       	mov    $0x0,%eax
 804da39:	ba 00 00 00 00       	mov    $0x0,%edx
 804da3e:	a0 e1 e6 1f 08       	mov    0x81fe6e1,%al
 804da43:	8a 15 e5 e6 1f 08    	mov    0x81fe6e5,%dl
 804da49:	8b 04 85 70 a1 1a 08 	mov    0x81aa170(,%eax,4),%eax
 804da50:	8a 04 10             	mov    (%eax,%edx,1),%al
 804da53:	a2 e9 e6 1f 08       	mov    %al,0x81fe6e9
 804da58:	c7 05 70 e8 5f 08 ab 	movl   $0xcc0001ab,0x85fe870
 804da5f:	01 00 cc 
 804da62:	b8 00 00 00 00       	mov    $0x0,%eax
 804da67:	ba 00 00 00 00       	mov    $0x0,%edx
 804da6c:	a0 e2 e6 1f 08       	mov    0x81fe6e2,%al
 804da71:	8a 15 e6 e6 1f 08    	mov    0x81fe6e6,%dl
 804da77:	8b 04 85 70 a1 1a 08 	mov    0x81aa170(,%eax,4),%eax
 804da7e:	8a 04 10             	mov    (%eax,%edx,1),%al
 804da81:	a2 ea e6 1f 08       	mov    %al,0x81fe6ea
 804da86:	c7 05 70 e8 5f 08 ac 	movl   $0xcc0001ac,0x85fe870
 804da8d:	01 00 cc 
 804da90:	b8 00 00 00 00       	mov    $0x0,%eax
 804da95:	ba 00 00 00 00       	mov    $0x0,%edx
 804da9a:	a0 e3 e6 1f 08       	mov    0x81fe6e3,%al
 804da9f:	8a 15 e7 e6 1f 08    	mov    0x81fe6e7,%dl
 804daa5:	8b 04 85 70 a1 1a 08 	mov    0x81aa170(,%eax,4),%eax
 804daac:	8a 04 10             	mov    (%eax,%edx,1),%al
 804daaf:	a2 eb e6 1f 08       	mov    %al,0x81fe6eb
 804dab4:	a1 e8 e6 1f 08       	mov    0x81fe6e8,%eax
 804dab9:	a3 44 57 05 08       	mov    %eax,0x8055744
 804dabe:	c7 05 70 e8 5f 08 ad 	movl   $0xcc0001ad,0x85fe870
 804dac5:	01 00 cc 
 804dac8:	a1 48 57 05 08       	mov    0x8055748,%eax
 804dacd:	8b 15 44 57 05 08    	mov    0x8055744,%edx
 804dad3:	c7 05 70 e8 5f 08 ae 	movl   $0xcc0001ae,0x85fe870
 804dada:	01 00 cc 
 804dadd:	a3 e0 e6 1f 08       	mov    %eax,0x81fe6e0
 804dae2:	89 15 e4 e6 1f 08    	mov    %edx,0x81fe6e4
 804dae8:	c7 05 70 e8 5f 08 af 	movl   $0xcc0001af,0x85fe870
 804daef:	01 00 cc 
 804daf2:	c7 05 70 e8 5f 08 b0 	movl   $0xcc0001b0,0x85fe870
 804daf9:	01 00 cc 
 804dafc:	b8 00 00 00 00       	mov    $0x0,%eax
 804db01:	ba 00 00 00 00       	mov    $0x0,%edx
 804db06:	a0 e0 e6 1f 08       	mov    0x81fe6e0,%al
 804db0b:	8a 15 e4 e6 1f 08    	mov    0x81fe6e4,%dl
 804db11:	8b 04 85 60 9c 19 08 	mov    0x8199c60(,%eax,4),%eax
 804db18:	8a 04 10             	mov    (%eax,%edx,1),%al
 804db1b:	a2 e8 e6 1f 08       	mov    %al,0x81fe6e8
 804db20:	c7 05 70 e8 5f 08 b1 	movl   $0xcc0001b1,0x85fe870
 804db27:	01 00 cc 
 804db2a:	b8 00 00 00 00       	mov    $0x0,%eax
 804db2f:	ba 00 00 00 00       	mov    $0x0,%edx
 804db34:	a0 e1 e6 1f 08       	mov    0x81fe6e1,%al
 804db39:	8a 15 e5 e6 1f 08    	mov    0x81fe6e5,%dl
 804db3f:	8b 04 85 60 9c 19 08 	mov    0x8199c60(,%eax,4),%eax
 804db46:	8a 04 10             	mov    (%eax,%edx,1),%al
 804db49:	a2 e9 e6 1f 08       	mov    %al,0x81fe6e9
 804db4e:	c7 05 70 e8 5f 08 b2 	movl   $0xcc0001b2,0x85fe870
 804db55:	01 00 cc 
 804db58:	b8 00 00 00 00       	mov    $0x0,%eax
 804db5d:	ba 00 00 00 00       	mov    $0x0,%edx
 804db62:	a0 e2 e6 1f 08       	mov    0x81fe6e2,%al
 804db67:	8a 15 e6 e6 1f 08    	mov    0x81fe6e6,%dl
 804db6d:	8b 04 85 60 9c 19 08 	mov    0x8199c60(,%eax,4),%eax
 804db74:	8a 04 10             	mov    (%eax,%edx,1),%al
 804db77:	a2 ea e6 1f 08       	mov    %al,0x81fe6ea
 804db7c:	c7 05 70 e8 5f 08 b3 	movl   $0xcc0001b3,0x85fe870
 804db83:	01 00 cc 
 804db86:	b8 00 00 00 00       	mov    $0x0,%eax
 804db8b:	ba 00 00 00 00       	mov    $0x0,%edx
 804db90:	a0 e3 e6 1f 08       	mov    0x81fe6e3,%al
 804db95:	8a 15 e7 e6 1f 08    	mov    0x81fe6e7,%dl
 804db9b:	8b 04 85 60 9c 19 08 	mov    0x8199c60(,%eax,4),%eax
 804dba2:	8a 04 10             	mov    (%eax,%edx,1),%al
 804dba5:	a2 eb e6 1f 08       	mov    %al,0x81fe6eb
 804dbaa:	a1 e8 e6 1f 08       	mov    0x81fe6e8,%eax
 804dbaf:	a3 48 57 05 08       	mov    %eax,0x8055748
 804dbb4:	c7 05 70 e8 5f 08 b4 	movl   $0xcc0001b4,0x85fe870
 804dbbb:	01 00 cc 
 804dbbe:	a1 24 e8 3f 08       	mov    0x83fe824,%eax
 804dbc3:	ba 8b ff ff ff       	mov    $0xffffff8b,%edx
 804dbc8:	c7 05 70 e8 5f 08 b5 	movl   $0xcc0001b5,0x85fe870
 804dbcf:	01 00 cc 
 804dbd2:	a3 e0 e6 1f 08       	mov    %eax,0x81fe6e0
 804dbd7:	89 15 e4 e6 1f 08    	mov    %edx,0x81fe6e4
 804dbdd:	c7 05 70 e8 5f 08 b6 	movl   $0xcc0001b6,0x85fe870
 804dbe4:	01 00 cc 
 804dbe7:	b8 00 00 00 00       	mov    $0x0,%eax
 804dbec:	b9 00 00 00 00       	mov    $0x0,%ecx
 804dbf1:	c7 05 f0 e6 1f 08 00 	movl   $0x0,0x81fe6f0
 804dbf8:	00 00 00 
 804dbfb:	c7 05 70 e8 5f 08 b7 	movl   $0xcc0001b7,0x85fe870
 804dc02:	01 00 cc 
 804dc05:	66 a1 e0 e6 1f 08    	mov    0x81fe6e0,%ax
 804dc0b:	66 8b 0d e4 e6 1f 08 	mov    0x81fe6e4,%cx
 804dc12:	8b 14 85 20 96 06 08 	mov    0x8069620(,%eax,4),%edx
 804dc19:	8b 14 8a             	mov    (%edx,%ecx,4),%edx
 804dc1c:	66 8b 0d f2 e6 1f 08 	mov    0x81fe6f2,%cx
 804dc23:	8b 14 95 20 96 06 08 	mov    0x8069620(,%edx,4),%edx
 804dc2a:	8b 14 8a             	mov    (%edx,%ecx,4),%edx
 804dc2d:	66 89 15 e8 e6 1f 08 	mov    %dx,0x81fe6e8
 804dc34:	89 15 f0 e6 1f 08    	mov    %edx,0x81fe6f0
 804dc3a:	c7 05 70 e8 5f 08 b8 	movl   $0xcc0001b8,0x85fe870
 804dc41:	01 00 cc 
 804dc44:	66 a1 e2 e6 1f 08    	mov    0x81fe6e2,%ax
 804dc4a:	66 8b 0d e6 e6 1f 08 	mov    0x81fe6e6,%cx
 804dc51:	8b 14 85 20 96 06 08 	mov    0x8069620(,%eax,4),%edx
 804dc58:	8b 14 8a             	mov    (%edx,%ecx,4),%edx
 804dc5b:	66 8b 0d f2 e6 1f 08 	mov    0x81fe6f2,%cx
 804dc62:	8b 14 95 20 96 06 08 	mov    0x8069620(,%edx,4),%edx
 804dc69:	8b 14 8a             	mov    (%edx,%ecx,4),%edx
 804dc6c:	66 89 15 ea e6 1f 08 	mov    %dx,0x81fe6ea
 804dc73:	89 15 f0 e6 1f 08    	mov    %edx,0x81fe6f0
 804dc79:	a1 e8 e6 1f 08       	mov    0x81fe6e8,%eax
 804dc7e:	a3 44 57 05 08       	mov    %eax,0x8055744
 804dc83:	c7 05 70 e8 5f 08 b9 	movl   $0xcc0001b9,0x85fe870
 804dc8a:	01 00 cc 
 804dc8d:	a1 44 57 05 08       	mov    0x8055744,%eax
 804dc92:	8b 15 48 e8 3f 08    	mov    0x83fe848,%edx
 804dc98:	c7 05 70 e8 5f 08 ba 	movl   $0xcc0001ba,0x85fe870
 804dc9f:	01 00 cc 
 804dca2:	a3 64 e8 3f 08       	mov    %eax,0x83fe864
 804dca7:	8b 04 95 60 e8 3f 08 	mov    0x83fe860(,%edx,4),%eax
 804dcae:	ba 00 00 00 00       	mov    $0x0,%edx
 804dcb3:	8a 10                	mov    (%eax),%dl
 804dcb5:	89 15 40 57 05 08    	mov    %edx,0x8055740
 804dcbb:	c7 05 70 e8 5f 08 bb 	movl   $0xcc0001bb,0x85fe870
 804dcc2:	01 00 cc 
 804dcc5:	ba 00 00 00 00       	mov    $0x0,%edx
 804dcca:	8a 15 40 57 05 08    	mov    0x8055740,%dl
 804dcd0:	8b 14 95 60 e2 1f 08 	mov    0x81fe260(,%edx,4),%edx
 804dcd7:	89 15 44 57 05 08    	mov    %edx,0x8055744
 804dcdd:	c7 05 70 e8 5f 08 bc 	movl   $0xcc0001bc,0x85fe870
 804dce4:	01 00 cc 
 804dce7:	a1 24 e8 3f 08       	mov    0x83fe824,%eax
 804dcec:	8b 80 98 ff df ff    	mov    -0x200068(%eax),%eax
 804dcf2:	8b 80 98 ff df ff    	mov    -0x200068(%eax),%eax
 804dcf8:	8b 80 98 ff df ff    	mov    -0x200068(%eax),%eax
 804dcfe:	8b 80 98 ff df ff    	mov    -0x200068(%eax),%eax
 804dd04:	8b 80 98 ff df ff    	mov    -0x200068(%eax),%eax
 804dd0a:	8b 80 98 ff df ff    	mov    -0x200068(%eax),%eax
 804dd10:	8b 80 98 ff df ff    	mov    -0x200068(%eax),%eax
 804dd16:	8b 80 98 ff df ff    	mov    -0x200068(%eax),%eax
 804dd1c:	8b 80 98 ff df ff    	mov    -0x200068(%eax),%eax
 804dd22:	8b 80 98 ff df ff    	mov    -0x200068(%eax),%eax
 804dd28:	8b 80 98 ff df ff    	mov    -0x200068(%eax),%eax
 804dd2e:	8b 80 98 ff df ff    	mov    -0x200068(%eax),%eax
 804dd34:	8b 80 98 ff df ff    	mov    -0x200068(%eax),%eax
 804dd3a:	8b 80 98 ff df ff    	mov    -0x200068(%eax),%eax
 804dd40:	8b 80 98 ff df ff    	mov    -0x200068(%eax),%eax
 804dd46:	8b 80 98 ff df ff    	mov    -0x200068(%eax),%eax
 804dd4c:	8b 80 98 ff df ff    	mov    -0x200068(%eax),%eax
 804dd52:	8b 80 98 ff df ff    	mov    -0x200068(%eax),%eax
 804dd58:	8b 80 98 ff df ff    	mov    -0x200068(%eax),%eax
 804dd5e:	8b 80 98 ff df ff    	mov    -0x200068(%eax),%eax
 804dd64:	8b 80 98 ff df ff    	mov    -0x200068(%eax),%eax
 804dd6a:	8b 80 98 ff df ff    	mov    -0x200068(%eax),%eax
 804dd70:	8b 80 98 ff df ff    	mov    -0x200068(%eax),%eax
 804dd76:	8b 80 98 ff df ff    	mov    -0x200068(%eax),%eax
 804dd7c:	8b 80 98 ff df ff    	mov    -0x200068(%eax),%eax
 804dd82:	8b 80 98 ff df ff    	mov    -0x200068(%eax),%eax
 804dd88:	8b 80 98 ff df ff    	mov    -0x200068(%eax),%eax
 804dd8e:	8b 80 98 ff df ff    	mov    -0x200068(%eax),%eax
 804dd94:	8b 80 98 ff df ff    	mov    -0x200068(%eax),%eax
 804dd9a:	8b 80 98 ff df ff    	mov    -0x200068(%eax),%eax
 804dda0:	8b 80 98 ff df ff    	mov    -0x200068(%eax),%eax
 804dda6:	8b 80 98 ff df ff    	mov    -0x200068(%eax),%eax
 804ddac:	8b 80 98 ff df ff    	mov    -0x200068(%eax),%eax
 804ddb2:	8b 80 98 ff df ff    	mov    -0x200068(%eax),%eax
 804ddb8:	8b 80 98 ff df ff    	mov    -0x200068(%eax),%eax
 804ddbe:	8b 80 98 ff df ff    	mov    -0x200068(%eax),%eax
 804ddc4:	8b 80 98 ff df ff    	mov    -0x200068(%eax),%eax
 804ddca:	a3 40 57 05 08       	mov    %eax,0x8055740
 804ddcf:	c7 05 70 e8 5f 08 bd 	movl   $0xcc0001bd,0x85fe870
 804ddd6:	01 00 cc 
 804ddd9:	a1 40 57 05 08       	mov    0x8055740,%eax
 804ddde:	8b 15 48 e8 3f 08    	mov    0x83fe848,%edx
 804dde4:	c7 05 70 e8 5f 08 be 	movl   $0xcc0001be,0x85fe870
 804ddeb:	01 00 cc 
 804ddee:	a3 64 e8 3f 08       	mov    %eax,0x83fe864
 804ddf3:	8b 04 95 60 e8 3f 08 	mov    0x83fe860(,%edx,4),%eax
 804ddfa:	8b 00                	mov    (%eax),%eax
 804ddfc:	a3 40 57 05 08       	mov    %eax,0x8055740
 804de01:	c7 05 70 e8 5f 08 bf 	movl   $0xcc0001bf,0x85fe870
 804de08:	01 00 cc 
 804de0b:	a1 44 57 05 08       	mov    0x8055744,%eax
 804de10:	8b 15 40 57 05 08    	mov    0x8055740,%edx
 804de16:	c7 05 70 e8 5f 08 c0 	movl   $0xcc0001c0,0x85fe870
 804de1d:	01 00 cc 
 804de20:	a3 e0 e6 1f 08       	mov    %eax,0x81fe6e0
 804de25:	89 15 e4 e6 1f 08    	mov    %edx,0x81fe6e4
 804de2b:	c7 05 70 e8 5f 08 c1 	movl   $0xcc0001c1,0x85fe870
 804de32:	01 00 cc 
 804de35:	b8 00 00 00 00       	mov    $0x0,%eax
 804de3a:	b9 00 00 00 00       	mov    $0x0,%ecx
 804de3f:	c7 05 f0 e6 1f 08 00 	movl   $0x0,0x81fe6f0
 804de46:	00 00 00 
 804de49:	c7 05 70 e8 5f 08 c2 	movl   $0xcc0001c2,0x85fe870
 804de50:	01 00 cc 
 804de53:	66 a1 e0 e6 1f 08    	mov    0x81fe6e0,%ax
 804de59:	66 8b 0d e4 e6 1f 08 	mov    0x81fe6e4,%cx
 804de60:	8b 14 85 20 96 06 08 	mov    0x8069620(,%eax,4),%edx
 804de67:	8b 14 8a             	mov    (%edx,%ecx,4),%edx
 804de6a:	66 8b 0d f2 e6 1f 08 	mov    0x81fe6f2,%cx
 804de71:	8b 14 95 20 96 06 08 	mov    0x8069620(,%edx,4),%edx
 804de78:	8b 14 8a             	mov    (%edx,%ecx,4),%edx
 804de7b:	66 89 15 e8 e6 1f 08 	mov    %dx,0x81fe6e8
 804de82:	89 15 f0 e6 1f 08    	mov    %edx,0x81fe6f0
 804de88:	c7 05 70 e8 5f 08 c3 	movl   $0xcc0001c3,0x85fe870
 804de8f:	01 00 cc 
 804de92:	66 a1 e2 e6 1f 08    	mov    0x81fe6e2,%ax
 804de98:	66 8b 0d e6 e6 1f 08 	mov    0x81fe6e6,%cx
 804de9f:	8b 14 85 20 96 06 08 	mov    0x8069620(,%eax,4),%edx
 804dea6:	8b 14 8a             	mov    (%edx,%ecx,4),%edx
 804dea9:	66 8b 0d f2 e6 1f 08 	mov    0x81fe6f2,%cx
 804deb0:	8b 14 95 20 96 06 08 	mov    0x8069620(,%edx,4),%edx
 804deb7:	8b 14 8a             	mov    (%edx,%ecx,4),%edx
 804deba:	66 89 15 ea e6 1f 08 	mov    %dx,0x81fe6ea
 804dec1:	89 15 f0 e6 1f 08    	mov    %edx,0x81fe6f0
 804dec7:	a1 e8 e6 1f 08       	mov    0x81fe6e8,%eax
 804decc:	a3 44 57 05 08       	mov    %eax,0x8055744
 804ded1:	c7 05 40 57 05 08 65 	movl   $0x65,0x8055740
 804ded8:	00 00 00 
 804dedb:	c7 05 70 e8 5f 08 c4 	movl   $0xcc0001c4,0x85fe870
 804dee2:	01 00 cc 
 804dee5:	a1 44 57 05 08       	mov    0x8055744,%eax
 804deea:	8b 15 40 57 05 08    	mov    0x8055740,%edx
 804def0:	c7 05 70 e8 5f 08 c5 	movl   $0xcc0001c5,0x85fe870
 804def7:	01 00 cc 
 804defa:	a3 e0 e6 1f 08       	mov    %eax,0x81fe6e0
 804deff:	89 15 e4 e6 1f 08    	mov    %edx,0x81fe6e4
 804df05:	c7 05 70 e8 5f 08 c6 	movl   $0xcc0001c6,0x85fe870
 804df0c:	01 00 cc 
 804df0f:	c7 05 70 e8 5f 08 c7 	movl   $0xcc0001c7,0x85fe870
 804df16:	01 00 cc 
 804df19:	b8 00 00 00 00       	mov    $0x0,%eax
 804df1e:	ba 00 00 00 00       	mov    $0x0,%edx
 804df23:	a0 e0 e6 1f 08       	mov    0x81fe6e0,%al
 804df28:	8a 15 e4 e6 1f 08    	mov    0x81fe6e4,%dl
 804df2e:	8b 04 85 70 a1 1a 08 	mov    0x81aa170(,%eax,4),%eax
 804df35:	8a 04 10             	mov    (%eax,%edx,1),%al
 804df38:	a2 e8 e6 1f 08       	mov    %al,0x81fe6e8
 804df3d:	c7 05 70 e8 5f 08 c8 	movl   $0xcc0001c8,0x85fe870
 804df44:	01 00 cc 
 804df47:	b8 00 00 00 00       	mov    $0x0,%eax
 804df4c:	ba 00 00 00 00       	mov    $0x0,%edx
 804df51:	a0 e1 e6 1f 08       	mov    0x81fe6e1,%al
 804df56:	8a 15 e5 e6 1f 08    	mov    0x81fe6e5,%dl
 804df5c:	8b 04 85 70 a1 1a 08 	mov    0x81aa170(,%eax,4),%eax
 804df63:	8a 04 10             	mov    (%eax,%edx,1),%al
 804df66:	a2 e9 e6 1f 08       	mov    %al,0x81fe6e9
 804df6b:	c7 05 70 e8 5f 08 c9 	movl   $0xcc0001c9,0x85fe870
 804df72:	01 00 cc 
 804df75:	b8 00 00 00 00       	mov    $0x0,%eax
 804df7a:	ba 00 00 00 00       	mov    $0x0,%edx
 804df7f:	a0 e2 e6 1f 08       	mov    0x81fe6e2,%al
 804df84:	8a 15 e6 e6 1f 08    	mov    0x81fe6e6,%dl
 804df8a:	8b 04 85 70 a1 1a 08 	mov    0x81aa170(,%eax,4),%eax
 804df91:	8a 04 10             	mov    (%eax,%edx,1),%al
 804df94:	a2 ea e6 1f 08       	mov    %al,0x81fe6ea
 804df99:	c7 05 70 e8 5f 08 ca 	movl   $0xcc0001ca,0x85fe870
 804dfa0:	01 00 cc 
 804dfa3:	b8 00 00 00 00       	mov    $0x0,%eax
 804dfa8:	ba 00 00 00 00       	mov    $0x0,%edx
 804dfad:	a0 e3 e6 1f 08       	mov    0x81fe6e3,%al
 804dfb2:	8a 15 e7 e6 1f 08    	mov    0x81fe6e7,%dl
 804dfb8:	8b 04 85 70 a1 1a 08 	mov    0x81aa170(,%eax,4),%eax
 804dfbf:	8a 04 10             	mov    (%eax,%edx,1),%al
 804dfc2:	a2 eb e6 1f 08       	mov    %al,0x81fe6eb
 804dfc7:	a1 e8 e6 1f 08       	mov    0x81fe6e8,%eax
 804dfcc:	a3 44 57 05 08       	mov    %eax,0x8055744
 804dfd1:	c7 05 70 e8 5f 08 cb 	movl   $0xcc0001cb,0x85fe870
 804dfd8:	01 00 cc 
 804dfdb:	a1 48 57 05 08       	mov    0x8055748,%eax
 804dfe0:	8b 15 44 57 05 08    	mov    0x8055744,%edx
 804dfe6:	c7 05 70 e8 5f 08 cc 	movl   $0xcc0001cc,0x85fe870
 804dfed:	01 00 cc 
 804dff0:	a3 e0 e6 1f 08       	mov    %eax,0x81fe6e0
 804dff5:	89 15 e4 e6 1f 08    	mov    %edx,0x81fe6e4
 804dffb:	c7 05 70 e8 5f 08 cd 	movl   $0xcc0001cd,0x85fe870
 804e002:	01 00 cc 
 804e005:	c7 05 70 e8 5f 08 ce 	movl   $0xcc0001ce,0x85fe870
 804e00c:	01 00 cc 
 804e00f:	b8 00 00 00 00       	mov    $0x0,%eax
 804e014:	ba 00 00 00 00       	mov    $0x0,%edx
 804e019:	a0 e0 e6 1f 08       	mov    0x81fe6e0,%al
 804e01e:	8a 15 e4 e6 1f 08    	mov    0x81fe6e4,%dl
 804e024:	8b 04 85 60 9c 19 08 	mov    0x8199c60(,%eax,4),%eax
 804e02b:	8a 04 10             	mov    (%eax,%edx,1),%al
 804e02e:	a2 e8 e6 1f 08       	mov    %al,0x81fe6e8
 804e033:	c7 05 70 e8 5f 08 cf 	movl   $0xcc0001cf,0x85fe870
 804e03a:	01 00 cc 
 804e03d:	b8 00 00 00 00       	mov    $0x0,%eax
 804e042:	ba 00 00 00 00       	mov    $0x0,%edx
 804e047:	a0 e1 e6 1f 08       	mov    0x81fe6e1,%al
 804e04c:	8a 15 e5 e6 1f 08    	mov    0x81fe6e5,%dl
 804e052:	8b 04 85 60 9c 19 08 	mov    0x8199c60(,%eax,4),%eax
 804e059:	8a 04 10             	mov    (%eax,%edx,1),%al
 804e05c:	a2 e9 e6 1f 08       	mov    %al,0x81fe6e9
 804e061:	c7 05 70 e8 5f 08 d0 	movl   $0xcc0001d0,0x85fe870
 804e068:	01 00 cc 
 804e06b:	b8 00 00 00 00       	mov    $0x0,%eax
 804e070:	ba 00 00 00 00       	mov    $0x0,%edx
 804e075:	a0 e2 e6 1f 08       	mov    0x81fe6e2,%al
 804e07a:	8a 15 e6 e6 1f 08    	mov    0x81fe6e6,%dl
 804e080:	8b 04 85 60 9c 19 08 	mov    0x8199c60(,%eax,4),%eax
 804e087:	8a 04 10             	mov    (%eax,%edx,1),%al
 804e08a:	a2 ea e6 1f 08       	mov    %al,0x81fe6ea
 804e08f:	c7 05 70 e8 5f 08 d1 	movl   $0xcc0001d1,0x85fe870
 804e096:	01 00 cc 
 804e099:	b8 00 00 00 00       	mov    $0x0,%eax
 804e09e:	ba 00 00 00 00       	mov    $0x0,%edx
 804e0a3:	a0 e3 e6 1f 08       	mov    0x81fe6e3,%al
 804e0a8:	8a 15 e7 e6 1f 08    	mov    0x81fe6e7,%dl
 804e0ae:	8b 04 85 60 9c 19 08 	mov    0x8199c60(,%eax,4),%eax
 804e0b5:	8a 04 10             	mov    (%eax,%edx,1),%al
 804e0b8:	a2 eb e6 1f 08       	mov    %al,0x81fe6eb
 804e0bd:	a1 e8 e6 1f 08       	mov    0x81fe6e8,%eax
 804e0c2:	a3 48 57 05 08       	mov    %eax,0x8055748
 804e0c7:	c7 05 70 e8 5f 08 d2 	movl   $0xcc0001d2,0x85fe870
 804e0ce:	01 00 cc 
 804e0d1:	a1 24 e8 3f 08       	mov    0x83fe824,%eax
 804e0d6:	8b 80 98 ff df ff    	mov    -0x200068(%eax),%eax
 804e0dc:	8b 80 98 ff df ff    	mov    -0x200068(%eax),%eax
 804e0e2:	8b 80 98 ff df ff    	mov    -0x200068(%eax),%eax
 804e0e8:	8b 80 98 ff df ff    	mov    -0x200068(%eax),%eax
 804e0ee:	8b 80 98 ff df ff    	mov    -0x200068(%eax),%eax
 804e0f4:	8b 80 98 ff df ff    	mov    -0x200068(%eax),%eax
 804e0fa:	8b 80 98 ff df ff    	mov    -0x200068(%eax),%eax
 804e100:	8b 80 98 ff df ff    	mov    -0x200068(%eax),%eax
 804e106:	8b 80 98 ff df ff    	mov    -0x200068(%eax),%eax
 804e10c:	8b 80 98 ff df ff    	mov    -0x200068(%eax),%eax
 804e112:	8b 80 98 ff df ff    	mov    -0x200068(%eax),%eax
 804e118:	8b 80 98 ff df ff    	mov    -0x200068(%eax),%eax
 804e11e:	8b 80 98 ff df ff    	mov    -0x200068(%eax),%eax
 804e124:	8b 80 98 ff df ff    	mov    -0x200068(%eax),%eax
 804e12a:	8b 80 98 ff df ff    	mov    -0x200068(%eax),%eax
 804e130:	8b 80 98 ff df ff    	mov    -0x200068(%eax),%eax
 804e136:	8b 80 98 ff df ff    	mov    -0x200068(%eax),%eax
 804e13c:	8b 80 98 ff df ff    	mov    -0x200068(%eax),%eax
 804e142:	8b 80 98 ff df ff    	mov    -0x200068(%eax),%eax
 804e148:	8b 80 98 ff df ff    	mov    -0x200068(%eax),%eax
 804e14e:	8b 80 98 ff df ff    	mov    -0x200068(%eax),%eax
 804e154:	8b 80 98 ff df ff    	mov    -0x200068(%eax),%eax
 804e15a:	8b 80 98 ff df ff    	mov    -0x200068(%eax),%eax
 804e160:	8b 80 98 ff df ff    	mov    -0x200068(%eax),%eax
 804e166:	8b 80 98 ff df ff    	mov    -0x200068(%eax),%eax
 804e16c:	8b 80 98 ff df ff    	mov    -0x200068(%eax),%eax
 804e172:	8b 80 98 ff df ff    	mov    -0x200068(%eax),%eax
 804e178:	8b 80 98 ff df ff    	mov    -0x200068(%eax),%eax
 804e17e:	8b 80 98 ff df ff    	mov    -0x200068(%eax),%eax
 804e184:	a3 44 57 05 08       	mov    %eax,0x8055744
 804e189:	c7 05 70 e8 5f 08 d3 	movl   $0xcc0001d3,0x85fe870
 804e190:	01 00 cc 
 804e193:	a1 44 57 05 08       	mov    0x8055744,%eax
 804e198:	8b 15 48 e8 3f 08    	mov    0x83fe848,%edx
 804e19e:	c7 05 70 e8 5f 08 d4 	movl   $0xcc0001d4,0x85fe870
 804e1a5:	01 00 cc 
 804e1a8:	a3 64 e8 3f 08       	mov    %eax,0x83fe864
 804e1ad:	8b 04 95 60 e8 3f 08 	mov    0x83fe860(,%edx,4),%eax
 804e1b4:	ba 00 00 00 00       	mov    $0x0,%edx
 804e1b9:	8a 10                	mov    (%eax),%dl
 804e1bb:	89 15 40 57 05 08    	mov    %edx,0x8055740
 804e1c1:	c7 05 70 e8 5f 08 d5 	movl   $0xcc0001d5,0x85fe870
 804e1c8:	01 00 cc 
 804e1cb:	ba 00 00 00 00       	mov    $0x0,%edx
 804e1d0:	8a 15 40 57 05 08    	mov    0x8055740,%dl
 804e1d6:	8b 14 95 60 e2 1f 08 	mov    0x81fe260(,%edx,4),%edx
 804e1dd:	89 15 44 57 05 08    	mov    %edx,0x8055744
 804e1e3:	c7 05 70 e8 5f 08 d6 	movl   $0xcc0001d6,0x85fe870
 804e1ea:	01 00 cc 
 804e1ed:	a1 24 e8 3f 08       	mov    0x83fe824,%eax
 804e1f2:	8b 80 98 ff df ff    	mov    -0x200068(%eax),%eax
 804e1f8:	8b 80 98 ff df ff    	mov    -0x200068(%eax),%eax
 804e1fe:	8b 80 98 ff df ff    	mov    -0x200068(%eax),%eax
 804e204:	8b 80 98 ff df ff    	mov    -0x200068(%eax),%eax
 804e20a:	8b 80 98 ff df ff    	mov    -0x200068(%eax),%eax
 804e210:	8b 80 98 ff df ff    	mov    -0x200068(%eax),%eax
 804e216:	8b 80 98 ff df ff    	mov    -0x200068(%eax),%eax
 804e21c:	8b 80 98 ff df ff    	mov    -0x200068(%eax),%eax
 804e222:	8b 80 98 ff df ff    	mov    -0x200068(%eax),%eax
 804e228:	8b 80 98 ff df ff    	mov    -0x200068(%eax),%eax
 804e22e:	8b 80 98 ff df ff    	mov    -0x200068(%eax),%eax
 804e234:	8b 80 98 ff df ff    	mov    -0x200068(%eax),%eax
 804e23a:	8b 80 98 ff df ff    	mov    -0x200068(%eax),%eax
 804e240:	8b 80 98 ff df ff    	mov    -0x200068(%eax),%eax
 804e246:	8b 80 98 ff df ff    	mov    -0x200068(%eax),%eax
 804e24c:	8b 80 98 ff df ff    	mov    -0x200068(%eax),%eax
 804e252:	8b 80 98 ff df ff    	mov    -0x200068(%eax),%eax
 804e258:	8b 80 98 ff df ff    	mov    -0x200068(%eax),%eax
 804e25e:	8b 80 98 ff df ff    	mov    -0x200068(%eax),%eax
 804e264:	8b 80 98 ff df ff    	mov    -0x200068(%eax),%eax
 804e26a:	8b 80 98 ff df ff    	mov    -0x200068(%eax),%eax
 804e270:	8b 80 98 ff df ff    	mov    -0x200068(%eax),%eax
 804e276:	8b 80 98 ff df ff    	mov    -0x200068(%eax),%eax
 804e27c:	8b 80 98 ff df ff    	mov    -0x200068(%eax),%eax
 804e282:	8b 80 98 ff df ff    	mov    -0x200068(%eax),%eax
 804e288:	8b 80 98 ff df ff    	mov    -0x200068(%eax),%eax
 804e28e:	8b 80 98 ff df ff    	mov    -0x200068(%eax),%eax
 804e294:	8b 80 98 ff df ff    	mov    -0x200068(%eax),%eax
 804e29a:	8b 80 98 ff df ff    	mov    -0x200068(%eax),%eax
 804e2a0:	8b 80 98 ff df ff    	mov    -0x200068(%eax),%eax
 804e2a6:	8b 80 98 ff df ff    	mov    -0x200068(%eax),%eax
 804e2ac:	8b 80 98 ff df ff    	mov    -0x200068(%eax),%eax
 804e2b2:	8b 80 98 ff df ff    	mov    -0x200068(%eax),%eax
 804e2b8:	8b 80 98 ff df ff    	mov    -0x200068(%eax),%eax
 804e2be:	8b 80 98 ff df ff    	mov    -0x200068(%eax),%eax
 804e2c4:	8b 80 98 ff df ff    	mov    -0x200068(%eax),%eax
 804e2ca:	8b 80 98 ff df ff    	mov    -0x200068(%eax),%eax
 804e2d0:	8b 80 98 ff df ff    	mov    -0x200068(%eax),%eax
 804e2d6:	a3 40 57 05 08       	mov    %eax,0x8055740
 804e2db:	c7 05 70 e8 5f 08 d7 	movl   $0xcc0001d7,0x85fe870
 804e2e2:	01 00 cc 
 804e2e5:	a1 40 57 05 08       	mov    0x8055740,%eax
 804e2ea:	8b 15 48 e8 3f 08    	mov    0x83fe848,%edx
 804e2f0:	c7 05 70 e8 5f 08 d8 	movl   $0xcc0001d8,0x85fe870
 804e2f7:	01 00 cc 
 804e2fa:	a3 64 e8 3f 08       	mov    %eax,0x83fe864
 804e2ff:	8b 04 95 60 e8 3f 08 	mov    0x83fe860(,%edx,4),%eax
 804e306:	8b 00                	mov    (%eax),%eax
 804e308:	a3 40 57 05 08       	mov    %eax,0x8055740
 804e30d:	c7 05 70 e8 5f 08 d9 	movl   $0xcc0001d9,0x85fe870
 804e314:	01 00 cc 
 804e317:	a1 44 57 05 08       	mov    0x8055744,%eax
 804e31c:	8b 15 40 57 05 08    	mov    0x8055740,%edx
 804e322:	c7 05 70 e8 5f 08 da 	movl   $0xcc0001da,0x85fe870
 804e329:	01 00 cc 
 804e32c:	a3 e0 e6 1f 08       	mov    %eax,0x81fe6e0
 804e331:	89 15 e4 e6 1f 08    	mov    %edx,0x81fe6e4
 804e337:	c7 05 70 e8 5f 08 db 	movl   $0xcc0001db,0x85fe870
 804e33e:	01 00 cc 
 804e341:	b8 00 00 00 00       	mov    $0x0,%eax
 804e346:	b9 00 00 00 00       	mov    $0x0,%ecx
 804e34b:	c7 05 f0 e6 1f 08 00 	movl   $0x0,0x81fe6f0
 804e352:	00 00 00 
 804e355:	c7 05 70 e8 5f 08 dc 	movl   $0xcc0001dc,0x85fe870
 804e35c:	01 00 cc 
 804e35f:	66 a1 e0 e6 1f 08    	mov    0x81fe6e0,%ax
 804e365:	66 8b 0d e4 e6 1f 08 	mov    0x81fe6e4,%cx
 804e36c:	8b 14 85 20 96 06 08 	mov    0x8069620(,%eax,4),%edx
 804e373:	8b 14 8a             	mov    (%edx,%ecx,4),%edx
 804e376:	66 8b 0d f2 e6 1f 08 	mov    0x81fe6f2,%cx
 804e37d:	8b 14 95 20 96 06 08 	mov    0x8069620(,%edx,4),%edx
 804e384:	8b 14 8a             	mov    (%edx,%ecx,4),%edx
 804e387:	66 89 15 e8 e6 1f 08 	mov    %dx,0x81fe6e8
 804e38e:	89 15 f0 e6 1f 08    	mov    %edx,0x81fe6f0
 804e394:	c7 05 70 e8 5f 08 dd 	movl   $0xcc0001dd,0x85fe870
 804e39b:	01 00 cc 
 804e39e:	66 a1 e2 e6 1f 08    	mov    0x81fe6e2,%ax
 804e3a4:	66 8b 0d e6 e6 1f 08 	mov    0x81fe6e6,%cx
 804e3ab:	8b 14 85 20 96 06 08 	mov    0x8069620(,%eax,4),%edx
 804e3b2:	8b 14 8a             	mov    (%edx,%ecx,4),%edx
 804e3b5:	66 8b 0d f2 e6 1f 08 	mov    0x81fe6f2,%cx
 804e3bc:	8b 14 95 20 96 06 08 	mov    0x8069620(,%edx,4),%edx
 804e3c3:	8b 14 8a             	mov    (%edx,%ecx,4),%edx
 804e3c6:	66 89 15 ea e6 1f 08 	mov    %dx,0x81fe6ea
 804e3cd:	89 15 f0 e6 1f 08    	mov    %edx,0x81fe6f0
 804e3d3:	a1 e8 e6 1f 08       	mov    0x81fe6e8,%eax
 804e3d8:	a3 44 57 05 08       	mov    %eax,0x8055744
 804e3dd:	c7 05 70 e8 5f 08 de 	movl   $0xcc0001de,0x85fe870
 804e3e4:	01 00 cc 
 804e3e7:	a1 24 e8 3f 08       	mov    0x83fe824,%eax
 804e3ec:	8b 80 98 ff df ff    	mov    -0x200068(%eax),%eax
 804e3f2:	8b 80 98 ff df ff    	mov    -0x200068(%eax),%eax
 804e3f8:	8b 80 98 ff df ff    	mov    -0x200068(%eax),%eax
 804e3fe:	8b 80 98 ff df ff    	mov    -0x200068(%eax),%eax
 804e404:	8b 80 98 ff df ff    	mov    -0x200068(%eax),%eax
 804e40a:	8b 80 98 ff df ff    	mov    -0x200068(%eax),%eax
 804e410:	8b 80 98 ff df ff    	mov    -0x200068(%eax),%eax
 804e416:	8b 80 98 ff df ff    	mov    -0x200068(%eax),%eax
 804e41c:	8b 80 98 ff df ff    	mov    -0x200068(%eax),%eax
 804e422:	8b 80 98 ff df ff    	mov    -0x200068(%eax),%eax
 804e428:	8b 80 98 ff df ff    	mov    -0x200068(%eax),%eax
 804e42e:	8b 80 98 ff df ff    	mov    -0x200068(%eax),%eax
 804e434:	8b 80 98 ff df ff    	mov    -0x200068(%eax),%eax
 804e43a:	8b 80 98 ff df ff    	mov    -0x200068(%eax),%eax
 804e440:	8b 80 98 ff df ff    	mov    -0x200068(%eax),%eax
 804e446:	8b 80 98 ff df ff    	mov    -0x200068(%eax),%eax
 804e44c:	8b 80 98 ff df ff    	mov    -0x200068(%eax),%eax
 804e452:	8b 80 98 ff df ff    	mov    -0x200068(%eax),%eax
 804e458:	8b 80 98 ff df ff    	mov    -0x200068(%eax),%eax
 804e45e:	8b 80 98 ff df ff    	mov    -0x200068(%eax),%eax
 804e464:	8b 80 98 ff df ff    	mov    -0x200068(%eax),%eax
 804e46a:	8b 80 98 ff df ff    	mov    -0x200068(%eax),%eax
 804e470:	8b 80 98 ff df ff    	mov    -0x200068(%eax),%eax
 804e476:	8b 80 98 ff df ff    	mov    -0x200068(%eax),%eax
 804e47c:	8b 80 98 ff df ff    	mov    -0x200068(%eax),%eax
 804e482:	8b 80 98 ff df ff    	mov    -0x200068(%eax),%eax
 804e488:	8b 80 98 ff df ff    	mov    -0x200068(%eax),%eax
 804e48e:	8b 80 98 ff df ff    	mov    -0x200068(%eax),%eax
 804e494:	8b 80 98 ff df ff    	mov    -0x200068(%eax),%eax
 804e49a:	8b 80 98 ff df ff    	mov    -0x200068(%eax),%eax
 804e4a0:	8b 80 98 ff df ff    	mov    -0x200068(%eax),%eax
 804e4a6:	8b 80 98 ff df ff    	mov    -0x200068(%eax),%eax
 804e4ac:	8b 80 98 ff df ff    	mov    -0x200068(%eax),%eax
 804e4b2:	8b 80 98 ff df ff    	mov    -0x200068(%eax),%eax
 804e4b8:	8b 80 98 ff df ff    	mov    -0x200068(%eax),%eax
 804e4be:	a3 40 57 05 08       	mov    %eax,0x8055740
 804e4c3:	c7 05 70 e8 5f 08 df 	movl   $0xcc0001df,0x85fe870
 804e4ca:	01 00 cc 
 804e4cd:	a1 40 57 05 08       	mov    0x8055740,%eax
 804e4d2:	8b 15 48 e8 3f 08    	mov    0x83fe848,%edx
 804e4d8:	c7 05 70 e8 5f 08 e0 	movl   $0xcc0001e0,0x85fe870
 804e4df:	01 00 cc 
 804e4e2:	a3 64 e8 3f 08       	mov    %eax,0x83fe864
 804e4e7:	8b 04 95 60 e8 3f 08 	mov    0x83fe860(,%edx,4),%eax
 804e4ee:	8b 00                	mov    (%eax),%eax
 804e4f0:	a3 40 57 05 08       	mov    %eax,0x8055740
 804e4f5:	c7 05 70 e8 5f 08 e1 	movl   $0xcc0001e1,0x85fe870
 804e4fc:	01 00 cc 
 804e4ff:	a1 44 57 05 08       	mov    0x8055744,%eax
 804e504:	8b 15 40 57 05 08    	mov    0x8055740,%edx
 804e50a:	c7 05 70 e8 5f 08 e2 	movl   $0xcc0001e2,0x85fe870
 804e511:	01 00 cc 
 804e514:	a3 e0 e6 1f 08       	mov    %eax,0x81fe6e0
 804e519:	89 15 e4 e6 1f 08    	mov    %edx,0x81fe6e4
 804e51f:	c7 05 70 e8 5f 08 e3 	movl   $0xcc0001e3,0x85fe870
 804e526:	01 00 cc 
 804e529:	b8 00 00 00 00       	mov    $0x0,%eax
 804e52e:	b9 00 00 00 00       	mov    $0x0,%ecx
 804e533:	c7 05 f0 e6 1f 08 01 	movl   $0x1,0x81fe6f0
 804e53a:	00 00 00 
 804e53d:	c7 05 70 e8 5f 08 e4 	movl   $0xcc0001e4,0x85fe870
 804e544:	01 00 cc 
 804e547:	66 a1 e0 e6 1f 08    	mov    0x81fe6e0,%ax
 804e54d:	66 8b 0d e4 e6 1f 08 	mov    0x81fe6e4,%cx
 804e554:	66 8b 0c 4d 40 97 16 	mov    0x8169740(,%ecx,2),%cx
 804e55b:	08 
 804e55c:	8b 14 85 20 96 06 08 	mov    0x8069620(,%eax,4),%edx
 804e563:	8b 14 8a             	mov    (%edx,%ecx,4),%edx
 804e566:	8b 14 95 20 96 06 08 	mov    0x8069620(,%edx,4),%edx
 804e56d:	8b 0d f0 e6 1f 08    	mov    0x81fe6f0,%ecx
 804e573:	8b 14 8a             	mov    (%edx,%ecx,4),%edx
 804e576:	66 89 15 e8 e6 1f 08 	mov    %dx,0x81fe6e8
 804e57d:	89 15 ee e6 1f 08    	mov    %edx,0x81fe6ee
 804e583:	c7 05 70 e8 5f 08 e5 	movl   $0xcc0001e5,0x85fe870
 804e58a:	01 00 cc 
 804e58d:	66 a1 e2 e6 1f 08    	mov    0x81fe6e2,%ax
 804e593:	66 8b 0d e6 e6 1f 08 	mov    0x81fe6e6,%cx
 804e59a:	66 8b 0c 4d 40 97 16 	mov    0x8169740(,%ecx,2),%cx
 804e5a1:	08 
 804e5a2:	8b 14 85 20 96 06 08 	mov    0x8069620(,%eax,4),%edx
 804e5a9:	8b 14 8a             	mov    (%edx,%ecx,4),%edx
 804e5ac:	8b 14 95 20 96 06 08 	mov    0x8069620(,%edx,4),%edx
 804e5b3:	8b 0d f0 e6 1f 08    	mov    0x81fe6f0,%ecx
 804e5b9:	8b 14 8a             	mov    (%edx,%ecx,4),%edx
 804e5bc:	66 89 15 ea e6 1f 08 	mov    %dx,0x81fe6ea
 804e5c3:	89 15 ee e6 1f 08    	mov    %edx,0x81fe6ee
 804e5c9:	a1 e8 e6 1f 08       	mov    0x81fe6e8,%eax
 804e5ce:	a3 44 57 05 08       	mov    %eax,0x8055744
 804e5d3:	c7 05 70 e8 5f 08 e6 	movl   $0xcc0001e6,0x85fe870
 804e5da:	01 00 cc 
 804e5dd:	a1 48 57 05 08       	mov    0x8055748,%eax
 804e5e2:	8b 15 44 57 05 08    	mov    0x8055744,%edx
 804e5e8:	c7 05 70 e8 5f 08 e7 	movl   $0xcc0001e7,0x85fe870
 804e5ef:	01 00 cc 
 804e5f2:	a3 e0 e6 1f 08       	mov    %eax,0x81fe6e0
 804e5f7:	89 15 e4 e6 1f 08    	mov    %edx,0x81fe6e4
 804e5fd:	c7 05 70 e8 5f 08 e8 	movl   $0xcc0001e8,0x85fe870
 804e604:	01 00 cc 
 804e607:	c7 05 70 e8 5f 08 e9 	movl   $0xcc0001e9,0x85fe870
 804e60e:	01 00 cc 
 804e611:	b8 00 00 00 00       	mov    $0x0,%eax
 804e616:	ba 00 00 00 00       	mov    $0x0,%edx
 804e61b:	a0 e0 e6 1f 08       	mov    0x81fe6e0,%al
 804e620:	8a 15 e4 e6 1f 08    	mov    0x81fe6e4,%dl
 804e626:	8b 04 85 60 9c 19 08 	mov    0x8199c60(,%eax,4),%eax
 804e62d:	8a 04 10             	mov    (%eax,%edx,1),%al
 804e630:	a2 e8 e6 1f 08       	mov    %al,0x81fe6e8
 804e635:	c7 05 70 e8 5f 08 ea 	movl   $0xcc0001ea,0x85fe870
 804e63c:	01 00 cc 
 804e63f:	b8 00 00 00 00       	mov    $0x0,%eax
 804e644:	ba 00 00 00 00       	mov    $0x0,%edx
 804e649:	a0 e1 e6 1f 08       	mov    0x81fe6e1,%al
 804e64e:	8a 15 e5 e6 1f 08    	mov    0x81fe6e5,%dl
 804e654:	8b 04 85 60 9c 19 08 	mov    0x8199c60(,%eax,4),%eax
 804e65b:	8a 04 10             	mov    (%eax,%edx,1),%al
 804e65e:	a2 e9 e6 1f 08       	mov    %al,0x81fe6e9
 804e663:	c7 05 70 e8 5f 08 eb 	movl   $0xcc0001eb,0x85fe870
 804e66a:	01 00 cc 
 804e66d:	b8 00 00 00 00       	mov    $0x0,%eax
